
AGV_AMR.elf:     file format elf32-littlearm

Sections:
Idx Name          Size      VMA       LMA       File off  Algn
  0 .isr_vector   000000c0  08000000  08000000  00001000  2**0
                  CONTENTS, ALLOC, LOAD, READONLY, DATA
  1 .text         000066ec  080000c0  080000c0  000010c0  2**2
                  CONTENTS, ALLOC, LOAD, READONLY, CODE
  2 .rodata       00000520  080067ac  080067ac  000077ac  2**2
                  CONTENTS, ALLOC, LOAD, READONLY, DATA
  3 .ARM.extab    00000000  08006ccc  08006ccc  00008078  2**0
                  CONTENTS, READONLY
  4 .ARM          00000000  08006ccc  08006ccc  00008078  2**0
                  CONTENTS, READONLY
  5 .preinit_array 00000000  08006ccc  08006ccc  00008078  2**0
                  CONTENTS, ALLOC, LOAD, DATA
  6 .init_array   00000004  08006ccc  08006ccc  00007ccc  2**2
                  CONTENTS, ALLOC, LOAD, READONLY, DATA
  7 .fini_array   00000004  08006cd0  08006cd0  00007cd0  2**2
                  CONTENTS, ALLOC, LOAD, READONLY, DATA
  8 .data         00000078  20000000  08006cd4  00008000  2**2
                  CONTENTS, ALLOC, LOAD, DATA
  9 .bss          00000afc  20000078  08006d4c  00008078  2**2
                  ALLOC
 10 ._user_heap_stack 00000604  20000b74  08006d4c  00008b74  2**0
                  ALLOC
 11 .ARM.attributes 00000028  00000000  00000000  00008078  2**0
                  CONTENTS, READONLY
 12 .debug_info   00004aae  00000000  00000000  000080a0  2**0
                  CONTENTS, READONLY, DEBUGGING, OCTETS
 13 .debug_abbrev 00001330  00000000  00000000  0000cb4e  2**0
                  CONTENTS, READONLY, DEBUGGING, OCTETS
 14 .debug_aranges 00000380  00000000  00000000  0000de80  2**3
                  CONTENTS, READONLY, DEBUGGING, OCTETS
 15 .debug_rnglists 00000287  00000000  00000000  0000e200  2**0
                  CONTENTS, READONLY, DEBUGGING, OCTETS
 16 .debug_macro  0000c386  00000000  00000000  0000e487  2**0
                  CONTENTS, READONLY, DEBUGGING, OCTETS
 17 .debug_line   0000624f  00000000  00000000  0001a80d  2**0
                  CONTENTS, READONLY, DEBUGGING, OCTETS
 18 .debug_str    0003bd7c  00000000  00000000  00020a5c  2**0
                  CONTENTS, READONLY, DEBUGGING, OCTETS
 19 .comment      00000043  00000000  00000000  0005c7d8  2**0
                  CONTENTS, READONLY
 20 .debug_frame  00000ff0  00000000  00000000  0005c81c  2**2
                  CONTENTS, READONLY, DEBUGGING, OCTETS
 21 .debug_line_str 0000005d  00000000  00000000  0005d80c  2**0
                  CONTENTS, READONLY, DEBUGGING, OCTETS

Disassembly of section .text:

080000c0 <__do_global_dtors_aux>:
 80000c0:	b510      	push	{r4, lr}
 80000c2:	4c06      	ldr	r4, [pc, #24]	@ (80000dc <__do_global_dtors_aux+0x1c>)
 80000c4:	7823      	ldrb	r3, [r4, #0]
 80000c6:	2b00      	cmp	r3, #0
 80000c8:	d107      	bne.n	80000da <__do_global_dtors_aux+0x1a>
 80000ca:	4b05      	ldr	r3, [pc, #20]	@ (80000e0 <__do_global_dtors_aux+0x20>)
 80000cc:	2b00      	cmp	r3, #0
 80000ce:	d002      	beq.n	80000d6 <__do_global_dtors_aux+0x16>
 80000d0:	4804      	ldr	r0, [pc, #16]	@ (80000e4 <__do_global_dtors_aux+0x24>)
 80000d2:	e000      	b.n	80000d6 <__do_global_dtors_aux+0x16>
 80000d4:	bf00      	nop
 80000d6:	2301      	movs	r3, #1
 80000d8:	7023      	strb	r3, [r4, #0]
 80000da:	bd10      	pop	{r4, pc}
 80000dc:	20000078 	.word	0x20000078
 80000e0:	00000000 	.word	0x00000000
 80000e4:	08006794 	.word	0x08006794

080000e8 <frame_dummy>:
 80000e8:	4b04      	ldr	r3, [pc, #16]	@ (80000fc <frame_dummy+0x14>)
 80000ea:	b510      	push	{r4, lr}
 80000ec:	2b00      	cmp	r3, #0
 80000ee:	d003      	beq.n	80000f8 <frame_dummy+0x10>
 80000f0:	4903      	ldr	r1, [pc, #12]	@ (8000100 <frame_dummy+0x18>)
 80000f2:	4804      	ldr	r0, [pc, #16]	@ (8000104 <frame_dummy+0x1c>)
 80000f4:	e000      	b.n	80000f8 <frame_dummy+0x10>
 80000f6:	bf00      	nop
 80000f8:	bd10      	pop	{r4, pc}
 80000fa:	46c0      	nop			@ (mov r8, r8)
 80000fc:	00000000 	.word	0x00000000
 8000100:	2000007c 	.word	0x2000007c
 8000104:	08006794 	.word	0x08006794

08000108 <__udivsi3>:
 8000108:	2200      	movs	r2, #0
 800010a:	0843      	lsrs	r3, r0, #1
 800010c:	428b      	cmp	r3, r1
 800010e:	d374      	bcc.n	80001fa <__udivsi3+0xf2>
 8000110:	0903      	lsrs	r3, r0, #4
 8000112:	428b      	cmp	r3, r1
 8000114:	d35f      	bcc.n	80001d6 <__udivsi3+0xce>
 8000116:	0a03      	lsrs	r3, r0, #8
 8000118:	428b      	cmp	r3, r1
 800011a:	d344      	bcc.n	80001a6 <__udivsi3+0x9e>
 800011c:	0b03      	lsrs	r3, r0, #12
 800011e:	428b      	cmp	r3, r1
 8000120:	d328      	bcc.n	8000174 <__udivsi3+0x6c>
 8000122:	0c03      	lsrs	r3, r0, #16
 8000124:	428b      	cmp	r3, r1
 8000126:	d30d      	bcc.n	8000144 <__udivsi3+0x3c>
 8000128:	22ff      	movs	r2, #255	@ 0xff
 800012a:	0209      	lsls	r1, r1, #8
 800012c:	ba12      	rev	r2, r2
 800012e:	0c03      	lsrs	r3, r0, #16
 8000130:	428b      	cmp	r3, r1
 8000132:	d302      	bcc.n	800013a <__udivsi3+0x32>
 8000134:	1212      	asrs	r2, r2, #8
 8000136:	0209      	lsls	r1, r1, #8
 8000138:	d065      	beq.n	8000206 <__udivsi3+0xfe>
 800013a:	0b03      	lsrs	r3, r0, #12
 800013c:	428b      	cmp	r3, r1
 800013e:	d319      	bcc.n	8000174 <__udivsi3+0x6c>
 8000140:	e000      	b.n	8000144 <__udivsi3+0x3c>
 8000142:	0a09      	lsrs	r1, r1, #8
 8000144:	0bc3      	lsrs	r3, r0, #15
 8000146:	428b      	cmp	r3, r1
 8000148:	d301      	bcc.n	800014e <__udivsi3+0x46>
 800014a:	03cb      	lsls	r3, r1, #15
 800014c:	1ac0      	subs	r0, r0, r3
 800014e:	4152      	adcs	r2, r2
 8000150:	0b83      	lsrs	r3, r0, #14
 8000152:	428b      	cmp	r3, r1
 8000154:	d301      	bcc.n	800015a <__udivsi3+0x52>
 8000156:	038b      	lsls	r3, r1, #14
 8000158:	1ac0      	subs	r0, r0, r3
 800015a:	4152      	adcs	r2, r2
 800015c:	0b43      	lsrs	r3, r0, #13
 800015e:	428b      	cmp	r3, r1
 8000160:	d301      	bcc.n	8000166 <__udivsi3+0x5e>
 8000162:	034b      	lsls	r3, r1, #13
 8000164:	1ac0      	subs	r0, r0, r3
 8000166:	4152      	adcs	r2, r2
 8000168:	0b03      	lsrs	r3, r0, #12
 800016a:	428b      	cmp	r3, r1
 800016c:	d301      	bcc.n	8000172 <__udivsi3+0x6a>
 800016e:	030b      	lsls	r3, r1, #12
 8000170:	1ac0      	subs	r0, r0, r3
 8000172:	4152      	adcs	r2, r2
 8000174:	0ac3      	lsrs	r3, r0, #11
 8000176:	428b      	cmp	r3, r1
 8000178:	d301      	bcc.n	800017e <__udivsi3+0x76>
 800017a:	02cb      	lsls	r3, r1, #11
 800017c:	1ac0      	subs	r0, r0, r3
 800017e:	4152      	adcs	r2, r2
 8000180:	0a83      	lsrs	r3, r0, #10
 8000182:	428b      	cmp	r3, r1
 8000184:	d301      	bcc.n	800018a <__udivsi3+0x82>
 8000186:	028b      	lsls	r3, r1, #10
 8000188:	1ac0      	subs	r0, r0, r3
 800018a:	4152      	adcs	r2, r2
 800018c:	0a43      	lsrs	r3, r0, #9
 800018e:	428b      	cmp	r3, r1
 8000190:	d301      	bcc.n	8000196 <__udivsi3+0x8e>
 8000192:	024b      	lsls	r3, r1, #9
 8000194:	1ac0      	subs	r0, r0, r3
 8000196:	4152      	adcs	r2, r2
 8000198:	0a03      	lsrs	r3, r0, #8
 800019a:	428b      	cmp	r3, r1
 800019c:	d301      	bcc.n	80001a2 <__udivsi3+0x9a>
 800019e:	020b      	lsls	r3, r1, #8
 80001a0:	1ac0      	subs	r0, r0, r3
 80001a2:	4152      	adcs	r2, r2
 80001a4:	d2cd      	bcs.n	8000142 <__udivsi3+0x3a>
 80001a6:	09c3      	lsrs	r3, r0, #7
 80001a8:	428b      	cmp	r3, r1
 80001aa:	d301      	bcc.n	80001b0 <__udivsi3+0xa8>
 80001ac:	01cb      	lsls	r3, r1, #7
 80001ae:	1ac0      	subs	r0, r0, r3
 80001b0:	4152      	adcs	r2, r2
 80001b2:	0983      	lsrs	r3, r0, #6
 80001b4:	428b      	cmp	r3, r1
 80001b6:	d301      	bcc.n	80001bc <__udivsi3+0xb4>
 80001b8:	018b      	lsls	r3, r1, #6
 80001ba:	1ac0      	subs	r0, r0, r3
 80001bc:	4152      	adcs	r2, r2
 80001be:	0943      	lsrs	r3, r0, #5
 80001c0:	428b      	cmp	r3, r1
 80001c2:	d301      	bcc.n	80001c8 <__udivsi3+0xc0>
 80001c4:	014b      	lsls	r3, r1, #5
 80001c6:	1ac0      	subs	r0, r0, r3
 80001c8:	4152      	adcs	r2, r2
 80001ca:	0903      	lsrs	r3, r0, #4
 80001cc:	428b      	cmp	r3, r1
 80001ce:	d301      	bcc.n	80001d4 <__udivsi3+0xcc>
 80001d0:	010b      	lsls	r3, r1, #4
 80001d2:	1ac0      	subs	r0, r0, r3
 80001d4:	4152      	adcs	r2, r2
 80001d6:	08c3      	lsrs	r3, r0, #3
 80001d8:	428b      	cmp	r3, r1
 80001da:	d301      	bcc.n	80001e0 <__udivsi3+0xd8>
 80001dc:	00cb      	lsls	r3, r1, #3
 80001de:	1ac0      	subs	r0, r0, r3
 80001e0:	4152      	adcs	r2, r2
 80001e2:	0883      	lsrs	r3, r0, #2
 80001e4:	428b      	cmp	r3, r1
 80001e6:	d301      	bcc.n	80001ec <__udivsi3+0xe4>
 80001e8:	008b      	lsls	r3, r1, #2
 80001ea:	1ac0      	subs	r0, r0, r3
 80001ec:	4152      	adcs	r2, r2
 80001ee:	0843      	lsrs	r3, r0, #1
 80001f0:	428b      	cmp	r3, r1
 80001f2:	d301      	bcc.n	80001f8 <__udivsi3+0xf0>
 80001f4:	004b      	lsls	r3, r1, #1
 80001f6:	1ac0      	subs	r0, r0, r3
 80001f8:	4152      	adcs	r2, r2
 80001fa:	1a41      	subs	r1, r0, r1
 80001fc:	d200      	bcs.n	8000200 <__udivsi3+0xf8>
 80001fe:	4601      	mov	r1, r0
 8000200:	4152      	adcs	r2, r2
 8000202:	4610      	mov	r0, r2
 8000204:	4770      	bx	lr
 8000206:	e7ff      	b.n	8000208 <__udivsi3+0x100>
 8000208:	b501      	push	{r0, lr}
 800020a:	2000      	movs	r0, #0
 800020c:	f000 f8f0 	bl	80003f0 <__aeabi_idiv0>
 8000210:	bd02      	pop	{r1, pc}
 8000212:	46c0      	nop			@ (mov r8, r8)

08000214 <__aeabi_uidivmod>:
 8000214:	2900      	cmp	r1, #0
 8000216:	d0f7      	beq.n	8000208 <__udivsi3+0x100>
 8000218:	e776      	b.n	8000108 <__udivsi3>
 800021a:	4770      	bx	lr

0800021c <__divsi3>:
 800021c:	4603      	mov	r3, r0
 800021e:	430b      	orrs	r3, r1
 8000220:	d47f      	bmi.n	8000322 <__divsi3+0x106>
 8000222:	2200      	movs	r2, #0
 8000224:	0843      	lsrs	r3, r0, #1
 8000226:	428b      	cmp	r3, r1
 8000228:	d374      	bcc.n	8000314 <__divsi3+0xf8>
 800022a:	0903      	lsrs	r3, r0, #4
 800022c:	428b      	cmp	r3, r1
 800022e:	d35f      	bcc.n	80002f0 <__divsi3+0xd4>
 8000230:	0a03      	lsrs	r3, r0, #8
 8000232:	428b      	cmp	r3, r1
 8000234:	d344      	bcc.n	80002c0 <__divsi3+0xa4>
 8000236:	0b03      	lsrs	r3, r0, #12
 8000238:	428b      	cmp	r3, r1
 800023a:	d328      	bcc.n	800028e <__divsi3+0x72>
 800023c:	0c03      	lsrs	r3, r0, #16
 800023e:	428b      	cmp	r3, r1
 8000240:	d30d      	bcc.n	800025e <__divsi3+0x42>
 8000242:	22ff      	movs	r2, #255	@ 0xff
 8000244:	0209      	lsls	r1, r1, #8
 8000246:	ba12      	rev	r2, r2
 8000248:	0c03      	lsrs	r3, r0, #16
 800024a:	428b      	cmp	r3, r1
 800024c:	d302      	bcc.n	8000254 <__divsi3+0x38>
 800024e:	1212      	asrs	r2, r2, #8
 8000250:	0209      	lsls	r1, r1, #8
 8000252:	d065      	beq.n	8000320 <__divsi3+0x104>
 8000254:	0b03      	lsrs	r3, r0, #12
 8000256:	428b      	cmp	r3, r1
 8000258:	d319      	bcc.n	800028e <__divsi3+0x72>
 800025a:	e000      	b.n	800025e <__divsi3+0x42>
 800025c:	0a09      	lsrs	r1, r1, #8
 800025e:	0bc3      	lsrs	r3, r0, #15
 8000260:	428b      	cmp	r3, r1
 8000262:	d301      	bcc.n	8000268 <__divsi3+0x4c>
 8000264:	03cb      	lsls	r3, r1, #15
 8000266:	1ac0      	subs	r0, r0, r3
 8000268:	4152      	adcs	r2, r2
 800026a:	0b83      	lsrs	r3, r0, #14
 800026c:	428b      	cmp	r3, r1
 800026e:	d301      	bcc.n	8000274 <__divsi3+0x58>
 8000270:	038b      	lsls	r3, r1, #14
 8000272:	1ac0      	subs	r0, r0, r3
 8000274:	4152      	adcs	r2, r2
 8000276:	0b43      	lsrs	r3, r0, #13
 8000278:	428b      	cmp	r3, r1
 800027a:	d301      	bcc.n	8000280 <__divsi3+0x64>
 800027c:	034b      	lsls	r3, r1, #13
 800027e:	1ac0      	subs	r0, r0, r3
 8000280:	4152      	adcs	r2, r2
 8000282:	0b03      	lsrs	r3, r0, #12
 8000284:	428b      	cmp	r3, r1
 8000286:	d301      	bcc.n	800028c <__divsi3+0x70>
 8000288:	030b      	lsls	r3, r1, #12
 800028a:	1ac0      	subs	r0, r0, r3
 800028c:	4152      	adcs	r2, r2
 800028e:	0ac3      	lsrs	r3, r0, #11
 8000290:	428b      	cmp	r3, r1
 8000292:	d301      	bcc.n	8000298 <__divsi3+0x7c>
 8000294:	02cb      	lsls	r3, r1, #11
 8000296:	1ac0      	subs	r0, r0, r3
 8000298:	4152      	adcs	r2, r2
 800029a:	0a83      	lsrs	r3, r0, #10
 800029c:	428b      	cmp	r3, r1
 800029e:	d301      	bcc.n	80002a4 <__divsi3+0x88>
 80002a0:	028b      	lsls	r3, r1, #10
 80002a2:	1ac0      	subs	r0, r0, r3
 80002a4:	4152      	adcs	r2, r2
 80002a6:	0a43      	lsrs	r3, r0, #9
 80002a8:	428b      	cmp	r3, r1
 80002aa:	d301      	bcc.n	80002b0 <__divsi3+0x94>
 80002ac:	024b      	lsls	r3, r1, #9
 80002ae:	1ac0      	subs	r0, r0, r3
 80002b0:	4152      	adcs	r2, r2
 80002b2:	0a03      	lsrs	r3, r0, #8
 80002b4:	428b      	cmp	r3, r1
 80002b6:	d301      	bcc.n	80002bc <__divsi3+0xa0>
 80002b8:	020b      	lsls	r3, r1, #8
 80002ba:	1ac0      	subs	r0, r0, r3
 80002bc:	4152      	adcs	r2, r2
 80002be:	d2cd      	bcs.n	800025c <__divsi3+0x40>
 80002c0:	09c3      	lsrs	r3, r0, #7
 80002c2:	428b      	cmp	r3, r1
 80002c4:	d301      	bcc.n	80002ca <__divsi3+0xae>
 80002c6:	01cb      	lsls	r3, r1, #7
 80002c8:	1ac0      	subs	r0, r0, r3
 80002ca:	4152      	adcs	r2, r2
 80002cc:	0983      	lsrs	r3, r0, #6
 80002ce:	428b      	cmp	r3, r1
 80002d0:	d301      	bcc.n	80002d6 <__divsi3+0xba>
 80002d2:	018b      	lsls	r3, r1, #6
 80002d4:	1ac0      	subs	r0, r0, r3
 80002d6:	4152      	adcs	r2, r2
 80002d8:	0943      	lsrs	r3, r0, #5
 80002da:	428b      	cmp	r3, r1
 80002dc:	d301      	bcc.n	80002e2 <__divsi3+0xc6>
 80002de:	014b      	lsls	r3, r1, #5
 80002e0:	1ac0      	subs	r0, r0, r3
 80002e2:	4152      	adcs	r2, r2
 80002e4:	0903      	lsrs	r3, r0, #4
 80002e6:	428b      	cmp	r3, r1
 80002e8:	d301      	bcc.n	80002ee <__divsi3+0xd2>
 80002ea:	010b      	lsls	r3, r1, #4
 80002ec:	1ac0      	subs	r0, r0, r3
 80002ee:	4152      	adcs	r2, r2
 80002f0:	08c3      	lsrs	r3, r0, #3
 80002f2:	428b      	cmp	r3, r1
 80002f4:	d301      	bcc.n	80002fa <__divsi3+0xde>
 80002f6:	00cb      	lsls	r3, r1, #3
 80002f8:	1ac0      	subs	r0, r0, r3
 80002fa:	4152      	adcs	r2, r2
 80002fc:	0883      	lsrs	r3, r0, #2
 80002fe:	428b      	cmp	r3, r1
 8000300:	d301      	bcc.n	8000306 <__divsi3+0xea>
 8000302:	008b      	lsls	r3, r1, #2
 8000304:	1ac0      	subs	r0, r0, r3
 8000306:	4152      	adcs	r2, r2
 8000308:	0843      	lsrs	r3, r0, #1
 800030a:	428b      	cmp	r3, r1
 800030c:	d301      	bcc.n	8000312 <__divsi3+0xf6>
 800030e:	004b      	lsls	r3, r1, #1
 8000310:	1ac0      	subs	r0, r0, r3
 8000312:	4152      	adcs	r2, r2
 8000314:	1a41      	subs	r1, r0, r1
 8000316:	d200      	bcs.n	800031a <__divsi3+0xfe>
 8000318:	4601      	mov	r1, r0
 800031a:	4152      	adcs	r2, r2
 800031c:	4610      	mov	r0, r2
 800031e:	4770      	bx	lr
 8000320:	e05d      	b.n	80003de <__divsi3+0x1c2>
 8000322:	0fca      	lsrs	r2, r1, #31
 8000324:	d000      	beq.n	8000328 <__divsi3+0x10c>
 8000326:	4249      	negs	r1, r1
 8000328:	1003      	asrs	r3, r0, #32
 800032a:	d300      	bcc.n	800032e <__divsi3+0x112>
 800032c:	4240      	negs	r0, r0
 800032e:	4053      	eors	r3, r2
 8000330:	2200      	movs	r2, #0
 8000332:	469c      	mov	ip, r3
 8000334:	0903      	lsrs	r3, r0, #4
 8000336:	428b      	cmp	r3, r1
 8000338:	d32d      	bcc.n	8000396 <__divsi3+0x17a>
 800033a:	0a03      	lsrs	r3, r0, #8
 800033c:	428b      	cmp	r3, r1
 800033e:	d312      	bcc.n	8000366 <__divsi3+0x14a>
 8000340:	22fc      	movs	r2, #252	@ 0xfc
 8000342:	0189      	lsls	r1, r1, #6
 8000344:	ba12      	rev	r2, r2
 8000346:	0a03      	lsrs	r3, r0, #8
 8000348:	428b      	cmp	r3, r1
 800034a:	d30c      	bcc.n	8000366 <__divsi3+0x14a>
 800034c:	0189      	lsls	r1, r1, #6
 800034e:	1192      	asrs	r2, r2, #6
 8000350:	428b      	cmp	r3, r1
 8000352:	d308      	bcc.n	8000366 <__divsi3+0x14a>
 8000354:	0189      	lsls	r1, r1, #6
 8000356:	1192      	asrs	r2, r2, #6
 8000358:	428b      	cmp	r3, r1
 800035a:	d304      	bcc.n	8000366 <__divsi3+0x14a>
 800035c:	0189      	lsls	r1, r1, #6
 800035e:	d03a      	beq.n	80003d6 <__divsi3+0x1ba>
 8000360:	1192      	asrs	r2, r2, #6
 8000362:	e000      	b.n	8000366 <__divsi3+0x14a>
 8000364:	0989      	lsrs	r1, r1, #6
 8000366:	09c3      	lsrs	r3, r0, #7
 8000368:	428b      	cmp	r3, r1
 800036a:	d301      	bcc.n	8000370 <__divsi3+0x154>
 800036c:	01cb      	lsls	r3, r1, #7
 800036e:	1ac0      	subs	r0, r0, r3
 8000370:	4152      	adcs	r2, r2
 8000372:	0983      	lsrs	r3, r0, #6
 8000374:	428b      	cmp	r3, r1
 8000376:	d301      	bcc.n	800037c <__divsi3+0x160>
 8000378:	018b      	lsls	r3, r1, #6
 800037a:	1ac0      	subs	r0, r0, r3
 800037c:	4152      	adcs	r2, r2
 800037e:	0943      	lsrs	r3, r0, #5
 8000380:	428b      	cmp	r3, r1
 8000382:	d301      	bcc.n	8000388 <__divsi3+0x16c>
 8000384:	014b      	lsls	r3, r1, #5
 8000386:	1ac0      	subs	r0, r0, r3
 8000388:	4152      	adcs	r2, r2
 800038a:	0903      	lsrs	r3, r0, #4
 800038c:	428b      	cmp	r3, r1
 800038e:	d301      	bcc.n	8000394 <__divsi3+0x178>
 8000390:	010b      	lsls	r3, r1, #4
 8000392:	1ac0      	subs	r0, r0, r3
 8000394:	4152      	adcs	r2, r2
 8000396:	08c3      	lsrs	r3, r0, #3
 8000398:	428b      	cmp	r3, r1
 800039a:	d301      	bcc.n	80003a0 <__divsi3+0x184>
 800039c:	00cb      	lsls	r3, r1, #3
 800039e:	1ac0      	subs	r0, r0, r3
 80003a0:	4152      	adcs	r2, r2
 80003a2:	0883      	lsrs	r3, r0, #2
 80003a4:	428b      	cmp	r3, r1
 80003a6:	d301      	bcc.n	80003ac <__divsi3+0x190>
 80003a8:	008b      	lsls	r3, r1, #2
 80003aa:	1ac0      	subs	r0, r0, r3
 80003ac:	4152      	adcs	r2, r2
 80003ae:	d2d9      	bcs.n	8000364 <__divsi3+0x148>
 80003b0:	0843      	lsrs	r3, r0, #1
 80003b2:	428b      	cmp	r3, r1
 80003b4:	d301      	bcc.n	80003ba <__divsi3+0x19e>
 80003b6:	004b      	lsls	r3, r1, #1
 80003b8:	1ac0      	subs	r0, r0, r3
 80003ba:	4152      	adcs	r2, r2
 80003bc:	1a41      	subs	r1, r0, r1
 80003be:	d200      	bcs.n	80003c2 <__divsi3+0x1a6>
 80003c0:	4601      	mov	r1, r0
 80003c2:	4663      	mov	r3, ip
 80003c4:	4152      	adcs	r2, r2
 80003c6:	105b      	asrs	r3, r3, #1
 80003c8:	4610      	mov	r0, r2
 80003ca:	d301      	bcc.n	80003d0 <__divsi3+0x1b4>
 80003cc:	4240      	negs	r0, r0
 80003ce:	2b00      	cmp	r3, #0
 80003d0:	d500      	bpl.n	80003d4 <__divsi3+0x1b8>
 80003d2:	4249      	negs	r1, r1
 80003d4:	4770      	bx	lr
 80003d6:	4663      	mov	r3, ip
 80003d8:	105b      	asrs	r3, r3, #1
 80003da:	d300      	bcc.n	80003de <__divsi3+0x1c2>
 80003dc:	4240      	negs	r0, r0
 80003de:	b501      	push	{r0, lr}
 80003e0:	2000      	movs	r0, #0
 80003e2:	f000 f805 	bl	80003f0 <__aeabi_idiv0>
 80003e6:	bd02      	pop	{r1, pc}

080003e8 <__aeabi_idivmod>:
 80003e8:	2900      	cmp	r1, #0
 80003ea:	d0f8      	beq.n	80003de <__divsi3+0x1c2>
 80003ec:	e716      	b.n	800021c <__divsi3>
 80003ee:	4770      	bx	lr

080003f0 <__aeabi_idiv0>:
 80003f0:	4770      	bx	lr
 80003f2:	46c0      	nop			@ (mov r8, r8)

080003f4 <__aeabi_cfrcmple>:
 80003f4:	4684      	mov	ip, r0
 80003f6:	0008      	movs	r0, r1
 80003f8:	4661      	mov	r1, ip
 80003fa:	e7ff      	b.n	80003fc <__aeabi_cfcmpeq>

080003fc <__aeabi_cfcmpeq>:
 80003fc:	b51f      	push	{r0, r1, r2, r3, r4, lr}
 80003fe:	f000 fbc3 	bl	8000b88 <__lesf2>
 8000402:	2800      	cmp	r0, #0
 8000404:	d401      	bmi.n	800040a <__aeabi_cfcmpeq+0xe>
 8000406:	2100      	movs	r1, #0
 8000408:	42c8      	cmn	r0, r1
 800040a:	bd1f      	pop	{r0, r1, r2, r3, r4, pc}

0800040c <__aeabi_fcmpeq>:
 800040c:	b510      	push	{r4, lr}
 800040e:	f000 fb4b 	bl	8000aa8 <__eqsf2>
 8000412:	4240      	negs	r0, r0
 8000414:	3001      	adds	r0, #1
 8000416:	bd10      	pop	{r4, pc}

08000418 <__aeabi_fcmplt>:
 8000418:	b510      	push	{r4, lr}
 800041a:	f000 fbb5 	bl	8000b88 <__lesf2>
 800041e:	2800      	cmp	r0, #0
 8000420:	db01      	blt.n	8000426 <__aeabi_fcmplt+0xe>
 8000422:	2000      	movs	r0, #0
 8000424:	bd10      	pop	{r4, pc}
 8000426:	2001      	movs	r0, #1
 8000428:	bd10      	pop	{r4, pc}
 800042a:	46c0      	nop			@ (mov r8, r8)

0800042c <__aeabi_fcmple>:
 800042c:	b510      	push	{r4, lr}
 800042e:	f000 fbab 	bl	8000b88 <__lesf2>
 8000432:	2800      	cmp	r0, #0
 8000434:	dd01      	ble.n	800043a <__aeabi_fcmple+0xe>
 8000436:	2000      	movs	r0, #0
 8000438:	bd10      	pop	{r4, pc}
 800043a:	2001      	movs	r0, #1
 800043c:	bd10      	pop	{r4, pc}
 800043e:	46c0      	nop			@ (mov r8, r8)

08000440 <__aeabi_fcmpgt>:
 8000440:	b510      	push	{r4, lr}
 8000442:	f000 fb59 	bl	8000af8 <__gesf2>
 8000446:	2800      	cmp	r0, #0
 8000448:	dc01      	bgt.n	800044e <__aeabi_fcmpgt+0xe>
 800044a:	2000      	movs	r0, #0
 800044c:	bd10      	pop	{r4, pc}
 800044e:	2001      	movs	r0, #1
 8000450:	bd10      	pop	{r4, pc}
 8000452:	46c0      	nop			@ (mov r8, r8)

08000454 <__aeabi_fcmpge>:
 8000454:	b510      	push	{r4, lr}
 8000456:	f000 fb4f 	bl	8000af8 <__gesf2>
 800045a:	2800      	cmp	r0, #0
 800045c:	da01      	bge.n	8000462 <__aeabi_fcmpge+0xe>
 800045e:	2000      	movs	r0, #0
 8000460:	bd10      	pop	{r4, pc}
 8000462:	2001      	movs	r0, #1
 8000464:	bd10      	pop	{r4, pc}
 8000466:	46c0      	nop			@ (mov r8, r8)

08000468 <__aeabi_f2uiz>:
 8000468:	219e      	movs	r1, #158	@ 0x9e
 800046a:	b510      	push	{r4, lr}
 800046c:	05c9      	lsls	r1, r1, #23
 800046e:	1c04      	adds	r4, r0, #0
 8000470:	f7ff fff0 	bl	8000454 <__aeabi_fcmpge>
 8000474:	2800      	cmp	r0, #0
 8000476:	d103      	bne.n	8000480 <__aeabi_f2uiz+0x18>
 8000478:	1c20      	adds	r0, r4, #0
 800047a:	f000 ffa1 	bl	80013c0 <__aeabi_f2iz>
 800047e:	bd10      	pop	{r4, pc}
 8000480:	219e      	movs	r1, #158	@ 0x9e
 8000482:	1c20      	adds	r0, r4, #0
 8000484:	05c9      	lsls	r1, r1, #23
 8000486:	f000 fd21 	bl	8000ecc <__aeabi_fsub>
 800048a:	f000 ff99 	bl	80013c0 <__aeabi_f2iz>
 800048e:	2380      	movs	r3, #128	@ 0x80
 8000490:	061b      	lsls	r3, r3, #24
 8000492:	469c      	mov	ip, r3
 8000494:	4460      	add	r0, ip
 8000496:	e7f2      	b.n	800047e <__aeabi_f2uiz+0x16>

08000498 <__aeabi_fadd>:
 8000498:	b5f8      	push	{r3, r4, r5, r6, r7, lr}
 800049a:	024b      	lsls	r3, r1, #9
 800049c:	0a5a      	lsrs	r2, r3, #9
 800049e:	4694      	mov	ip, r2
 80004a0:	004a      	lsls	r2, r1, #1
 80004a2:	0fc9      	lsrs	r1, r1, #31
 80004a4:	46ce      	mov	lr, r9
 80004a6:	4647      	mov	r7, r8
 80004a8:	4689      	mov	r9, r1
 80004aa:	0045      	lsls	r5, r0, #1
 80004ac:	0246      	lsls	r6, r0, #9
 80004ae:	0e2d      	lsrs	r5, r5, #24
 80004b0:	0e12      	lsrs	r2, r2, #24
 80004b2:	b580      	push	{r7, lr}
 80004b4:	0999      	lsrs	r1, r3, #6
 80004b6:	0a77      	lsrs	r7, r6, #9
 80004b8:	0fc4      	lsrs	r4, r0, #31
 80004ba:	09b6      	lsrs	r6, r6, #6
 80004bc:	1aab      	subs	r3, r5, r2
 80004be:	454c      	cmp	r4, r9
 80004c0:	d020      	beq.n	8000504 <__aeabi_fadd+0x6c>
 80004c2:	2b00      	cmp	r3, #0
 80004c4:	dd0c      	ble.n	80004e0 <__aeabi_fadd+0x48>
 80004c6:	2a00      	cmp	r2, #0
 80004c8:	d134      	bne.n	8000534 <__aeabi_fadd+0x9c>
 80004ca:	2900      	cmp	r1, #0
 80004cc:	d02a      	beq.n	8000524 <__aeabi_fadd+0x8c>
 80004ce:	1e5a      	subs	r2, r3, #1
 80004d0:	2b01      	cmp	r3, #1
 80004d2:	d100      	bne.n	80004d6 <__aeabi_fadd+0x3e>
 80004d4:	e08f      	b.n	80005f6 <__aeabi_fadd+0x15e>
 80004d6:	2bff      	cmp	r3, #255	@ 0xff
 80004d8:	d100      	bne.n	80004dc <__aeabi_fadd+0x44>
 80004da:	e0cd      	b.n	8000678 <__aeabi_fadd+0x1e0>
 80004dc:	0013      	movs	r3, r2
 80004de:	e02f      	b.n	8000540 <__aeabi_fadd+0xa8>
 80004e0:	2b00      	cmp	r3, #0
 80004e2:	d060      	beq.n	80005a6 <__aeabi_fadd+0x10e>
 80004e4:	1b53      	subs	r3, r2, r5
 80004e6:	2d00      	cmp	r5, #0
 80004e8:	d000      	beq.n	80004ec <__aeabi_fadd+0x54>
 80004ea:	e0ee      	b.n	80006ca <__aeabi_fadd+0x232>
 80004ec:	2e00      	cmp	r6, #0
 80004ee:	d100      	bne.n	80004f2 <__aeabi_fadd+0x5a>
 80004f0:	e13e      	b.n	8000770 <__aeabi_fadd+0x2d8>
 80004f2:	1e5c      	subs	r4, r3, #1
 80004f4:	2b01      	cmp	r3, #1
 80004f6:	d100      	bne.n	80004fa <__aeabi_fadd+0x62>
 80004f8:	e16b      	b.n	80007d2 <__aeabi_fadd+0x33a>
 80004fa:	2bff      	cmp	r3, #255	@ 0xff
 80004fc:	d100      	bne.n	8000500 <__aeabi_fadd+0x68>
 80004fe:	e0b9      	b.n	8000674 <__aeabi_fadd+0x1dc>
 8000500:	0023      	movs	r3, r4
 8000502:	e0e7      	b.n	80006d4 <__aeabi_fadd+0x23c>
 8000504:	2b00      	cmp	r3, #0
 8000506:	dc00      	bgt.n	800050a <__aeabi_fadd+0x72>
 8000508:	e0a4      	b.n	8000654 <__aeabi_fadd+0x1bc>
 800050a:	2a00      	cmp	r2, #0
 800050c:	d069      	beq.n	80005e2 <__aeabi_fadd+0x14a>
 800050e:	2dff      	cmp	r5, #255	@ 0xff
 8000510:	d100      	bne.n	8000514 <__aeabi_fadd+0x7c>
 8000512:	e0b1      	b.n	8000678 <__aeabi_fadd+0x1e0>
 8000514:	2280      	movs	r2, #128	@ 0x80
 8000516:	04d2      	lsls	r2, r2, #19
 8000518:	4311      	orrs	r1, r2
 800051a:	2b1b      	cmp	r3, #27
 800051c:	dc00      	bgt.n	8000520 <__aeabi_fadd+0x88>
 800051e:	e0e9      	b.n	80006f4 <__aeabi_fadd+0x25c>
 8000520:	002b      	movs	r3, r5
 8000522:	3605      	adds	r6, #5
 8000524:	08f7      	lsrs	r7, r6, #3
 8000526:	2bff      	cmp	r3, #255	@ 0xff
 8000528:	d100      	bne.n	800052c <__aeabi_fadd+0x94>
 800052a:	e0a5      	b.n	8000678 <__aeabi_fadd+0x1e0>
 800052c:	027a      	lsls	r2, r7, #9
 800052e:	0a52      	lsrs	r2, r2, #9
 8000530:	b2d8      	uxtb	r0, r3
 8000532:	e030      	b.n	8000596 <__aeabi_fadd+0xfe>
 8000534:	2dff      	cmp	r5, #255	@ 0xff
 8000536:	d100      	bne.n	800053a <__aeabi_fadd+0xa2>
 8000538:	e09e      	b.n	8000678 <__aeabi_fadd+0x1e0>
 800053a:	2280      	movs	r2, #128	@ 0x80
 800053c:	04d2      	lsls	r2, r2, #19
 800053e:	4311      	orrs	r1, r2
 8000540:	2001      	movs	r0, #1
 8000542:	2b1b      	cmp	r3, #27
 8000544:	dc08      	bgt.n	8000558 <__aeabi_fadd+0xc0>
 8000546:	0008      	movs	r0, r1
 8000548:	2220      	movs	r2, #32
 800054a:	40d8      	lsrs	r0, r3
 800054c:	1ad3      	subs	r3, r2, r3
 800054e:	4099      	lsls	r1, r3
 8000550:	000b      	movs	r3, r1
 8000552:	1e5a      	subs	r2, r3, #1
 8000554:	4193      	sbcs	r3, r2
 8000556:	4318      	orrs	r0, r3
 8000558:	1a36      	subs	r6, r6, r0
 800055a:	0173      	lsls	r3, r6, #5
 800055c:	d400      	bmi.n	8000560 <__aeabi_fadd+0xc8>
 800055e:	e071      	b.n	8000644 <__aeabi_fadd+0x1ac>
 8000560:	01b6      	lsls	r6, r6, #6
 8000562:	09b7      	lsrs	r7, r6, #6
 8000564:	0038      	movs	r0, r7
 8000566:	f000 ffe1 	bl	800152c <__clzsi2>
 800056a:	003b      	movs	r3, r7
 800056c:	3805      	subs	r0, #5
 800056e:	4083      	lsls	r3, r0
 8000570:	4285      	cmp	r5, r0
 8000572:	dd4d      	ble.n	8000610 <__aeabi_fadd+0x178>
 8000574:	4eb4      	ldr	r6, [pc, #720]	@ (8000848 <__aeabi_fadd+0x3b0>)
 8000576:	1a2d      	subs	r5, r5, r0
 8000578:	401e      	ands	r6, r3
 800057a:	075a      	lsls	r2, r3, #29
 800057c:	d068      	beq.n	8000650 <__aeabi_fadd+0x1b8>
 800057e:	220f      	movs	r2, #15
 8000580:	4013      	ands	r3, r2
 8000582:	2b04      	cmp	r3, #4
 8000584:	d064      	beq.n	8000650 <__aeabi_fadd+0x1b8>
 8000586:	3604      	adds	r6, #4
 8000588:	0173      	lsls	r3, r6, #5
 800058a:	d561      	bpl.n	8000650 <__aeabi_fadd+0x1b8>
 800058c:	1c68      	adds	r0, r5, #1
 800058e:	2dfe      	cmp	r5, #254	@ 0xfe
 8000590:	d154      	bne.n	800063c <__aeabi_fadd+0x1a4>
 8000592:	20ff      	movs	r0, #255	@ 0xff
 8000594:	2200      	movs	r2, #0
 8000596:	05c0      	lsls	r0, r0, #23
 8000598:	4310      	orrs	r0, r2
 800059a:	07e4      	lsls	r4, r4, #31
 800059c:	4320      	orrs	r0, r4
 800059e:	bcc0      	pop	{r6, r7}
 80005a0:	46b9      	mov	r9, r7
 80005a2:	46b0      	mov	r8, r6
 80005a4:	bdf8      	pop	{r3, r4, r5, r6, r7, pc}
 80005a6:	22fe      	movs	r2, #254	@ 0xfe
 80005a8:	4690      	mov	r8, r2
 80005aa:	1c68      	adds	r0, r5, #1
 80005ac:	0002      	movs	r2, r0
 80005ae:	4640      	mov	r0, r8
 80005b0:	4210      	tst	r0, r2
 80005b2:	d16b      	bne.n	800068c <__aeabi_fadd+0x1f4>
 80005b4:	2d00      	cmp	r5, #0
 80005b6:	d000      	beq.n	80005ba <__aeabi_fadd+0x122>
 80005b8:	e0dd      	b.n	8000776 <__aeabi_fadd+0x2de>
 80005ba:	2e00      	cmp	r6, #0
 80005bc:	d100      	bne.n	80005c0 <__aeabi_fadd+0x128>
 80005be:	e102      	b.n	80007c6 <__aeabi_fadd+0x32e>
 80005c0:	2900      	cmp	r1, #0
 80005c2:	d0b3      	beq.n	800052c <__aeabi_fadd+0x94>
 80005c4:	2280      	movs	r2, #128	@ 0x80
 80005c6:	1a77      	subs	r7, r6, r1
 80005c8:	04d2      	lsls	r2, r2, #19
 80005ca:	4217      	tst	r7, r2
 80005cc:	d100      	bne.n	80005d0 <__aeabi_fadd+0x138>
 80005ce:	e136      	b.n	800083e <__aeabi_fadd+0x3a6>
 80005d0:	464c      	mov	r4, r9
 80005d2:	1b8e      	subs	r6, r1, r6
 80005d4:	d061      	beq.n	800069a <__aeabi_fadd+0x202>
 80005d6:	2001      	movs	r0, #1
 80005d8:	4216      	tst	r6, r2
 80005da:	d130      	bne.n	800063e <__aeabi_fadd+0x1a6>
 80005dc:	2300      	movs	r3, #0
 80005de:	08f7      	lsrs	r7, r6, #3
 80005e0:	e7a4      	b.n	800052c <__aeabi_fadd+0x94>
 80005e2:	2900      	cmp	r1, #0
 80005e4:	d09e      	beq.n	8000524 <__aeabi_fadd+0x8c>
 80005e6:	1e5a      	subs	r2, r3, #1
 80005e8:	2b01      	cmp	r3, #1
 80005ea:	d100      	bne.n	80005ee <__aeabi_fadd+0x156>
 80005ec:	e0ca      	b.n	8000784 <__aeabi_fadd+0x2ec>
 80005ee:	2bff      	cmp	r3, #255	@ 0xff
 80005f0:	d042      	beq.n	8000678 <__aeabi_fadd+0x1e0>
 80005f2:	0013      	movs	r3, r2
 80005f4:	e791      	b.n	800051a <__aeabi_fadd+0x82>
 80005f6:	1a71      	subs	r1, r6, r1
 80005f8:	014b      	lsls	r3, r1, #5
 80005fa:	d400      	bmi.n	80005fe <__aeabi_fadd+0x166>
 80005fc:	e0d1      	b.n	80007a2 <__aeabi_fadd+0x30a>
 80005fe:	018f      	lsls	r7, r1, #6
 8000600:	09bf      	lsrs	r7, r7, #6
 8000602:	0038      	movs	r0, r7
 8000604:	f000 ff92 	bl	800152c <__clzsi2>
 8000608:	003b      	movs	r3, r7
 800060a:	3805      	subs	r0, #5
 800060c:	4083      	lsls	r3, r0
 800060e:	2501      	movs	r5, #1
 8000610:	2220      	movs	r2, #32
 8000612:	1b40      	subs	r0, r0, r5
 8000614:	3001      	adds	r0, #1
 8000616:	1a12      	subs	r2, r2, r0
 8000618:	001e      	movs	r6, r3
 800061a:	4093      	lsls	r3, r2
 800061c:	40c6      	lsrs	r6, r0
 800061e:	1e5a      	subs	r2, r3, #1
 8000620:	4193      	sbcs	r3, r2
 8000622:	431e      	orrs	r6, r3
 8000624:	d039      	beq.n	800069a <__aeabi_fadd+0x202>
 8000626:	0773      	lsls	r3, r6, #29
 8000628:	d100      	bne.n	800062c <__aeabi_fadd+0x194>
 800062a:	e11b      	b.n	8000864 <__aeabi_fadd+0x3cc>
 800062c:	230f      	movs	r3, #15
 800062e:	2500      	movs	r5, #0
 8000630:	4033      	ands	r3, r6
 8000632:	2b04      	cmp	r3, #4
 8000634:	d1a7      	bne.n	8000586 <__aeabi_fadd+0xee>
 8000636:	2001      	movs	r0, #1
 8000638:	0172      	lsls	r2, r6, #5
 800063a:	d57c      	bpl.n	8000736 <__aeabi_fadd+0x29e>
 800063c:	b2c0      	uxtb	r0, r0
 800063e:	01b2      	lsls	r2, r6, #6
 8000640:	0a52      	lsrs	r2, r2, #9
 8000642:	e7a8      	b.n	8000596 <__aeabi_fadd+0xfe>
 8000644:	0773      	lsls	r3, r6, #29
 8000646:	d003      	beq.n	8000650 <__aeabi_fadd+0x1b8>
 8000648:	230f      	movs	r3, #15
 800064a:	4033      	ands	r3, r6
 800064c:	2b04      	cmp	r3, #4
 800064e:	d19a      	bne.n	8000586 <__aeabi_fadd+0xee>
 8000650:	002b      	movs	r3, r5
 8000652:	e767      	b.n	8000524 <__aeabi_fadd+0x8c>
 8000654:	2b00      	cmp	r3, #0
 8000656:	d023      	beq.n	80006a0 <__aeabi_fadd+0x208>
 8000658:	1b53      	subs	r3, r2, r5
 800065a:	2d00      	cmp	r5, #0
 800065c:	d17b      	bne.n	8000756 <__aeabi_fadd+0x2be>
 800065e:	2e00      	cmp	r6, #0
 8000660:	d100      	bne.n	8000664 <__aeabi_fadd+0x1cc>
 8000662:	e086      	b.n	8000772 <__aeabi_fadd+0x2da>
 8000664:	1e5d      	subs	r5, r3, #1
 8000666:	2b01      	cmp	r3, #1
 8000668:	d100      	bne.n	800066c <__aeabi_fadd+0x1d4>
 800066a:	e08b      	b.n	8000784 <__aeabi_fadd+0x2ec>
 800066c:	2bff      	cmp	r3, #255	@ 0xff
 800066e:	d002      	beq.n	8000676 <__aeabi_fadd+0x1de>
 8000670:	002b      	movs	r3, r5
 8000672:	e075      	b.n	8000760 <__aeabi_fadd+0x2c8>
 8000674:	464c      	mov	r4, r9
 8000676:	4667      	mov	r7, ip
 8000678:	2f00      	cmp	r7, #0
 800067a:	d100      	bne.n	800067e <__aeabi_fadd+0x1e6>
 800067c:	e789      	b.n	8000592 <__aeabi_fadd+0xfa>
 800067e:	2280      	movs	r2, #128	@ 0x80
 8000680:	03d2      	lsls	r2, r2, #15
 8000682:	433a      	orrs	r2, r7
 8000684:	0252      	lsls	r2, r2, #9
 8000686:	20ff      	movs	r0, #255	@ 0xff
 8000688:	0a52      	lsrs	r2, r2, #9
 800068a:	e784      	b.n	8000596 <__aeabi_fadd+0xfe>
 800068c:	1a77      	subs	r7, r6, r1
 800068e:	017b      	lsls	r3, r7, #5
 8000690:	d46b      	bmi.n	800076a <__aeabi_fadd+0x2d2>
 8000692:	2f00      	cmp	r7, #0
 8000694:	d000      	beq.n	8000698 <__aeabi_fadd+0x200>
 8000696:	e765      	b.n	8000564 <__aeabi_fadd+0xcc>
 8000698:	2400      	movs	r4, #0
 800069a:	2000      	movs	r0, #0
 800069c:	2200      	movs	r2, #0
 800069e:	e77a      	b.n	8000596 <__aeabi_fadd+0xfe>
 80006a0:	22fe      	movs	r2, #254	@ 0xfe
 80006a2:	1c6b      	adds	r3, r5, #1
 80006a4:	421a      	tst	r2, r3
 80006a6:	d149      	bne.n	800073c <__aeabi_fadd+0x2a4>
 80006a8:	2d00      	cmp	r5, #0
 80006aa:	d000      	beq.n	80006ae <__aeabi_fadd+0x216>
 80006ac:	e09f      	b.n	80007ee <__aeabi_fadd+0x356>
 80006ae:	2e00      	cmp	r6, #0
 80006b0:	d100      	bne.n	80006b4 <__aeabi_fadd+0x21c>
 80006b2:	e0ba      	b.n	800082a <__aeabi_fadd+0x392>
 80006b4:	2900      	cmp	r1, #0
 80006b6:	d100      	bne.n	80006ba <__aeabi_fadd+0x222>
 80006b8:	e0cf      	b.n	800085a <__aeabi_fadd+0x3c2>
 80006ba:	1872      	adds	r2, r6, r1
 80006bc:	0153      	lsls	r3, r2, #5
 80006be:	d400      	bmi.n	80006c2 <__aeabi_fadd+0x22a>
 80006c0:	e0cd      	b.n	800085e <__aeabi_fadd+0x3c6>
 80006c2:	0192      	lsls	r2, r2, #6
 80006c4:	2001      	movs	r0, #1
 80006c6:	0a52      	lsrs	r2, r2, #9
 80006c8:	e765      	b.n	8000596 <__aeabi_fadd+0xfe>
 80006ca:	2aff      	cmp	r2, #255	@ 0xff
 80006cc:	d0d2      	beq.n	8000674 <__aeabi_fadd+0x1dc>
 80006ce:	2080      	movs	r0, #128	@ 0x80
 80006d0:	04c0      	lsls	r0, r0, #19
 80006d2:	4306      	orrs	r6, r0
 80006d4:	2001      	movs	r0, #1
 80006d6:	2b1b      	cmp	r3, #27
 80006d8:	dc08      	bgt.n	80006ec <__aeabi_fadd+0x254>
 80006da:	0030      	movs	r0, r6
 80006dc:	2420      	movs	r4, #32
 80006de:	40d8      	lsrs	r0, r3
 80006e0:	1ae3      	subs	r3, r4, r3
 80006e2:	409e      	lsls	r6, r3
 80006e4:	0033      	movs	r3, r6
 80006e6:	1e5c      	subs	r4, r3, #1
 80006e8:	41a3      	sbcs	r3, r4
 80006ea:	4318      	orrs	r0, r3
 80006ec:	464c      	mov	r4, r9
 80006ee:	0015      	movs	r5, r2
 80006f0:	1a0e      	subs	r6, r1, r0
 80006f2:	e732      	b.n	800055a <__aeabi_fadd+0xc2>
 80006f4:	0008      	movs	r0, r1
 80006f6:	2220      	movs	r2, #32
 80006f8:	40d8      	lsrs	r0, r3
 80006fa:	1ad3      	subs	r3, r2, r3
 80006fc:	4099      	lsls	r1, r3
 80006fe:	000b      	movs	r3, r1
 8000700:	1e5a      	subs	r2, r3, #1
 8000702:	4193      	sbcs	r3, r2
 8000704:	4303      	orrs	r3, r0
 8000706:	18f6      	adds	r6, r6, r3
 8000708:	0173      	lsls	r3, r6, #5
 800070a:	d59b      	bpl.n	8000644 <__aeabi_fadd+0x1ac>
 800070c:	3501      	adds	r5, #1
 800070e:	2dff      	cmp	r5, #255	@ 0xff
 8000710:	d100      	bne.n	8000714 <__aeabi_fadd+0x27c>
 8000712:	e73e      	b.n	8000592 <__aeabi_fadd+0xfa>
 8000714:	2301      	movs	r3, #1
 8000716:	494d      	ldr	r1, [pc, #308]	@ (800084c <__aeabi_fadd+0x3b4>)
 8000718:	0872      	lsrs	r2, r6, #1
 800071a:	4033      	ands	r3, r6
 800071c:	400a      	ands	r2, r1
 800071e:	431a      	orrs	r2, r3
 8000720:	0016      	movs	r6, r2
 8000722:	0753      	lsls	r3, r2, #29
 8000724:	d004      	beq.n	8000730 <__aeabi_fadd+0x298>
 8000726:	230f      	movs	r3, #15
 8000728:	4013      	ands	r3, r2
 800072a:	2b04      	cmp	r3, #4
 800072c:	d000      	beq.n	8000730 <__aeabi_fadd+0x298>
 800072e:	e72a      	b.n	8000586 <__aeabi_fadd+0xee>
 8000730:	0173      	lsls	r3, r6, #5
 8000732:	d500      	bpl.n	8000736 <__aeabi_fadd+0x29e>
 8000734:	e72a      	b.n	800058c <__aeabi_fadd+0xf4>
 8000736:	002b      	movs	r3, r5
 8000738:	08f7      	lsrs	r7, r6, #3
 800073a:	e6f7      	b.n	800052c <__aeabi_fadd+0x94>
 800073c:	2bff      	cmp	r3, #255	@ 0xff
 800073e:	d100      	bne.n	8000742 <__aeabi_fadd+0x2aa>
 8000740:	e727      	b.n	8000592 <__aeabi_fadd+0xfa>
 8000742:	1871      	adds	r1, r6, r1
 8000744:	0849      	lsrs	r1, r1, #1
 8000746:	074a      	lsls	r2, r1, #29
 8000748:	d02f      	beq.n	80007aa <__aeabi_fadd+0x312>
 800074a:	220f      	movs	r2, #15
 800074c:	400a      	ands	r2, r1
 800074e:	2a04      	cmp	r2, #4
 8000750:	d02b      	beq.n	80007aa <__aeabi_fadd+0x312>
 8000752:	1d0e      	adds	r6, r1, #4
 8000754:	e6e6      	b.n	8000524 <__aeabi_fadd+0x8c>
 8000756:	2aff      	cmp	r2, #255	@ 0xff
 8000758:	d08d      	beq.n	8000676 <__aeabi_fadd+0x1de>
 800075a:	2080      	movs	r0, #128	@ 0x80
 800075c:	04c0      	lsls	r0, r0, #19
 800075e:	4306      	orrs	r6, r0
 8000760:	2b1b      	cmp	r3, #27
 8000762:	dd24      	ble.n	80007ae <__aeabi_fadd+0x316>
 8000764:	0013      	movs	r3, r2
 8000766:	1d4e      	adds	r6, r1, #5
 8000768:	e6dc      	b.n	8000524 <__aeabi_fadd+0x8c>
 800076a:	464c      	mov	r4, r9
 800076c:	1b8f      	subs	r7, r1, r6
 800076e:	e6f9      	b.n	8000564 <__aeabi_fadd+0xcc>
 8000770:	464c      	mov	r4, r9
 8000772:	000e      	movs	r6, r1
 8000774:	e6d6      	b.n	8000524 <__aeabi_fadd+0x8c>
 8000776:	2e00      	cmp	r6, #0
 8000778:	d149      	bne.n	800080e <__aeabi_fadd+0x376>
 800077a:	2900      	cmp	r1, #0
 800077c:	d068      	beq.n	8000850 <__aeabi_fadd+0x3b8>
 800077e:	4667      	mov	r7, ip
 8000780:	464c      	mov	r4, r9
 8000782:	e77c      	b.n	800067e <__aeabi_fadd+0x1e6>
 8000784:	1870      	adds	r0, r6, r1
 8000786:	0143      	lsls	r3, r0, #5
 8000788:	d574      	bpl.n	8000874 <__aeabi_fadd+0x3dc>
 800078a:	4930      	ldr	r1, [pc, #192]	@ (800084c <__aeabi_fadd+0x3b4>)
 800078c:	0840      	lsrs	r0, r0, #1
 800078e:	4001      	ands	r1, r0
 8000790:	0743      	lsls	r3, r0, #29
 8000792:	d009      	beq.n	80007a8 <__aeabi_fadd+0x310>
 8000794:	230f      	movs	r3, #15
 8000796:	4003      	ands	r3, r0
 8000798:	2b04      	cmp	r3, #4
 800079a:	d005      	beq.n	80007a8 <__aeabi_fadd+0x310>
 800079c:	2302      	movs	r3, #2
 800079e:	1d0e      	adds	r6, r1, #4
 80007a0:	e6c0      	b.n	8000524 <__aeabi_fadd+0x8c>
 80007a2:	2301      	movs	r3, #1
 80007a4:	08cf      	lsrs	r7, r1, #3
 80007a6:	e6c1      	b.n	800052c <__aeabi_fadd+0x94>
 80007a8:	2302      	movs	r3, #2
 80007aa:	08cf      	lsrs	r7, r1, #3
 80007ac:	e6be      	b.n	800052c <__aeabi_fadd+0x94>
 80007ae:	2520      	movs	r5, #32
 80007b0:	0030      	movs	r0, r6
 80007b2:	40d8      	lsrs	r0, r3
 80007b4:	1aeb      	subs	r3, r5, r3
 80007b6:	409e      	lsls	r6, r3
 80007b8:	0033      	movs	r3, r6
 80007ba:	1e5d      	subs	r5, r3, #1
 80007bc:	41ab      	sbcs	r3, r5
 80007be:	4303      	orrs	r3, r0
 80007c0:	0015      	movs	r5, r2
 80007c2:	185e      	adds	r6, r3, r1
 80007c4:	e7a0      	b.n	8000708 <__aeabi_fadd+0x270>
 80007c6:	2900      	cmp	r1, #0
 80007c8:	d100      	bne.n	80007cc <__aeabi_fadd+0x334>
 80007ca:	e765      	b.n	8000698 <__aeabi_fadd+0x200>
 80007cc:	464c      	mov	r4, r9
 80007ce:	4667      	mov	r7, ip
 80007d0:	e6ac      	b.n	800052c <__aeabi_fadd+0x94>
 80007d2:	1b8f      	subs	r7, r1, r6
 80007d4:	017b      	lsls	r3, r7, #5
 80007d6:	d52e      	bpl.n	8000836 <__aeabi_fadd+0x39e>
 80007d8:	01bf      	lsls	r7, r7, #6
 80007da:	09bf      	lsrs	r7, r7, #6
 80007dc:	0038      	movs	r0, r7
 80007de:	f000 fea5 	bl	800152c <__clzsi2>
 80007e2:	003b      	movs	r3, r7
 80007e4:	3805      	subs	r0, #5
 80007e6:	4083      	lsls	r3, r0
 80007e8:	464c      	mov	r4, r9
 80007ea:	3501      	adds	r5, #1
 80007ec:	e710      	b.n	8000610 <__aeabi_fadd+0x178>
 80007ee:	2e00      	cmp	r6, #0
 80007f0:	d100      	bne.n	80007f4 <__aeabi_fadd+0x35c>
 80007f2:	e740      	b.n	8000676 <__aeabi_fadd+0x1de>
 80007f4:	2900      	cmp	r1, #0
 80007f6:	d100      	bne.n	80007fa <__aeabi_fadd+0x362>
 80007f8:	e741      	b.n	800067e <__aeabi_fadd+0x1e6>
 80007fa:	2380      	movs	r3, #128	@ 0x80
 80007fc:	03db      	lsls	r3, r3, #15
 80007fe:	429f      	cmp	r7, r3
 8000800:	d200      	bcs.n	8000804 <__aeabi_fadd+0x36c>
 8000802:	e73c      	b.n	800067e <__aeabi_fadd+0x1e6>
 8000804:	459c      	cmp	ip, r3
 8000806:	d300      	bcc.n	800080a <__aeabi_fadd+0x372>
 8000808:	e739      	b.n	800067e <__aeabi_fadd+0x1e6>
 800080a:	4667      	mov	r7, ip
 800080c:	e737      	b.n	800067e <__aeabi_fadd+0x1e6>
 800080e:	2900      	cmp	r1, #0
 8000810:	d100      	bne.n	8000814 <__aeabi_fadd+0x37c>
 8000812:	e734      	b.n	800067e <__aeabi_fadd+0x1e6>
 8000814:	2380      	movs	r3, #128	@ 0x80
 8000816:	03db      	lsls	r3, r3, #15
 8000818:	429f      	cmp	r7, r3
 800081a:	d200      	bcs.n	800081e <__aeabi_fadd+0x386>
 800081c:	e72f      	b.n	800067e <__aeabi_fadd+0x1e6>
 800081e:	459c      	cmp	ip, r3
 8000820:	d300      	bcc.n	8000824 <__aeabi_fadd+0x38c>
 8000822:	e72c      	b.n	800067e <__aeabi_fadd+0x1e6>
 8000824:	464c      	mov	r4, r9
 8000826:	4667      	mov	r7, ip
 8000828:	e729      	b.n	800067e <__aeabi_fadd+0x1e6>
 800082a:	2900      	cmp	r1, #0
 800082c:	d100      	bne.n	8000830 <__aeabi_fadd+0x398>
 800082e:	e734      	b.n	800069a <__aeabi_fadd+0x202>
 8000830:	2300      	movs	r3, #0
 8000832:	08cf      	lsrs	r7, r1, #3
 8000834:	e67a      	b.n	800052c <__aeabi_fadd+0x94>
 8000836:	464c      	mov	r4, r9
 8000838:	2301      	movs	r3, #1
 800083a:	08ff      	lsrs	r7, r7, #3
 800083c:	e676      	b.n	800052c <__aeabi_fadd+0x94>
 800083e:	2f00      	cmp	r7, #0
 8000840:	d100      	bne.n	8000844 <__aeabi_fadd+0x3ac>
 8000842:	e729      	b.n	8000698 <__aeabi_fadd+0x200>
 8000844:	08ff      	lsrs	r7, r7, #3
 8000846:	e671      	b.n	800052c <__aeabi_fadd+0x94>
 8000848:	fbffffff 	.word	0xfbffffff
 800084c:	7dffffff 	.word	0x7dffffff
 8000850:	2280      	movs	r2, #128	@ 0x80
 8000852:	2400      	movs	r4, #0
 8000854:	20ff      	movs	r0, #255	@ 0xff
 8000856:	03d2      	lsls	r2, r2, #15
 8000858:	e69d      	b.n	8000596 <__aeabi_fadd+0xfe>
 800085a:	2300      	movs	r3, #0
 800085c:	e666      	b.n	800052c <__aeabi_fadd+0x94>
 800085e:	2300      	movs	r3, #0
 8000860:	08d7      	lsrs	r7, r2, #3
 8000862:	e663      	b.n	800052c <__aeabi_fadd+0x94>
 8000864:	2001      	movs	r0, #1
 8000866:	0172      	lsls	r2, r6, #5
 8000868:	d500      	bpl.n	800086c <__aeabi_fadd+0x3d4>
 800086a:	e6e7      	b.n	800063c <__aeabi_fadd+0x1a4>
 800086c:	0031      	movs	r1, r6
 800086e:	2300      	movs	r3, #0
 8000870:	08cf      	lsrs	r7, r1, #3
 8000872:	e65b      	b.n	800052c <__aeabi_fadd+0x94>
 8000874:	2301      	movs	r3, #1
 8000876:	08c7      	lsrs	r7, r0, #3
 8000878:	e658      	b.n	800052c <__aeabi_fadd+0x94>
 800087a:	46c0      	nop			@ (mov r8, r8)

0800087c <__aeabi_fdiv>:
 800087c:	b5f0      	push	{r4, r5, r6, r7, lr}
 800087e:	4646      	mov	r6, r8
 8000880:	464f      	mov	r7, r9
 8000882:	46d6      	mov	lr, sl
 8000884:	0245      	lsls	r5, r0, #9
 8000886:	b5c0      	push	{r6, r7, lr}
 8000888:	0fc3      	lsrs	r3, r0, #31
 800088a:	0047      	lsls	r7, r0, #1
 800088c:	4698      	mov	r8, r3
 800088e:	1c0e      	adds	r6, r1, #0
 8000890:	0a6d      	lsrs	r5, r5, #9
 8000892:	0e3f      	lsrs	r7, r7, #24
 8000894:	d05b      	beq.n	800094e <__aeabi_fdiv+0xd2>
 8000896:	2fff      	cmp	r7, #255	@ 0xff
 8000898:	d021      	beq.n	80008de <__aeabi_fdiv+0x62>
 800089a:	2380      	movs	r3, #128	@ 0x80
 800089c:	00ed      	lsls	r5, r5, #3
 800089e:	04db      	lsls	r3, r3, #19
 80008a0:	431d      	orrs	r5, r3
 80008a2:	2300      	movs	r3, #0
 80008a4:	4699      	mov	r9, r3
 80008a6:	469a      	mov	sl, r3
 80008a8:	3f7f      	subs	r7, #127	@ 0x7f
 80008aa:	0274      	lsls	r4, r6, #9
 80008ac:	0073      	lsls	r3, r6, #1
 80008ae:	0a64      	lsrs	r4, r4, #9
 80008b0:	0e1b      	lsrs	r3, r3, #24
 80008b2:	0ff6      	lsrs	r6, r6, #31
 80008b4:	2b00      	cmp	r3, #0
 80008b6:	d020      	beq.n	80008fa <__aeabi_fdiv+0x7e>
 80008b8:	2bff      	cmp	r3, #255	@ 0xff
 80008ba:	d043      	beq.n	8000944 <__aeabi_fdiv+0xc8>
 80008bc:	2280      	movs	r2, #128	@ 0x80
 80008be:	2000      	movs	r0, #0
 80008c0:	00e4      	lsls	r4, r4, #3
 80008c2:	04d2      	lsls	r2, r2, #19
 80008c4:	4314      	orrs	r4, r2
 80008c6:	3b7f      	subs	r3, #127	@ 0x7f
 80008c8:	4642      	mov	r2, r8
 80008ca:	1aff      	subs	r7, r7, r3
 80008cc:	464b      	mov	r3, r9
 80008ce:	4072      	eors	r2, r6
 80008d0:	2b0f      	cmp	r3, #15
 80008d2:	d900      	bls.n	80008d6 <__aeabi_fdiv+0x5a>
 80008d4:	e09d      	b.n	8000a12 <__aeabi_fdiv+0x196>
 80008d6:	4971      	ldr	r1, [pc, #452]	@ (8000a9c <__aeabi_fdiv+0x220>)
 80008d8:	009b      	lsls	r3, r3, #2
 80008da:	58cb      	ldr	r3, [r1, r3]
 80008dc:	469f      	mov	pc, r3
 80008de:	2d00      	cmp	r5, #0
 80008e0:	d15a      	bne.n	8000998 <__aeabi_fdiv+0x11c>
 80008e2:	2308      	movs	r3, #8
 80008e4:	4699      	mov	r9, r3
 80008e6:	3b06      	subs	r3, #6
 80008e8:	0274      	lsls	r4, r6, #9
 80008ea:	469a      	mov	sl, r3
 80008ec:	0073      	lsls	r3, r6, #1
 80008ee:	27ff      	movs	r7, #255	@ 0xff
 80008f0:	0a64      	lsrs	r4, r4, #9
 80008f2:	0e1b      	lsrs	r3, r3, #24
 80008f4:	0ff6      	lsrs	r6, r6, #31
 80008f6:	2b00      	cmp	r3, #0
 80008f8:	d1de      	bne.n	80008b8 <__aeabi_fdiv+0x3c>
 80008fa:	2c00      	cmp	r4, #0
 80008fc:	d13b      	bne.n	8000976 <__aeabi_fdiv+0xfa>
 80008fe:	2301      	movs	r3, #1
 8000900:	4642      	mov	r2, r8
 8000902:	4649      	mov	r1, r9
 8000904:	4072      	eors	r2, r6
 8000906:	4319      	orrs	r1, r3
 8000908:	290e      	cmp	r1, #14
 800090a:	d818      	bhi.n	800093e <__aeabi_fdiv+0xc2>
 800090c:	4864      	ldr	r0, [pc, #400]	@ (8000aa0 <__aeabi_fdiv+0x224>)
 800090e:	0089      	lsls	r1, r1, #2
 8000910:	5841      	ldr	r1, [r0, r1]
 8000912:	468f      	mov	pc, r1
 8000914:	4653      	mov	r3, sl
 8000916:	2b02      	cmp	r3, #2
 8000918:	d100      	bne.n	800091c <__aeabi_fdiv+0xa0>
 800091a:	e0b8      	b.n	8000a8e <__aeabi_fdiv+0x212>
 800091c:	2b03      	cmp	r3, #3
 800091e:	d06e      	beq.n	80009fe <__aeabi_fdiv+0x182>
 8000920:	4642      	mov	r2, r8
 8000922:	002c      	movs	r4, r5
 8000924:	2b01      	cmp	r3, #1
 8000926:	d140      	bne.n	80009aa <__aeabi_fdiv+0x12e>
 8000928:	2000      	movs	r0, #0
 800092a:	2400      	movs	r4, #0
 800092c:	05c0      	lsls	r0, r0, #23
 800092e:	4320      	orrs	r0, r4
 8000930:	07d2      	lsls	r2, r2, #31
 8000932:	4310      	orrs	r0, r2
 8000934:	bce0      	pop	{r5, r6, r7}
 8000936:	46ba      	mov	sl, r7
 8000938:	46b1      	mov	r9, r6
 800093a:	46a8      	mov	r8, r5
 800093c:	bdf0      	pop	{r4, r5, r6, r7, pc}
 800093e:	20ff      	movs	r0, #255	@ 0xff
 8000940:	2400      	movs	r4, #0
 8000942:	e7f3      	b.n	800092c <__aeabi_fdiv+0xb0>
 8000944:	2c00      	cmp	r4, #0
 8000946:	d120      	bne.n	800098a <__aeabi_fdiv+0x10e>
 8000948:	2302      	movs	r3, #2
 800094a:	3fff      	subs	r7, #255	@ 0xff
 800094c:	e7d8      	b.n	8000900 <__aeabi_fdiv+0x84>
 800094e:	2d00      	cmp	r5, #0
 8000950:	d105      	bne.n	800095e <__aeabi_fdiv+0xe2>
 8000952:	2304      	movs	r3, #4
 8000954:	4699      	mov	r9, r3
 8000956:	3b03      	subs	r3, #3
 8000958:	2700      	movs	r7, #0
 800095a:	469a      	mov	sl, r3
 800095c:	e7a5      	b.n	80008aa <__aeabi_fdiv+0x2e>
 800095e:	0028      	movs	r0, r5
 8000960:	f000 fde4 	bl	800152c <__clzsi2>
 8000964:	2776      	movs	r7, #118	@ 0x76
 8000966:	1f43      	subs	r3, r0, #5
 8000968:	409d      	lsls	r5, r3
 800096a:	2300      	movs	r3, #0
 800096c:	427f      	negs	r7, r7
 800096e:	4699      	mov	r9, r3
 8000970:	469a      	mov	sl, r3
 8000972:	1a3f      	subs	r7, r7, r0
 8000974:	e799      	b.n	80008aa <__aeabi_fdiv+0x2e>
 8000976:	0020      	movs	r0, r4
 8000978:	f000 fdd8 	bl	800152c <__clzsi2>
 800097c:	1f43      	subs	r3, r0, #5
 800097e:	409c      	lsls	r4, r3
 8000980:	2376      	movs	r3, #118	@ 0x76
 8000982:	425b      	negs	r3, r3
 8000984:	1a1b      	subs	r3, r3, r0
 8000986:	2000      	movs	r0, #0
 8000988:	e79e      	b.n	80008c8 <__aeabi_fdiv+0x4c>
 800098a:	2303      	movs	r3, #3
 800098c:	464a      	mov	r2, r9
 800098e:	431a      	orrs	r2, r3
 8000990:	4691      	mov	r9, r2
 8000992:	2003      	movs	r0, #3
 8000994:	33fc      	adds	r3, #252	@ 0xfc
 8000996:	e797      	b.n	80008c8 <__aeabi_fdiv+0x4c>
 8000998:	230c      	movs	r3, #12
 800099a:	4699      	mov	r9, r3
 800099c:	3b09      	subs	r3, #9
 800099e:	27ff      	movs	r7, #255	@ 0xff
 80009a0:	469a      	mov	sl, r3
 80009a2:	e782      	b.n	80008aa <__aeabi_fdiv+0x2e>
 80009a4:	2803      	cmp	r0, #3
 80009a6:	d02c      	beq.n	8000a02 <__aeabi_fdiv+0x186>
 80009a8:	0032      	movs	r2, r6
 80009aa:	0038      	movs	r0, r7
 80009ac:	307f      	adds	r0, #127	@ 0x7f
 80009ae:	2800      	cmp	r0, #0
 80009b0:	dd47      	ble.n	8000a42 <__aeabi_fdiv+0x1c6>
 80009b2:	0763      	lsls	r3, r4, #29
 80009b4:	d004      	beq.n	80009c0 <__aeabi_fdiv+0x144>
 80009b6:	230f      	movs	r3, #15
 80009b8:	4023      	ands	r3, r4
 80009ba:	2b04      	cmp	r3, #4
 80009bc:	d000      	beq.n	80009c0 <__aeabi_fdiv+0x144>
 80009be:	3404      	adds	r4, #4
 80009c0:	0123      	lsls	r3, r4, #4
 80009c2:	d503      	bpl.n	80009cc <__aeabi_fdiv+0x150>
 80009c4:	0038      	movs	r0, r7
 80009c6:	4b37      	ldr	r3, [pc, #220]	@ (8000aa4 <__aeabi_fdiv+0x228>)
 80009c8:	3080      	adds	r0, #128	@ 0x80
 80009ca:	401c      	ands	r4, r3
 80009cc:	28fe      	cmp	r0, #254	@ 0xfe
 80009ce:	dcb6      	bgt.n	800093e <__aeabi_fdiv+0xc2>
 80009d0:	01a4      	lsls	r4, r4, #6
 80009d2:	0a64      	lsrs	r4, r4, #9
 80009d4:	b2c0      	uxtb	r0, r0
 80009d6:	e7a9      	b.n	800092c <__aeabi_fdiv+0xb0>
 80009d8:	2480      	movs	r4, #128	@ 0x80
 80009da:	2200      	movs	r2, #0
 80009dc:	20ff      	movs	r0, #255	@ 0xff
 80009de:	03e4      	lsls	r4, r4, #15
 80009e0:	e7a4      	b.n	800092c <__aeabi_fdiv+0xb0>
 80009e2:	2380      	movs	r3, #128	@ 0x80
 80009e4:	03db      	lsls	r3, r3, #15
 80009e6:	421d      	tst	r5, r3
 80009e8:	d001      	beq.n	80009ee <__aeabi_fdiv+0x172>
 80009ea:	421c      	tst	r4, r3
 80009ec:	d00b      	beq.n	8000a06 <__aeabi_fdiv+0x18a>
 80009ee:	2480      	movs	r4, #128	@ 0x80
 80009f0:	03e4      	lsls	r4, r4, #15
 80009f2:	432c      	orrs	r4, r5
 80009f4:	0264      	lsls	r4, r4, #9
 80009f6:	4642      	mov	r2, r8
 80009f8:	20ff      	movs	r0, #255	@ 0xff
 80009fa:	0a64      	lsrs	r4, r4, #9
 80009fc:	e796      	b.n	800092c <__aeabi_fdiv+0xb0>
 80009fe:	4646      	mov	r6, r8
 8000a00:	002c      	movs	r4, r5
 8000a02:	2380      	movs	r3, #128	@ 0x80
 8000a04:	03db      	lsls	r3, r3, #15
 8000a06:	431c      	orrs	r4, r3
 8000a08:	0264      	lsls	r4, r4, #9
 8000a0a:	0032      	movs	r2, r6
 8000a0c:	20ff      	movs	r0, #255	@ 0xff
 8000a0e:	0a64      	lsrs	r4, r4, #9
 8000a10:	e78c      	b.n	800092c <__aeabi_fdiv+0xb0>
 8000a12:	016d      	lsls	r5, r5, #5
 8000a14:	0160      	lsls	r0, r4, #5
 8000a16:	4285      	cmp	r5, r0
 8000a18:	d22d      	bcs.n	8000a76 <__aeabi_fdiv+0x1fa>
 8000a1a:	231b      	movs	r3, #27
 8000a1c:	2400      	movs	r4, #0
 8000a1e:	3f01      	subs	r7, #1
 8000a20:	2601      	movs	r6, #1
 8000a22:	0029      	movs	r1, r5
 8000a24:	0064      	lsls	r4, r4, #1
 8000a26:	006d      	lsls	r5, r5, #1
 8000a28:	2900      	cmp	r1, #0
 8000a2a:	db01      	blt.n	8000a30 <__aeabi_fdiv+0x1b4>
 8000a2c:	4285      	cmp	r5, r0
 8000a2e:	d301      	bcc.n	8000a34 <__aeabi_fdiv+0x1b8>
 8000a30:	1a2d      	subs	r5, r5, r0
 8000a32:	4334      	orrs	r4, r6
 8000a34:	3b01      	subs	r3, #1
 8000a36:	2b00      	cmp	r3, #0
 8000a38:	d1f3      	bne.n	8000a22 <__aeabi_fdiv+0x1a6>
 8000a3a:	1e6b      	subs	r3, r5, #1
 8000a3c:	419d      	sbcs	r5, r3
 8000a3e:	432c      	orrs	r4, r5
 8000a40:	e7b3      	b.n	80009aa <__aeabi_fdiv+0x12e>
 8000a42:	2301      	movs	r3, #1
 8000a44:	1a1b      	subs	r3, r3, r0
 8000a46:	2b1b      	cmp	r3, #27
 8000a48:	dd00      	ble.n	8000a4c <__aeabi_fdiv+0x1d0>
 8000a4a:	e76d      	b.n	8000928 <__aeabi_fdiv+0xac>
 8000a4c:	0021      	movs	r1, r4
 8000a4e:	379e      	adds	r7, #158	@ 0x9e
 8000a50:	40d9      	lsrs	r1, r3
 8000a52:	40bc      	lsls	r4, r7
 8000a54:	000b      	movs	r3, r1
 8000a56:	1e61      	subs	r1, r4, #1
 8000a58:	418c      	sbcs	r4, r1
 8000a5a:	4323      	orrs	r3, r4
 8000a5c:	0759      	lsls	r1, r3, #29
 8000a5e:	d004      	beq.n	8000a6a <__aeabi_fdiv+0x1ee>
 8000a60:	210f      	movs	r1, #15
 8000a62:	4019      	ands	r1, r3
 8000a64:	2904      	cmp	r1, #4
 8000a66:	d000      	beq.n	8000a6a <__aeabi_fdiv+0x1ee>
 8000a68:	3304      	adds	r3, #4
 8000a6a:	0159      	lsls	r1, r3, #5
 8000a6c:	d413      	bmi.n	8000a96 <__aeabi_fdiv+0x21a>
 8000a6e:	019b      	lsls	r3, r3, #6
 8000a70:	2000      	movs	r0, #0
 8000a72:	0a5c      	lsrs	r4, r3, #9
 8000a74:	e75a      	b.n	800092c <__aeabi_fdiv+0xb0>
 8000a76:	231a      	movs	r3, #26
 8000a78:	2401      	movs	r4, #1
 8000a7a:	1a2d      	subs	r5, r5, r0
 8000a7c:	e7d0      	b.n	8000a20 <__aeabi_fdiv+0x1a4>
 8000a7e:	1e98      	subs	r0, r3, #2
 8000a80:	4243      	negs	r3, r0
 8000a82:	4158      	adcs	r0, r3
 8000a84:	4240      	negs	r0, r0
 8000a86:	0032      	movs	r2, r6
 8000a88:	2400      	movs	r4, #0
 8000a8a:	b2c0      	uxtb	r0, r0
 8000a8c:	e74e      	b.n	800092c <__aeabi_fdiv+0xb0>
 8000a8e:	4642      	mov	r2, r8
 8000a90:	20ff      	movs	r0, #255	@ 0xff
 8000a92:	2400      	movs	r4, #0
 8000a94:	e74a      	b.n	800092c <__aeabi_fdiv+0xb0>
 8000a96:	2001      	movs	r0, #1
 8000a98:	2400      	movs	r4, #0
 8000a9a:	e747      	b.n	800092c <__aeabi_fdiv+0xb0>
 8000a9c:	080067c4 	.word	0x080067c4
 8000aa0:	08006804 	.word	0x08006804
 8000aa4:	f7ffffff 	.word	0xf7ffffff

08000aa8 <__eqsf2>:
 8000aa8:	b570      	push	{r4, r5, r6, lr}
 8000aaa:	0042      	lsls	r2, r0, #1
 8000aac:	024e      	lsls	r6, r1, #9
 8000aae:	004c      	lsls	r4, r1, #1
 8000ab0:	0245      	lsls	r5, r0, #9
 8000ab2:	0a6d      	lsrs	r5, r5, #9
 8000ab4:	0e12      	lsrs	r2, r2, #24
 8000ab6:	0fc3      	lsrs	r3, r0, #31
 8000ab8:	0a76      	lsrs	r6, r6, #9
 8000aba:	0e24      	lsrs	r4, r4, #24
 8000abc:	0fc9      	lsrs	r1, r1, #31
 8000abe:	2aff      	cmp	r2, #255	@ 0xff
 8000ac0:	d010      	beq.n	8000ae4 <__eqsf2+0x3c>
 8000ac2:	2cff      	cmp	r4, #255	@ 0xff
 8000ac4:	d00c      	beq.n	8000ae0 <__eqsf2+0x38>
 8000ac6:	2001      	movs	r0, #1
 8000ac8:	42a2      	cmp	r2, r4
 8000aca:	d10a      	bne.n	8000ae2 <__eqsf2+0x3a>
 8000acc:	42b5      	cmp	r5, r6
 8000ace:	d108      	bne.n	8000ae2 <__eqsf2+0x3a>
 8000ad0:	428b      	cmp	r3, r1
 8000ad2:	d00f      	beq.n	8000af4 <__eqsf2+0x4c>
 8000ad4:	2a00      	cmp	r2, #0
 8000ad6:	d104      	bne.n	8000ae2 <__eqsf2+0x3a>
 8000ad8:	0028      	movs	r0, r5
 8000ada:	1e43      	subs	r3, r0, #1
 8000adc:	4198      	sbcs	r0, r3
 8000ade:	e000      	b.n	8000ae2 <__eqsf2+0x3a>
 8000ae0:	2001      	movs	r0, #1
 8000ae2:	bd70      	pop	{r4, r5, r6, pc}
 8000ae4:	2001      	movs	r0, #1
 8000ae6:	2cff      	cmp	r4, #255	@ 0xff
 8000ae8:	d1fb      	bne.n	8000ae2 <__eqsf2+0x3a>
 8000aea:	4335      	orrs	r5, r6
 8000aec:	d1f9      	bne.n	8000ae2 <__eqsf2+0x3a>
 8000aee:	404b      	eors	r3, r1
 8000af0:	0018      	movs	r0, r3
 8000af2:	e7f6      	b.n	8000ae2 <__eqsf2+0x3a>
 8000af4:	2000      	movs	r0, #0
 8000af6:	e7f4      	b.n	8000ae2 <__eqsf2+0x3a>

08000af8 <__gesf2>:
 8000af8:	b530      	push	{r4, r5, lr}
 8000afa:	0042      	lsls	r2, r0, #1
 8000afc:	0244      	lsls	r4, r0, #9
 8000afe:	024d      	lsls	r5, r1, #9
 8000b00:	0fc3      	lsrs	r3, r0, #31
 8000b02:	0048      	lsls	r0, r1, #1
 8000b04:	0a64      	lsrs	r4, r4, #9
 8000b06:	0e12      	lsrs	r2, r2, #24
 8000b08:	0a6d      	lsrs	r5, r5, #9
 8000b0a:	0e00      	lsrs	r0, r0, #24
 8000b0c:	0fc9      	lsrs	r1, r1, #31
 8000b0e:	2aff      	cmp	r2, #255	@ 0xff
 8000b10:	d018      	beq.n	8000b44 <__gesf2+0x4c>
 8000b12:	28ff      	cmp	r0, #255	@ 0xff
 8000b14:	d00a      	beq.n	8000b2c <__gesf2+0x34>
 8000b16:	2a00      	cmp	r2, #0
 8000b18:	d11e      	bne.n	8000b58 <__gesf2+0x60>
 8000b1a:	2800      	cmp	r0, #0
 8000b1c:	d10a      	bne.n	8000b34 <__gesf2+0x3c>
 8000b1e:	2d00      	cmp	r5, #0
 8000b20:	d029      	beq.n	8000b76 <__gesf2+0x7e>
 8000b22:	2c00      	cmp	r4, #0
 8000b24:	d12d      	bne.n	8000b82 <__gesf2+0x8a>
 8000b26:	0048      	lsls	r0, r1, #1
 8000b28:	3801      	subs	r0, #1
 8000b2a:	bd30      	pop	{r4, r5, pc}
 8000b2c:	2d00      	cmp	r5, #0
 8000b2e:	d125      	bne.n	8000b7c <__gesf2+0x84>
 8000b30:	2a00      	cmp	r2, #0
 8000b32:	d101      	bne.n	8000b38 <__gesf2+0x40>
 8000b34:	2c00      	cmp	r4, #0
 8000b36:	d0f6      	beq.n	8000b26 <__gesf2+0x2e>
 8000b38:	428b      	cmp	r3, r1
 8000b3a:	d019      	beq.n	8000b70 <__gesf2+0x78>
 8000b3c:	2001      	movs	r0, #1
 8000b3e:	425b      	negs	r3, r3
 8000b40:	4318      	orrs	r0, r3
 8000b42:	e7f2      	b.n	8000b2a <__gesf2+0x32>
 8000b44:	2c00      	cmp	r4, #0
 8000b46:	d119      	bne.n	8000b7c <__gesf2+0x84>
 8000b48:	28ff      	cmp	r0, #255	@ 0xff
 8000b4a:	d1f7      	bne.n	8000b3c <__gesf2+0x44>
 8000b4c:	2d00      	cmp	r5, #0
 8000b4e:	d115      	bne.n	8000b7c <__gesf2+0x84>
 8000b50:	2000      	movs	r0, #0
 8000b52:	428b      	cmp	r3, r1
 8000b54:	d1f2      	bne.n	8000b3c <__gesf2+0x44>
 8000b56:	e7e8      	b.n	8000b2a <__gesf2+0x32>
 8000b58:	2800      	cmp	r0, #0
 8000b5a:	d0ef      	beq.n	8000b3c <__gesf2+0x44>
 8000b5c:	428b      	cmp	r3, r1
 8000b5e:	d1ed      	bne.n	8000b3c <__gesf2+0x44>
 8000b60:	4282      	cmp	r2, r0
 8000b62:	dceb      	bgt.n	8000b3c <__gesf2+0x44>
 8000b64:	db04      	blt.n	8000b70 <__gesf2+0x78>
 8000b66:	42ac      	cmp	r4, r5
 8000b68:	d8e8      	bhi.n	8000b3c <__gesf2+0x44>
 8000b6a:	2000      	movs	r0, #0
 8000b6c:	42ac      	cmp	r4, r5
 8000b6e:	d2dc      	bcs.n	8000b2a <__gesf2+0x32>
 8000b70:	0058      	lsls	r0, r3, #1
 8000b72:	3801      	subs	r0, #1
 8000b74:	e7d9      	b.n	8000b2a <__gesf2+0x32>
 8000b76:	2c00      	cmp	r4, #0
 8000b78:	d0d7      	beq.n	8000b2a <__gesf2+0x32>
 8000b7a:	e7df      	b.n	8000b3c <__gesf2+0x44>
 8000b7c:	2002      	movs	r0, #2
 8000b7e:	4240      	negs	r0, r0
 8000b80:	e7d3      	b.n	8000b2a <__gesf2+0x32>
 8000b82:	428b      	cmp	r3, r1
 8000b84:	d1da      	bne.n	8000b3c <__gesf2+0x44>
 8000b86:	e7ee      	b.n	8000b66 <__gesf2+0x6e>

08000b88 <__lesf2>:
 8000b88:	b530      	push	{r4, r5, lr}
 8000b8a:	0042      	lsls	r2, r0, #1
 8000b8c:	0244      	lsls	r4, r0, #9
 8000b8e:	024d      	lsls	r5, r1, #9
 8000b90:	0fc3      	lsrs	r3, r0, #31
 8000b92:	0048      	lsls	r0, r1, #1
 8000b94:	0a64      	lsrs	r4, r4, #9
 8000b96:	0e12      	lsrs	r2, r2, #24
 8000b98:	0a6d      	lsrs	r5, r5, #9
 8000b9a:	0e00      	lsrs	r0, r0, #24
 8000b9c:	0fc9      	lsrs	r1, r1, #31
 8000b9e:	2aff      	cmp	r2, #255	@ 0xff
 8000ba0:	d017      	beq.n	8000bd2 <__lesf2+0x4a>
 8000ba2:	28ff      	cmp	r0, #255	@ 0xff
 8000ba4:	d00a      	beq.n	8000bbc <__lesf2+0x34>
 8000ba6:	2a00      	cmp	r2, #0
 8000ba8:	d11b      	bne.n	8000be2 <__lesf2+0x5a>
 8000baa:	2800      	cmp	r0, #0
 8000bac:	d10a      	bne.n	8000bc4 <__lesf2+0x3c>
 8000bae:	2d00      	cmp	r5, #0
 8000bb0:	d01d      	beq.n	8000bee <__lesf2+0x66>
 8000bb2:	2c00      	cmp	r4, #0
 8000bb4:	d12d      	bne.n	8000c12 <__lesf2+0x8a>
 8000bb6:	0048      	lsls	r0, r1, #1
 8000bb8:	3801      	subs	r0, #1
 8000bba:	e011      	b.n	8000be0 <__lesf2+0x58>
 8000bbc:	2d00      	cmp	r5, #0
 8000bbe:	d10e      	bne.n	8000bde <__lesf2+0x56>
 8000bc0:	2a00      	cmp	r2, #0
 8000bc2:	d101      	bne.n	8000bc8 <__lesf2+0x40>
 8000bc4:	2c00      	cmp	r4, #0
 8000bc6:	d0f6      	beq.n	8000bb6 <__lesf2+0x2e>
 8000bc8:	428b      	cmp	r3, r1
 8000bca:	d10c      	bne.n	8000be6 <__lesf2+0x5e>
 8000bcc:	0058      	lsls	r0, r3, #1
 8000bce:	3801      	subs	r0, #1
 8000bd0:	e006      	b.n	8000be0 <__lesf2+0x58>
 8000bd2:	2c00      	cmp	r4, #0
 8000bd4:	d103      	bne.n	8000bde <__lesf2+0x56>
 8000bd6:	28ff      	cmp	r0, #255	@ 0xff
 8000bd8:	d105      	bne.n	8000be6 <__lesf2+0x5e>
 8000bda:	2d00      	cmp	r5, #0
 8000bdc:	d015      	beq.n	8000c0a <__lesf2+0x82>
 8000bde:	2002      	movs	r0, #2
 8000be0:	bd30      	pop	{r4, r5, pc}
 8000be2:	2800      	cmp	r0, #0
 8000be4:	d106      	bne.n	8000bf4 <__lesf2+0x6c>
 8000be6:	2001      	movs	r0, #1
 8000be8:	425b      	negs	r3, r3
 8000bea:	4318      	orrs	r0, r3
 8000bec:	e7f8      	b.n	8000be0 <__lesf2+0x58>
 8000bee:	2c00      	cmp	r4, #0
 8000bf0:	d0f6      	beq.n	8000be0 <__lesf2+0x58>
 8000bf2:	e7f8      	b.n	8000be6 <__lesf2+0x5e>
 8000bf4:	428b      	cmp	r3, r1
 8000bf6:	d1f6      	bne.n	8000be6 <__lesf2+0x5e>
 8000bf8:	4282      	cmp	r2, r0
 8000bfa:	dcf4      	bgt.n	8000be6 <__lesf2+0x5e>
 8000bfc:	dbe6      	blt.n	8000bcc <__lesf2+0x44>
 8000bfe:	42ac      	cmp	r4, r5
 8000c00:	d8f1      	bhi.n	8000be6 <__lesf2+0x5e>
 8000c02:	2000      	movs	r0, #0
 8000c04:	42ac      	cmp	r4, r5
 8000c06:	d2eb      	bcs.n	8000be0 <__lesf2+0x58>
 8000c08:	e7e0      	b.n	8000bcc <__lesf2+0x44>
 8000c0a:	2000      	movs	r0, #0
 8000c0c:	428b      	cmp	r3, r1
 8000c0e:	d1ea      	bne.n	8000be6 <__lesf2+0x5e>
 8000c10:	e7e6      	b.n	8000be0 <__lesf2+0x58>
 8000c12:	428b      	cmp	r3, r1
 8000c14:	d1e7      	bne.n	8000be6 <__lesf2+0x5e>
 8000c16:	e7f2      	b.n	8000bfe <__lesf2+0x76>

08000c18 <__aeabi_fmul>:
 8000c18:	b5f0      	push	{r4, r5, r6, r7, lr}
 8000c1a:	464f      	mov	r7, r9
 8000c1c:	4646      	mov	r6, r8
 8000c1e:	46d6      	mov	lr, sl
 8000c20:	0044      	lsls	r4, r0, #1
 8000c22:	b5c0      	push	{r6, r7, lr}
 8000c24:	0246      	lsls	r6, r0, #9
 8000c26:	1c0f      	adds	r7, r1, #0
 8000c28:	0a76      	lsrs	r6, r6, #9
 8000c2a:	0e24      	lsrs	r4, r4, #24
 8000c2c:	0fc5      	lsrs	r5, r0, #31
 8000c2e:	2c00      	cmp	r4, #0
 8000c30:	d100      	bne.n	8000c34 <__aeabi_fmul+0x1c>
 8000c32:	e0da      	b.n	8000dea <__aeabi_fmul+0x1d2>
 8000c34:	2cff      	cmp	r4, #255	@ 0xff
 8000c36:	d074      	beq.n	8000d22 <__aeabi_fmul+0x10a>
 8000c38:	2380      	movs	r3, #128	@ 0x80
 8000c3a:	00f6      	lsls	r6, r6, #3
 8000c3c:	04db      	lsls	r3, r3, #19
 8000c3e:	431e      	orrs	r6, r3
 8000c40:	2300      	movs	r3, #0
 8000c42:	4699      	mov	r9, r3
 8000c44:	469a      	mov	sl, r3
 8000c46:	3c7f      	subs	r4, #127	@ 0x7f
 8000c48:	027b      	lsls	r3, r7, #9
 8000c4a:	0a5b      	lsrs	r3, r3, #9
 8000c4c:	4698      	mov	r8, r3
 8000c4e:	007b      	lsls	r3, r7, #1
 8000c50:	0e1b      	lsrs	r3, r3, #24
 8000c52:	0fff      	lsrs	r7, r7, #31
 8000c54:	2b00      	cmp	r3, #0
 8000c56:	d074      	beq.n	8000d42 <__aeabi_fmul+0x12a>
 8000c58:	2bff      	cmp	r3, #255	@ 0xff
 8000c5a:	d100      	bne.n	8000c5e <__aeabi_fmul+0x46>
 8000c5c:	e08e      	b.n	8000d7c <__aeabi_fmul+0x164>
 8000c5e:	4642      	mov	r2, r8
 8000c60:	2180      	movs	r1, #128	@ 0x80
 8000c62:	00d2      	lsls	r2, r2, #3
 8000c64:	04c9      	lsls	r1, r1, #19
 8000c66:	4311      	orrs	r1, r2
 8000c68:	3b7f      	subs	r3, #127	@ 0x7f
 8000c6a:	002a      	movs	r2, r5
 8000c6c:	18e4      	adds	r4, r4, r3
 8000c6e:	464b      	mov	r3, r9
 8000c70:	407a      	eors	r2, r7
 8000c72:	4688      	mov	r8, r1
 8000c74:	b2d2      	uxtb	r2, r2
 8000c76:	2b0a      	cmp	r3, #10
 8000c78:	dc75      	bgt.n	8000d66 <__aeabi_fmul+0x14e>
 8000c7a:	464b      	mov	r3, r9
 8000c7c:	2000      	movs	r0, #0
 8000c7e:	2b02      	cmp	r3, #2
 8000c80:	dd0f      	ble.n	8000ca2 <__aeabi_fmul+0x8a>
 8000c82:	4649      	mov	r1, r9
 8000c84:	2301      	movs	r3, #1
 8000c86:	408b      	lsls	r3, r1
 8000c88:	21a6      	movs	r1, #166	@ 0xa6
 8000c8a:	00c9      	lsls	r1, r1, #3
 8000c8c:	420b      	tst	r3, r1
 8000c8e:	d169      	bne.n	8000d64 <__aeabi_fmul+0x14c>
 8000c90:	2190      	movs	r1, #144	@ 0x90
 8000c92:	0089      	lsls	r1, r1, #2
 8000c94:	420b      	tst	r3, r1
 8000c96:	d000      	beq.n	8000c9a <__aeabi_fmul+0x82>
 8000c98:	e100      	b.n	8000e9c <__aeabi_fmul+0x284>
 8000c9a:	2188      	movs	r1, #136	@ 0x88
 8000c9c:	4219      	tst	r1, r3
 8000c9e:	d000      	beq.n	8000ca2 <__aeabi_fmul+0x8a>
 8000ca0:	e0f5      	b.n	8000e8e <__aeabi_fmul+0x276>
 8000ca2:	4641      	mov	r1, r8
 8000ca4:	0409      	lsls	r1, r1, #16
 8000ca6:	0c09      	lsrs	r1, r1, #16
 8000ca8:	4643      	mov	r3, r8
 8000caa:	0008      	movs	r0, r1
 8000cac:	0c35      	lsrs	r5, r6, #16
 8000cae:	0436      	lsls	r6, r6, #16
 8000cb0:	0c1b      	lsrs	r3, r3, #16
 8000cb2:	0c36      	lsrs	r6, r6, #16
 8000cb4:	4370      	muls	r0, r6
 8000cb6:	4369      	muls	r1, r5
 8000cb8:	435e      	muls	r6, r3
 8000cba:	435d      	muls	r5, r3
 8000cbc:	1876      	adds	r6, r6, r1
 8000cbe:	0c03      	lsrs	r3, r0, #16
 8000cc0:	199b      	adds	r3, r3, r6
 8000cc2:	4299      	cmp	r1, r3
 8000cc4:	d903      	bls.n	8000cce <__aeabi_fmul+0xb6>
 8000cc6:	2180      	movs	r1, #128	@ 0x80
 8000cc8:	0249      	lsls	r1, r1, #9
 8000cca:	468c      	mov	ip, r1
 8000ccc:	4465      	add	r5, ip
 8000cce:	0400      	lsls	r0, r0, #16
 8000cd0:	0419      	lsls	r1, r3, #16
 8000cd2:	0c00      	lsrs	r0, r0, #16
 8000cd4:	1809      	adds	r1, r1, r0
 8000cd6:	018e      	lsls	r6, r1, #6
 8000cd8:	1e70      	subs	r0, r6, #1
 8000cda:	4186      	sbcs	r6, r0
 8000cdc:	0c1b      	lsrs	r3, r3, #16
 8000cde:	0e89      	lsrs	r1, r1, #26
 8000ce0:	195b      	adds	r3, r3, r5
 8000ce2:	430e      	orrs	r6, r1
 8000ce4:	019b      	lsls	r3, r3, #6
 8000ce6:	431e      	orrs	r6, r3
 8000ce8:	011b      	lsls	r3, r3, #4
 8000cea:	d46c      	bmi.n	8000dc6 <__aeabi_fmul+0x1ae>
 8000cec:	0023      	movs	r3, r4
 8000cee:	337f      	adds	r3, #127	@ 0x7f
 8000cf0:	2b00      	cmp	r3, #0
 8000cf2:	dc00      	bgt.n	8000cf6 <__aeabi_fmul+0xde>
 8000cf4:	e0b1      	b.n	8000e5a <__aeabi_fmul+0x242>
 8000cf6:	0015      	movs	r5, r2
 8000cf8:	0771      	lsls	r1, r6, #29
 8000cfa:	d00b      	beq.n	8000d14 <__aeabi_fmul+0xfc>
 8000cfc:	200f      	movs	r0, #15
 8000cfe:	0021      	movs	r1, r4
 8000d00:	4030      	ands	r0, r6
 8000d02:	2804      	cmp	r0, #4
 8000d04:	d006      	beq.n	8000d14 <__aeabi_fmul+0xfc>
 8000d06:	3604      	adds	r6, #4
 8000d08:	0132      	lsls	r2, r6, #4
 8000d0a:	d503      	bpl.n	8000d14 <__aeabi_fmul+0xfc>
 8000d0c:	4b6e      	ldr	r3, [pc, #440]	@ (8000ec8 <__aeabi_fmul+0x2b0>)
 8000d0e:	401e      	ands	r6, r3
 8000d10:	000b      	movs	r3, r1
 8000d12:	3380      	adds	r3, #128	@ 0x80
 8000d14:	2bfe      	cmp	r3, #254	@ 0xfe
 8000d16:	dd00      	ble.n	8000d1a <__aeabi_fmul+0x102>
 8000d18:	e0bd      	b.n	8000e96 <__aeabi_fmul+0x27e>
 8000d1a:	01b2      	lsls	r2, r6, #6
 8000d1c:	0a52      	lsrs	r2, r2, #9
 8000d1e:	b2db      	uxtb	r3, r3
 8000d20:	e048      	b.n	8000db4 <__aeabi_fmul+0x19c>
 8000d22:	2e00      	cmp	r6, #0
 8000d24:	d000      	beq.n	8000d28 <__aeabi_fmul+0x110>
 8000d26:	e092      	b.n	8000e4e <__aeabi_fmul+0x236>
 8000d28:	2308      	movs	r3, #8
 8000d2a:	4699      	mov	r9, r3
 8000d2c:	3b06      	subs	r3, #6
 8000d2e:	469a      	mov	sl, r3
 8000d30:	027b      	lsls	r3, r7, #9
 8000d32:	0a5b      	lsrs	r3, r3, #9
 8000d34:	4698      	mov	r8, r3
 8000d36:	007b      	lsls	r3, r7, #1
 8000d38:	24ff      	movs	r4, #255	@ 0xff
 8000d3a:	0e1b      	lsrs	r3, r3, #24
 8000d3c:	0fff      	lsrs	r7, r7, #31
 8000d3e:	2b00      	cmp	r3, #0
 8000d40:	d18a      	bne.n	8000c58 <__aeabi_fmul+0x40>
 8000d42:	4642      	mov	r2, r8
 8000d44:	2a00      	cmp	r2, #0
 8000d46:	d164      	bne.n	8000e12 <__aeabi_fmul+0x1fa>
 8000d48:	4649      	mov	r1, r9
 8000d4a:	3201      	adds	r2, #1
 8000d4c:	4311      	orrs	r1, r2
 8000d4e:	4689      	mov	r9, r1
 8000d50:	290a      	cmp	r1, #10
 8000d52:	dc08      	bgt.n	8000d66 <__aeabi_fmul+0x14e>
 8000d54:	407d      	eors	r5, r7
 8000d56:	2001      	movs	r0, #1
 8000d58:	b2ea      	uxtb	r2, r5
 8000d5a:	2902      	cmp	r1, #2
 8000d5c:	dc91      	bgt.n	8000c82 <__aeabi_fmul+0x6a>
 8000d5e:	0015      	movs	r5, r2
 8000d60:	2200      	movs	r2, #0
 8000d62:	e027      	b.n	8000db4 <__aeabi_fmul+0x19c>
 8000d64:	0015      	movs	r5, r2
 8000d66:	4653      	mov	r3, sl
 8000d68:	2b02      	cmp	r3, #2
 8000d6a:	d100      	bne.n	8000d6e <__aeabi_fmul+0x156>
 8000d6c:	e093      	b.n	8000e96 <__aeabi_fmul+0x27e>
 8000d6e:	2b03      	cmp	r3, #3
 8000d70:	d01a      	beq.n	8000da8 <__aeabi_fmul+0x190>
 8000d72:	2b01      	cmp	r3, #1
 8000d74:	d12c      	bne.n	8000dd0 <__aeabi_fmul+0x1b8>
 8000d76:	2300      	movs	r3, #0
 8000d78:	2200      	movs	r2, #0
 8000d7a:	e01b      	b.n	8000db4 <__aeabi_fmul+0x19c>
 8000d7c:	4643      	mov	r3, r8
 8000d7e:	34ff      	adds	r4, #255	@ 0xff
 8000d80:	2b00      	cmp	r3, #0
 8000d82:	d055      	beq.n	8000e30 <__aeabi_fmul+0x218>
 8000d84:	2103      	movs	r1, #3
 8000d86:	464b      	mov	r3, r9
 8000d88:	430b      	orrs	r3, r1
 8000d8a:	0019      	movs	r1, r3
 8000d8c:	2b0a      	cmp	r3, #10
 8000d8e:	dc00      	bgt.n	8000d92 <__aeabi_fmul+0x17a>
 8000d90:	e092      	b.n	8000eb8 <__aeabi_fmul+0x2a0>
 8000d92:	2b0f      	cmp	r3, #15
 8000d94:	d000      	beq.n	8000d98 <__aeabi_fmul+0x180>
 8000d96:	e08c      	b.n	8000eb2 <__aeabi_fmul+0x29a>
 8000d98:	2280      	movs	r2, #128	@ 0x80
 8000d9a:	03d2      	lsls	r2, r2, #15
 8000d9c:	4216      	tst	r6, r2
 8000d9e:	d003      	beq.n	8000da8 <__aeabi_fmul+0x190>
 8000da0:	4643      	mov	r3, r8
 8000da2:	4213      	tst	r3, r2
 8000da4:	d100      	bne.n	8000da8 <__aeabi_fmul+0x190>
 8000da6:	e07d      	b.n	8000ea4 <__aeabi_fmul+0x28c>
 8000da8:	2280      	movs	r2, #128	@ 0x80
 8000daa:	03d2      	lsls	r2, r2, #15
 8000dac:	4332      	orrs	r2, r6
 8000dae:	0252      	lsls	r2, r2, #9
 8000db0:	0a52      	lsrs	r2, r2, #9
 8000db2:	23ff      	movs	r3, #255	@ 0xff
 8000db4:	05d8      	lsls	r0, r3, #23
 8000db6:	07ed      	lsls	r5, r5, #31
 8000db8:	4310      	orrs	r0, r2
 8000dba:	4328      	orrs	r0, r5
 8000dbc:	bce0      	pop	{r5, r6, r7}
 8000dbe:	46ba      	mov	sl, r7
 8000dc0:	46b1      	mov	r9, r6
 8000dc2:	46a8      	mov	r8, r5
 8000dc4:	bdf0      	pop	{r4, r5, r6, r7, pc}
 8000dc6:	2301      	movs	r3, #1
 8000dc8:	0015      	movs	r5, r2
 8000dca:	0871      	lsrs	r1, r6, #1
 8000dcc:	401e      	ands	r6, r3
 8000dce:	430e      	orrs	r6, r1
 8000dd0:	0023      	movs	r3, r4
 8000dd2:	3380      	adds	r3, #128	@ 0x80
 8000dd4:	1c61      	adds	r1, r4, #1
 8000dd6:	2b00      	cmp	r3, #0
 8000dd8:	dd41      	ble.n	8000e5e <__aeabi_fmul+0x246>
 8000dda:	0772      	lsls	r2, r6, #29
 8000ddc:	d094      	beq.n	8000d08 <__aeabi_fmul+0xf0>
 8000dde:	220f      	movs	r2, #15
 8000de0:	4032      	ands	r2, r6
 8000de2:	2a04      	cmp	r2, #4
 8000de4:	d000      	beq.n	8000de8 <__aeabi_fmul+0x1d0>
 8000de6:	e78e      	b.n	8000d06 <__aeabi_fmul+0xee>
 8000de8:	e78e      	b.n	8000d08 <__aeabi_fmul+0xf0>
 8000dea:	2e00      	cmp	r6, #0
 8000dec:	d105      	bne.n	8000dfa <__aeabi_fmul+0x1e2>
 8000dee:	2304      	movs	r3, #4
 8000df0:	4699      	mov	r9, r3
 8000df2:	3b03      	subs	r3, #3
 8000df4:	2400      	movs	r4, #0
 8000df6:	469a      	mov	sl, r3
 8000df8:	e726      	b.n	8000c48 <__aeabi_fmul+0x30>
 8000dfa:	0030      	movs	r0, r6
 8000dfc:	f000 fb96 	bl	800152c <__clzsi2>
 8000e00:	2476      	movs	r4, #118	@ 0x76
 8000e02:	1f43      	subs	r3, r0, #5
 8000e04:	409e      	lsls	r6, r3
 8000e06:	2300      	movs	r3, #0
 8000e08:	4264      	negs	r4, r4
 8000e0a:	4699      	mov	r9, r3
 8000e0c:	469a      	mov	sl, r3
 8000e0e:	1a24      	subs	r4, r4, r0
 8000e10:	e71a      	b.n	8000c48 <__aeabi_fmul+0x30>
 8000e12:	4640      	mov	r0, r8
 8000e14:	f000 fb8a 	bl	800152c <__clzsi2>
 8000e18:	464b      	mov	r3, r9
 8000e1a:	1a24      	subs	r4, r4, r0
 8000e1c:	3c76      	subs	r4, #118	@ 0x76
 8000e1e:	2b0a      	cmp	r3, #10
 8000e20:	dca1      	bgt.n	8000d66 <__aeabi_fmul+0x14e>
 8000e22:	4643      	mov	r3, r8
 8000e24:	3805      	subs	r0, #5
 8000e26:	4083      	lsls	r3, r0
 8000e28:	407d      	eors	r5, r7
 8000e2a:	4698      	mov	r8, r3
 8000e2c:	b2ea      	uxtb	r2, r5
 8000e2e:	e724      	b.n	8000c7a <__aeabi_fmul+0x62>
 8000e30:	464a      	mov	r2, r9
 8000e32:	3302      	adds	r3, #2
 8000e34:	4313      	orrs	r3, r2
 8000e36:	002a      	movs	r2, r5
 8000e38:	407a      	eors	r2, r7
 8000e3a:	b2d2      	uxtb	r2, r2
 8000e3c:	2b0a      	cmp	r3, #10
 8000e3e:	dc92      	bgt.n	8000d66 <__aeabi_fmul+0x14e>
 8000e40:	4649      	mov	r1, r9
 8000e42:	0015      	movs	r5, r2
 8000e44:	2900      	cmp	r1, #0
 8000e46:	d026      	beq.n	8000e96 <__aeabi_fmul+0x27e>
 8000e48:	4699      	mov	r9, r3
 8000e4a:	2002      	movs	r0, #2
 8000e4c:	e719      	b.n	8000c82 <__aeabi_fmul+0x6a>
 8000e4e:	230c      	movs	r3, #12
 8000e50:	4699      	mov	r9, r3
 8000e52:	3b09      	subs	r3, #9
 8000e54:	24ff      	movs	r4, #255	@ 0xff
 8000e56:	469a      	mov	sl, r3
 8000e58:	e6f6      	b.n	8000c48 <__aeabi_fmul+0x30>
 8000e5a:	0015      	movs	r5, r2
 8000e5c:	0021      	movs	r1, r4
 8000e5e:	2201      	movs	r2, #1
 8000e60:	1ad3      	subs	r3, r2, r3
 8000e62:	2b1b      	cmp	r3, #27
 8000e64:	dd00      	ble.n	8000e68 <__aeabi_fmul+0x250>
 8000e66:	e786      	b.n	8000d76 <__aeabi_fmul+0x15e>
 8000e68:	319e      	adds	r1, #158	@ 0x9e
 8000e6a:	0032      	movs	r2, r6
 8000e6c:	408e      	lsls	r6, r1
 8000e6e:	40da      	lsrs	r2, r3
 8000e70:	1e73      	subs	r3, r6, #1
 8000e72:	419e      	sbcs	r6, r3
 8000e74:	4332      	orrs	r2, r6
 8000e76:	0753      	lsls	r3, r2, #29
 8000e78:	d004      	beq.n	8000e84 <__aeabi_fmul+0x26c>
 8000e7a:	230f      	movs	r3, #15
 8000e7c:	4013      	ands	r3, r2
 8000e7e:	2b04      	cmp	r3, #4
 8000e80:	d000      	beq.n	8000e84 <__aeabi_fmul+0x26c>
 8000e82:	3204      	adds	r2, #4
 8000e84:	0153      	lsls	r3, r2, #5
 8000e86:	d510      	bpl.n	8000eaa <__aeabi_fmul+0x292>
 8000e88:	2301      	movs	r3, #1
 8000e8a:	2200      	movs	r2, #0
 8000e8c:	e792      	b.n	8000db4 <__aeabi_fmul+0x19c>
 8000e8e:	003d      	movs	r5, r7
 8000e90:	4646      	mov	r6, r8
 8000e92:	4682      	mov	sl, r0
 8000e94:	e767      	b.n	8000d66 <__aeabi_fmul+0x14e>
 8000e96:	23ff      	movs	r3, #255	@ 0xff
 8000e98:	2200      	movs	r2, #0
 8000e9a:	e78b      	b.n	8000db4 <__aeabi_fmul+0x19c>
 8000e9c:	2280      	movs	r2, #128	@ 0x80
 8000e9e:	2500      	movs	r5, #0
 8000ea0:	03d2      	lsls	r2, r2, #15
 8000ea2:	e786      	b.n	8000db2 <__aeabi_fmul+0x19a>
 8000ea4:	003d      	movs	r5, r7
 8000ea6:	431a      	orrs	r2, r3
 8000ea8:	e783      	b.n	8000db2 <__aeabi_fmul+0x19a>
 8000eaa:	0192      	lsls	r2, r2, #6
 8000eac:	2300      	movs	r3, #0
 8000eae:	0a52      	lsrs	r2, r2, #9
 8000eb0:	e780      	b.n	8000db4 <__aeabi_fmul+0x19c>
 8000eb2:	003d      	movs	r5, r7
 8000eb4:	4646      	mov	r6, r8
 8000eb6:	e777      	b.n	8000da8 <__aeabi_fmul+0x190>
 8000eb8:	002a      	movs	r2, r5
 8000eba:	2301      	movs	r3, #1
 8000ebc:	407a      	eors	r2, r7
 8000ebe:	408b      	lsls	r3, r1
 8000ec0:	2003      	movs	r0, #3
 8000ec2:	b2d2      	uxtb	r2, r2
 8000ec4:	e6e9      	b.n	8000c9a <__aeabi_fmul+0x82>
 8000ec6:	46c0      	nop			@ (mov r8, r8)
 8000ec8:	f7ffffff 	.word	0xf7ffffff

08000ecc <__aeabi_fsub>:
 8000ecc:	b5f8      	push	{r3, r4, r5, r6, r7, lr}
 8000ece:	4647      	mov	r7, r8
 8000ed0:	46ce      	mov	lr, r9
 8000ed2:	0243      	lsls	r3, r0, #9
 8000ed4:	b580      	push	{r7, lr}
 8000ed6:	0a5f      	lsrs	r7, r3, #9
 8000ed8:	099b      	lsrs	r3, r3, #6
 8000eda:	0045      	lsls	r5, r0, #1
 8000edc:	004a      	lsls	r2, r1, #1
 8000ede:	469c      	mov	ip, r3
 8000ee0:	024b      	lsls	r3, r1, #9
 8000ee2:	0fc4      	lsrs	r4, r0, #31
 8000ee4:	0fce      	lsrs	r6, r1, #31
 8000ee6:	0e2d      	lsrs	r5, r5, #24
 8000ee8:	0a58      	lsrs	r0, r3, #9
 8000eea:	0e12      	lsrs	r2, r2, #24
 8000eec:	0999      	lsrs	r1, r3, #6
 8000eee:	2aff      	cmp	r2, #255	@ 0xff
 8000ef0:	d06b      	beq.n	8000fca <__aeabi_fsub+0xfe>
 8000ef2:	2301      	movs	r3, #1
 8000ef4:	405e      	eors	r6, r3
 8000ef6:	1aab      	subs	r3, r5, r2
 8000ef8:	42b4      	cmp	r4, r6
 8000efa:	d04b      	beq.n	8000f94 <__aeabi_fsub+0xc8>
 8000efc:	2b00      	cmp	r3, #0
 8000efe:	dc00      	bgt.n	8000f02 <__aeabi_fsub+0x36>
 8000f00:	e0ff      	b.n	8001102 <__aeabi_fsub+0x236>
 8000f02:	2a00      	cmp	r2, #0
 8000f04:	d100      	bne.n	8000f08 <__aeabi_fsub+0x3c>
 8000f06:	e088      	b.n	800101a <__aeabi_fsub+0x14e>
 8000f08:	2dff      	cmp	r5, #255	@ 0xff
 8000f0a:	d100      	bne.n	8000f0e <__aeabi_fsub+0x42>
 8000f0c:	e0ef      	b.n	80010ee <__aeabi_fsub+0x222>
 8000f0e:	2280      	movs	r2, #128	@ 0x80
 8000f10:	04d2      	lsls	r2, r2, #19
 8000f12:	4311      	orrs	r1, r2
 8000f14:	2001      	movs	r0, #1
 8000f16:	2b1b      	cmp	r3, #27
 8000f18:	dc08      	bgt.n	8000f2c <__aeabi_fsub+0x60>
 8000f1a:	0008      	movs	r0, r1
 8000f1c:	2220      	movs	r2, #32
 8000f1e:	40d8      	lsrs	r0, r3
 8000f20:	1ad3      	subs	r3, r2, r3
 8000f22:	4099      	lsls	r1, r3
 8000f24:	000b      	movs	r3, r1
 8000f26:	1e5a      	subs	r2, r3, #1
 8000f28:	4193      	sbcs	r3, r2
 8000f2a:	4318      	orrs	r0, r3
 8000f2c:	4663      	mov	r3, ip
 8000f2e:	1a1b      	subs	r3, r3, r0
 8000f30:	469c      	mov	ip, r3
 8000f32:	4663      	mov	r3, ip
 8000f34:	015b      	lsls	r3, r3, #5
 8000f36:	d400      	bmi.n	8000f3a <__aeabi_fsub+0x6e>
 8000f38:	e0cd      	b.n	80010d6 <__aeabi_fsub+0x20a>
 8000f3a:	4663      	mov	r3, ip
 8000f3c:	019f      	lsls	r7, r3, #6
 8000f3e:	09bf      	lsrs	r7, r7, #6
 8000f40:	0038      	movs	r0, r7
 8000f42:	f000 faf3 	bl	800152c <__clzsi2>
 8000f46:	003b      	movs	r3, r7
 8000f48:	3805      	subs	r0, #5
 8000f4a:	4083      	lsls	r3, r0
 8000f4c:	4285      	cmp	r5, r0
 8000f4e:	dc00      	bgt.n	8000f52 <__aeabi_fsub+0x86>
 8000f50:	e0a2      	b.n	8001098 <__aeabi_fsub+0x1cc>
 8000f52:	4ab7      	ldr	r2, [pc, #732]	@ (8001230 <__aeabi_fsub+0x364>)
 8000f54:	1a2d      	subs	r5, r5, r0
 8000f56:	401a      	ands	r2, r3
 8000f58:	4694      	mov	ip, r2
 8000f5a:	075a      	lsls	r2, r3, #29
 8000f5c:	d100      	bne.n	8000f60 <__aeabi_fsub+0x94>
 8000f5e:	e0c3      	b.n	80010e8 <__aeabi_fsub+0x21c>
 8000f60:	220f      	movs	r2, #15
 8000f62:	4013      	ands	r3, r2
 8000f64:	2b04      	cmp	r3, #4
 8000f66:	d100      	bne.n	8000f6a <__aeabi_fsub+0x9e>
 8000f68:	e0be      	b.n	80010e8 <__aeabi_fsub+0x21c>
 8000f6a:	2304      	movs	r3, #4
 8000f6c:	4698      	mov	r8, r3
 8000f6e:	44c4      	add	ip, r8
 8000f70:	4663      	mov	r3, ip
 8000f72:	015b      	lsls	r3, r3, #5
 8000f74:	d400      	bmi.n	8000f78 <__aeabi_fsub+0xac>
 8000f76:	e0b7      	b.n	80010e8 <__aeabi_fsub+0x21c>
 8000f78:	1c68      	adds	r0, r5, #1
 8000f7a:	2dfe      	cmp	r5, #254	@ 0xfe
 8000f7c:	d000      	beq.n	8000f80 <__aeabi_fsub+0xb4>
 8000f7e:	e0a5      	b.n	80010cc <__aeabi_fsub+0x200>
 8000f80:	20ff      	movs	r0, #255	@ 0xff
 8000f82:	2200      	movs	r2, #0
 8000f84:	05c0      	lsls	r0, r0, #23
 8000f86:	4310      	orrs	r0, r2
 8000f88:	07e4      	lsls	r4, r4, #31
 8000f8a:	4320      	orrs	r0, r4
 8000f8c:	bcc0      	pop	{r6, r7}
 8000f8e:	46b9      	mov	r9, r7
 8000f90:	46b0      	mov	r8, r6
 8000f92:	bdf8      	pop	{r3, r4, r5, r6, r7, pc}
 8000f94:	2b00      	cmp	r3, #0
 8000f96:	dc00      	bgt.n	8000f9a <__aeabi_fsub+0xce>
 8000f98:	e1eb      	b.n	8001372 <__aeabi_fsub+0x4a6>
 8000f9a:	2a00      	cmp	r2, #0
 8000f9c:	d046      	beq.n	800102c <__aeabi_fsub+0x160>
 8000f9e:	2dff      	cmp	r5, #255	@ 0xff
 8000fa0:	d100      	bne.n	8000fa4 <__aeabi_fsub+0xd8>
 8000fa2:	e0a4      	b.n	80010ee <__aeabi_fsub+0x222>
 8000fa4:	2280      	movs	r2, #128	@ 0x80
 8000fa6:	04d2      	lsls	r2, r2, #19
 8000fa8:	4311      	orrs	r1, r2
 8000faa:	2b1b      	cmp	r3, #27
 8000fac:	dc00      	bgt.n	8000fb0 <__aeabi_fsub+0xe4>
 8000fae:	e0fb      	b.n	80011a8 <__aeabi_fsub+0x2dc>
 8000fb0:	2305      	movs	r3, #5
 8000fb2:	4698      	mov	r8, r3
 8000fb4:	002b      	movs	r3, r5
 8000fb6:	44c4      	add	ip, r8
 8000fb8:	4662      	mov	r2, ip
 8000fba:	08d7      	lsrs	r7, r2, #3
 8000fbc:	2bff      	cmp	r3, #255	@ 0xff
 8000fbe:	d100      	bne.n	8000fc2 <__aeabi_fsub+0xf6>
 8000fc0:	e095      	b.n	80010ee <__aeabi_fsub+0x222>
 8000fc2:	027a      	lsls	r2, r7, #9
 8000fc4:	0a52      	lsrs	r2, r2, #9
 8000fc6:	b2d8      	uxtb	r0, r3
 8000fc8:	e7dc      	b.n	8000f84 <__aeabi_fsub+0xb8>
 8000fca:	002b      	movs	r3, r5
 8000fcc:	3bff      	subs	r3, #255	@ 0xff
 8000fce:	4699      	mov	r9, r3
 8000fd0:	2900      	cmp	r1, #0
 8000fd2:	d118      	bne.n	8001006 <__aeabi_fsub+0x13a>
 8000fd4:	2301      	movs	r3, #1
 8000fd6:	405e      	eors	r6, r3
 8000fd8:	42b4      	cmp	r4, r6
 8000fda:	d100      	bne.n	8000fde <__aeabi_fsub+0x112>
 8000fdc:	e0ca      	b.n	8001174 <__aeabi_fsub+0x2a8>
 8000fde:	464b      	mov	r3, r9
 8000fe0:	2b00      	cmp	r3, #0
 8000fe2:	d02d      	beq.n	8001040 <__aeabi_fsub+0x174>
 8000fe4:	2d00      	cmp	r5, #0
 8000fe6:	d000      	beq.n	8000fea <__aeabi_fsub+0x11e>
 8000fe8:	e13c      	b.n	8001264 <__aeabi_fsub+0x398>
 8000fea:	23ff      	movs	r3, #255	@ 0xff
 8000fec:	4664      	mov	r4, ip
 8000fee:	2c00      	cmp	r4, #0
 8000ff0:	d100      	bne.n	8000ff4 <__aeabi_fsub+0x128>
 8000ff2:	e15f      	b.n	80012b4 <__aeabi_fsub+0x3e8>
 8000ff4:	1e5d      	subs	r5, r3, #1
 8000ff6:	2b01      	cmp	r3, #1
 8000ff8:	d100      	bne.n	8000ffc <__aeabi_fsub+0x130>
 8000ffa:	e174      	b.n	80012e6 <__aeabi_fsub+0x41a>
 8000ffc:	0034      	movs	r4, r6
 8000ffe:	2bff      	cmp	r3, #255	@ 0xff
 8001000:	d074      	beq.n	80010ec <__aeabi_fsub+0x220>
 8001002:	002b      	movs	r3, r5
 8001004:	e103      	b.n	800120e <__aeabi_fsub+0x342>
 8001006:	42b4      	cmp	r4, r6
 8001008:	d100      	bne.n	800100c <__aeabi_fsub+0x140>
 800100a:	e09c      	b.n	8001146 <__aeabi_fsub+0x27a>
 800100c:	2b00      	cmp	r3, #0
 800100e:	d017      	beq.n	8001040 <__aeabi_fsub+0x174>
 8001010:	2d00      	cmp	r5, #0
 8001012:	d0ea      	beq.n	8000fea <__aeabi_fsub+0x11e>
 8001014:	0007      	movs	r7, r0
 8001016:	0034      	movs	r4, r6
 8001018:	e06c      	b.n	80010f4 <__aeabi_fsub+0x228>
 800101a:	2900      	cmp	r1, #0
 800101c:	d0cc      	beq.n	8000fb8 <__aeabi_fsub+0xec>
 800101e:	1e5a      	subs	r2, r3, #1
 8001020:	2b01      	cmp	r3, #1
 8001022:	d02b      	beq.n	800107c <__aeabi_fsub+0x1b0>
 8001024:	2bff      	cmp	r3, #255	@ 0xff
 8001026:	d062      	beq.n	80010ee <__aeabi_fsub+0x222>
 8001028:	0013      	movs	r3, r2
 800102a:	e773      	b.n	8000f14 <__aeabi_fsub+0x48>
 800102c:	2900      	cmp	r1, #0
 800102e:	d0c3      	beq.n	8000fb8 <__aeabi_fsub+0xec>
 8001030:	1e5a      	subs	r2, r3, #1
 8001032:	2b01      	cmp	r3, #1
 8001034:	d100      	bne.n	8001038 <__aeabi_fsub+0x16c>
 8001036:	e11e      	b.n	8001276 <__aeabi_fsub+0x3aa>
 8001038:	2bff      	cmp	r3, #255	@ 0xff
 800103a:	d058      	beq.n	80010ee <__aeabi_fsub+0x222>
 800103c:	0013      	movs	r3, r2
 800103e:	e7b4      	b.n	8000faa <__aeabi_fsub+0xde>
 8001040:	22fe      	movs	r2, #254	@ 0xfe
 8001042:	1c6b      	adds	r3, r5, #1
 8001044:	421a      	tst	r2, r3
 8001046:	d10d      	bne.n	8001064 <__aeabi_fsub+0x198>
 8001048:	2d00      	cmp	r5, #0
 800104a:	d060      	beq.n	800110e <__aeabi_fsub+0x242>
 800104c:	4663      	mov	r3, ip
 800104e:	2b00      	cmp	r3, #0
 8001050:	d000      	beq.n	8001054 <__aeabi_fsub+0x188>
 8001052:	e120      	b.n	8001296 <__aeabi_fsub+0x3ca>
 8001054:	2900      	cmp	r1, #0
 8001056:	d000      	beq.n	800105a <__aeabi_fsub+0x18e>
 8001058:	e128      	b.n	80012ac <__aeabi_fsub+0x3e0>
 800105a:	2280      	movs	r2, #128	@ 0x80
 800105c:	2400      	movs	r4, #0
 800105e:	20ff      	movs	r0, #255	@ 0xff
 8001060:	03d2      	lsls	r2, r2, #15
 8001062:	e78f      	b.n	8000f84 <__aeabi_fsub+0xb8>
 8001064:	4663      	mov	r3, ip
 8001066:	1a5f      	subs	r7, r3, r1
 8001068:	017b      	lsls	r3, r7, #5
 800106a:	d500      	bpl.n	800106e <__aeabi_fsub+0x1a2>
 800106c:	e0fe      	b.n	800126c <__aeabi_fsub+0x3a0>
 800106e:	2f00      	cmp	r7, #0
 8001070:	d000      	beq.n	8001074 <__aeabi_fsub+0x1a8>
 8001072:	e765      	b.n	8000f40 <__aeabi_fsub+0x74>
 8001074:	2400      	movs	r4, #0
 8001076:	2000      	movs	r0, #0
 8001078:	2200      	movs	r2, #0
 800107a:	e783      	b.n	8000f84 <__aeabi_fsub+0xb8>
 800107c:	4663      	mov	r3, ip
 800107e:	1a59      	subs	r1, r3, r1
 8001080:	014b      	lsls	r3, r1, #5
 8001082:	d400      	bmi.n	8001086 <__aeabi_fsub+0x1ba>
 8001084:	e119      	b.n	80012ba <__aeabi_fsub+0x3ee>
 8001086:	018f      	lsls	r7, r1, #6
 8001088:	09bf      	lsrs	r7, r7, #6
 800108a:	0038      	movs	r0, r7
 800108c:	f000 fa4e 	bl	800152c <__clzsi2>
 8001090:	003b      	movs	r3, r7
 8001092:	3805      	subs	r0, #5
 8001094:	4083      	lsls	r3, r0
 8001096:	2501      	movs	r5, #1
 8001098:	2220      	movs	r2, #32
 800109a:	1b40      	subs	r0, r0, r5
 800109c:	3001      	adds	r0, #1
 800109e:	1a12      	subs	r2, r2, r0
 80010a0:	0019      	movs	r1, r3
 80010a2:	4093      	lsls	r3, r2
 80010a4:	40c1      	lsrs	r1, r0
 80010a6:	1e5a      	subs	r2, r3, #1
 80010a8:	4193      	sbcs	r3, r2
 80010aa:	4319      	orrs	r1, r3
 80010ac:	468c      	mov	ip, r1
 80010ae:	1e0b      	subs	r3, r1, #0
 80010b0:	d0e1      	beq.n	8001076 <__aeabi_fsub+0x1aa>
 80010b2:	075b      	lsls	r3, r3, #29
 80010b4:	d100      	bne.n	80010b8 <__aeabi_fsub+0x1ec>
 80010b6:	e152      	b.n	800135e <__aeabi_fsub+0x492>
 80010b8:	230f      	movs	r3, #15
 80010ba:	2500      	movs	r5, #0
 80010bc:	400b      	ands	r3, r1
 80010be:	2b04      	cmp	r3, #4
 80010c0:	d000      	beq.n	80010c4 <__aeabi_fsub+0x1f8>
 80010c2:	e752      	b.n	8000f6a <__aeabi_fsub+0x9e>
 80010c4:	2001      	movs	r0, #1
 80010c6:	014a      	lsls	r2, r1, #5
 80010c8:	d400      	bmi.n	80010cc <__aeabi_fsub+0x200>
 80010ca:	e092      	b.n	80011f2 <__aeabi_fsub+0x326>
 80010cc:	b2c0      	uxtb	r0, r0
 80010ce:	4663      	mov	r3, ip
 80010d0:	019a      	lsls	r2, r3, #6
 80010d2:	0a52      	lsrs	r2, r2, #9
 80010d4:	e756      	b.n	8000f84 <__aeabi_fsub+0xb8>
 80010d6:	4663      	mov	r3, ip
 80010d8:	075b      	lsls	r3, r3, #29
 80010da:	d005      	beq.n	80010e8 <__aeabi_fsub+0x21c>
 80010dc:	230f      	movs	r3, #15
 80010de:	4662      	mov	r2, ip
 80010e0:	4013      	ands	r3, r2
 80010e2:	2b04      	cmp	r3, #4
 80010e4:	d000      	beq.n	80010e8 <__aeabi_fsub+0x21c>
 80010e6:	e740      	b.n	8000f6a <__aeabi_fsub+0x9e>
 80010e8:	002b      	movs	r3, r5
 80010ea:	e765      	b.n	8000fb8 <__aeabi_fsub+0xec>
 80010ec:	0007      	movs	r7, r0
 80010ee:	2f00      	cmp	r7, #0
 80010f0:	d100      	bne.n	80010f4 <__aeabi_fsub+0x228>
 80010f2:	e745      	b.n	8000f80 <__aeabi_fsub+0xb4>
 80010f4:	2280      	movs	r2, #128	@ 0x80
 80010f6:	03d2      	lsls	r2, r2, #15
 80010f8:	433a      	orrs	r2, r7
 80010fa:	0252      	lsls	r2, r2, #9
 80010fc:	20ff      	movs	r0, #255	@ 0xff
 80010fe:	0a52      	lsrs	r2, r2, #9
 8001100:	e740      	b.n	8000f84 <__aeabi_fsub+0xb8>
 8001102:	2b00      	cmp	r3, #0
 8001104:	d179      	bne.n	80011fa <__aeabi_fsub+0x32e>
 8001106:	22fe      	movs	r2, #254	@ 0xfe
 8001108:	1c6b      	adds	r3, r5, #1
 800110a:	421a      	tst	r2, r3
 800110c:	d1aa      	bne.n	8001064 <__aeabi_fsub+0x198>
 800110e:	4663      	mov	r3, ip
 8001110:	2b00      	cmp	r3, #0
 8001112:	d100      	bne.n	8001116 <__aeabi_fsub+0x24a>
 8001114:	e0f5      	b.n	8001302 <__aeabi_fsub+0x436>
 8001116:	2900      	cmp	r1, #0
 8001118:	d100      	bne.n	800111c <__aeabi_fsub+0x250>
 800111a:	e0d1      	b.n	80012c0 <__aeabi_fsub+0x3f4>
 800111c:	1a5f      	subs	r7, r3, r1
 800111e:	2380      	movs	r3, #128	@ 0x80
 8001120:	04db      	lsls	r3, r3, #19
 8001122:	421f      	tst	r7, r3
 8001124:	d100      	bne.n	8001128 <__aeabi_fsub+0x25c>
 8001126:	e10e      	b.n	8001346 <__aeabi_fsub+0x47a>
 8001128:	4662      	mov	r2, ip
 800112a:	2401      	movs	r4, #1
 800112c:	1a8a      	subs	r2, r1, r2
 800112e:	4694      	mov	ip, r2
 8001130:	2000      	movs	r0, #0
 8001132:	4034      	ands	r4, r6
 8001134:	2a00      	cmp	r2, #0
 8001136:	d100      	bne.n	800113a <__aeabi_fsub+0x26e>
 8001138:	e724      	b.n	8000f84 <__aeabi_fsub+0xb8>
 800113a:	2001      	movs	r0, #1
 800113c:	421a      	tst	r2, r3
 800113e:	d1c6      	bne.n	80010ce <__aeabi_fsub+0x202>
 8001140:	2300      	movs	r3, #0
 8001142:	08d7      	lsrs	r7, r2, #3
 8001144:	e73d      	b.n	8000fc2 <__aeabi_fsub+0xf6>
 8001146:	2b00      	cmp	r3, #0
 8001148:	d017      	beq.n	800117a <__aeabi_fsub+0x2ae>
 800114a:	2d00      	cmp	r5, #0
 800114c:	d000      	beq.n	8001150 <__aeabi_fsub+0x284>
 800114e:	e0af      	b.n	80012b0 <__aeabi_fsub+0x3e4>
 8001150:	23ff      	movs	r3, #255	@ 0xff
 8001152:	4665      	mov	r5, ip
 8001154:	2d00      	cmp	r5, #0
 8001156:	d100      	bne.n	800115a <__aeabi_fsub+0x28e>
 8001158:	e0ad      	b.n	80012b6 <__aeabi_fsub+0x3ea>
 800115a:	1e5e      	subs	r6, r3, #1
 800115c:	2b01      	cmp	r3, #1
 800115e:	d100      	bne.n	8001162 <__aeabi_fsub+0x296>
 8001160:	e089      	b.n	8001276 <__aeabi_fsub+0x3aa>
 8001162:	2bff      	cmp	r3, #255	@ 0xff
 8001164:	d0c2      	beq.n	80010ec <__aeabi_fsub+0x220>
 8001166:	2e1b      	cmp	r6, #27
 8001168:	dc00      	bgt.n	800116c <__aeabi_fsub+0x2a0>
 800116a:	e0ab      	b.n	80012c4 <__aeabi_fsub+0x3f8>
 800116c:	1d4b      	adds	r3, r1, #5
 800116e:	469c      	mov	ip, r3
 8001170:	0013      	movs	r3, r2
 8001172:	e721      	b.n	8000fb8 <__aeabi_fsub+0xec>
 8001174:	464b      	mov	r3, r9
 8001176:	2b00      	cmp	r3, #0
 8001178:	d170      	bne.n	800125c <__aeabi_fsub+0x390>
 800117a:	22fe      	movs	r2, #254	@ 0xfe
 800117c:	1c6b      	adds	r3, r5, #1
 800117e:	421a      	tst	r2, r3
 8001180:	d15e      	bne.n	8001240 <__aeabi_fsub+0x374>
 8001182:	2d00      	cmp	r5, #0
 8001184:	d000      	beq.n	8001188 <__aeabi_fsub+0x2bc>
 8001186:	e0c3      	b.n	8001310 <__aeabi_fsub+0x444>
 8001188:	4663      	mov	r3, ip
 800118a:	2b00      	cmp	r3, #0
 800118c:	d100      	bne.n	8001190 <__aeabi_fsub+0x2c4>
 800118e:	e0d0      	b.n	8001332 <__aeabi_fsub+0x466>
 8001190:	2900      	cmp	r1, #0
 8001192:	d100      	bne.n	8001196 <__aeabi_fsub+0x2ca>
 8001194:	e094      	b.n	80012c0 <__aeabi_fsub+0x3f4>
 8001196:	000a      	movs	r2, r1
 8001198:	4462      	add	r2, ip
 800119a:	0153      	lsls	r3, r2, #5
 800119c:	d400      	bmi.n	80011a0 <__aeabi_fsub+0x2d4>
 800119e:	e0d8      	b.n	8001352 <__aeabi_fsub+0x486>
 80011a0:	0192      	lsls	r2, r2, #6
 80011a2:	2001      	movs	r0, #1
 80011a4:	0a52      	lsrs	r2, r2, #9
 80011a6:	e6ed      	b.n	8000f84 <__aeabi_fsub+0xb8>
 80011a8:	0008      	movs	r0, r1
 80011aa:	2220      	movs	r2, #32
 80011ac:	40d8      	lsrs	r0, r3
 80011ae:	1ad3      	subs	r3, r2, r3
 80011b0:	4099      	lsls	r1, r3
 80011b2:	000b      	movs	r3, r1
 80011b4:	1e5a      	subs	r2, r3, #1
 80011b6:	4193      	sbcs	r3, r2
 80011b8:	4303      	orrs	r3, r0
 80011ba:	449c      	add	ip, r3
 80011bc:	4663      	mov	r3, ip
 80011be:	015b      	lsls	r3, r3, #5
 80011c0:	d589      	bpl.n	80010d6 <__aeabi_fsub+0x20a>
 80011c2:	3501      	adds	r5, #1
 80011c4:	2dff      	cmp	r5, #255	@ 0xff
 80011c6:	d100      	bne.n	80011ca <__aeabi_fsub+0x2fe>
 80011c8:	e6da      	b.n	8000f80 <__aeabi_fsub+0xb4>
 80011ca:	4662      	mov	r2, ip
 80011cc:	2301      	movs	r3, #1
 80011ce:	4919      	ldr	r1, [pc, #100]	@ (8001234 <__aeabi_fsub+0x368>)
 80011d0:	4013      	ands	r3, r2
 80011d2:	0852      	lsrs	r2, r2, #1
 80011d4:	400a      	ands	r2, r1
 80011d6:	431a      	orrs	r2, r3
 80011d8:	0013      	movs	r3, r2
 80011da:	4694      	mov	ip, r2
 80011dc:	075b      	lsls	r3, r3, #29
 80011de:	d004      	beq.n	80011ea <__aeabi_fsub+0x31e>
 80011e0:	230f      	movs	r3, #15
 80011e2:	4013      	ands	r3, r2
 80011e4:	2b04      	cmp	r3, #4
 80011e6:	d000      	beq.n	80011ea <__aeabi_fsub+0x31e>
 80011e8:	e6bf      	b.n	8000f6a <__aeabi_fsub+0x9e>
 80011ea:	4663      	mov	r3, ip
 80011ec:	015b      	lsls	r3, r3, #5
 80011ee:	d500      	bpl.n	80011f2 <__aeabi_fsub+0x326>
 80011f0:	e6c2      	b.n	8000f78 <__aeabi_fsub+0xac>
 80011f2:	4663      	mov	r3, ip
 80011f4:	08df      	lsrs	r7, r3, #3
 80011f6:	002b      	movs	r3, r5
 80011f8:	e6e3      	b.n	8000fc2 <__aeabi_fsub+0xf6>
 80011fa:	1b53      	subs	r3, r2, r5
 80011fc:	2d00      	cmp	r5, #0
 80011fe:	d100      	bne.n	8001202 <__aeabi_fsub+0x336>
 8001200:	e6f4      	b.n	8000fec <__aeabi_fsub+0x120>
 8001202:	2080      	movs	r0, #128	@ 0x80
 8001204:	4664      	mov	r4, ip
 8001206:	04c0      	lsls	r0, r0, #19
 8001208:	4304      	orrs	r4, r0
 800120a:	46a4      	mov	ip, r4
 800120c:	0034      	movs	r4, r6
 800120e:	2001      	movs	r0, #1
 8001210:	2b1b      	cmp	r3, #27
 8001212:	dc09      	bgt.n	8001228 <__aeabi_fsub+0x35c>
 8001214:	2520      	movs	r5, #32
 8001216:	4660      	mov	r0, ip
 8001218:	40d8      	lsrs	r0, r3
 800121a:	1aeb      	subs	r3, r5, r3
 800121c:	4665      	mov	r5, ip
 800121e:	409d      	lsls	r5, r3
 8001220:	002b      	movs	r3, r5
 8001222:	1e5d      	subs	r5, r3, #1
 8001224:	41ab      	sbcs	r3, r5
 8001226:	4318      	orrs	r0, r3
 8001228:	1a0b      	subs	r3, r1, r0
 800122a:	469c      	mov	ip, r3
 800122c:	0015      	movs	r5, r2
 800122e:	e680      	b.n	8000f32 <__aeabi_fsub+0x66>
 8001230:	fbffffff 	.word	0xfbffffff
 8001234:	7dffffff 	.word	0x7dffffff
 8001238:	22fe      	movs	r2, #254	@ 0xfe
 800123a:	1c6b      	adds	r3, r5, #1
 800123c:	4213      	tst	r3, r2
 800123e:	d0a3      	beq.n	8001188 <__aeabi_fsub+0x2bc>
 8001240:	2bff      	cmp	r3, #255	@ 0xff
 8001242:	d100      	bne.n	8001246 <__aeabi_fsub+0x37a>
 8001244:	e69c      	b.n	8000f80 <__aeabi_fsub+0xb4>
 8001246:	4461      	add	r1, ip
 8001248:	0849      	lsrs	r1, r1, #1
 800124a:	074a      	lsls	r2, r1, #29
 800124c:	d049      	beq.n	80012e2 <__aeabi_fsub+0x416>
 800124e:	220f      	movs	r2, #15
 8001250:	400a      	ands	r2, r1
 8001252:	2a04      	cmp	r2, #4
 8001254:	d045      	beq.n	80012e2 <__aeabi_fsub+0x416>
 8001256:	1d0a      	adds	r2, r1, #4
 8001258:	4694      	mov	ip, r2
 800125a:	e6ad      	b.n	8000fb8 <__aeabi_fsub+0xec>
 800125c:	2d00      	cmp	r5, #0
 800125e:	d100      	bne.n	8001262 <__aeabi_fsub+0x396>
 8001260:	e776      	b.n	8001150 <__aeabi_fsub+0x284>
 8001262:	e68d      	b.n	8000f80 <__aeabi_fsub+0xb4>
 8001264:	0034      	movs	r4, r6
 8001266:	20ff      	movs	r0, #255	@ 0xff
 8001268:	2200      	movs	r2, #0
 800126a:	e68b      	b.n	8000f84 <__aeabi_fsub+0xb8>
 800126c:	4663      	mov	r3, ip
 800126e:	2401      	movs	r4, #1
 8001270:	1acf      	subs	r7, r1, r3
 8001272:	4034      	ands	r4, r6
 8001274:	e664      	b.n	8000f40 <__aeabi_fsub+0x74>
 8001276:	4461      	add	r1, ip
 8001278:	014b      	lsls	r3, r1, #5
 800127a:	d56d      	bpl.n	8001358 <__aeabi_fsub+0x48c>
 800127c:	0848      	lsrs	r0, r1, #1
 800127e:	4944      	ldr	r1, [pc, #272]	@ (8001390 <__aeabi_fsub+0x4c4>)
 8001280:	4001      	ands	r1, r0
 8001282:	0743      	lsls	r3, r0, #29
 8001284:	d02c      	beq.n	80012e0 <__aeabi_fsub+0x414>
 8001286:	230f      	movs	r3, #15
 8001288:	4003      	ands	r3, r0
 800128a:	2b04      	cmp	r3, #4
 800128c:	d028      	beq.n	80012e0 <__aeabi_fsub+0x414>
 800128e:	1d0b      	adds	r3, r1, #4
 8001290:	469c      	mov	ip, r3
 8001292:	2302      	movs	r3, #2
 8001294:	e690      	b.n	8000fb8 <__aeabi_fsub+0xec>
 8001296:	2900      	cmp	r1, #0
 8001298:	d100      	bne.n	800129c <__aeabi_fsub+0x3d0>
 800129a:	e72b      	b.n	80010f4 <__aeabi_fsub+0x228>
 800129c:	2380      	movs	r3, #128	@ 0x80
 800129e:	03db      	lsls	r3, r3, #15
 80012a0:	429f      	cmp	r7, r3
 80012a2:	d200      	bcs.n	80012a6 <__aeabi_fsub+0x3da>
 80012a4:	e726      	b.n	80010f4 <__aeabi_fsub+0x228>
 80012a6:	4298      	cmp	r0, r3
 80012a8:	d300      	bcc.n	80012ac <__aeabi_fsub+0x3e0>
 80012aa:	e723      	b.n	80010f4 <__aeabi_fsub+0x228>
 80012ac:	2401      	movs	r4, #1
 80012ae:	4034      	ands	r4, r6
 80012b0:	0007      	movs	r7, r0
 80012b2:	e71f      	b.n	80010f4 <__aeabi_fsub+0x228>
 80012b4:	0034      	movs	r4, r6
 80012b6:	468c      	mov	ip, r1
 80012b8:	e67e      	b.n	8000fb8 <__aeabi_fsub+0xec>
 80012ba:	2301      	movs	r3, #1
 80012bc:	08cf      	lsrs	r7, r1, #3
 80012be:	e680      	b.n	8000fc2 <__aeabi_fsub+0xf6>
 80012c0:	2300      	movs	r3, #0
 80012c2:	e67e      	b.n	8000fc2 <__aeabi_fsub+0xf6>
 80012c4:	2020      	movs	r0, #32
 80012c6:	4665      	mov	r5, ip
 80012c8:	1b80      	subs	r0, r0, r6
 80012ca:	4085      	lsls	r5, r0
 80012cc:	4663      	mov	r3, ip
 80012ce:	0028      	movs	r0, r5
 80012d0:	40f3      	lsrs	r3, r6
 80012d2:	1e45      	subs	r5, r0, #1
 80012d4:	41a8      	sbcs	r0, r5
 80012d6:	4303      	orrs	r3, r0
 80012d8:	469c      	mov	ip, r3
 80012da:	0015      	movs	r5, r2
 80012dc:	448c      	add	ip, r1
 80012de:	e76d      	b.n	80011bc <__aeabi_fsub+0x2f0>
 80012e0:	2302      	movs	r3, #2
 80012e2:	08cf      	lsrs	r7, r1, #3
 80012e4:	e66d      	b.n	8000fc2 <__aeabi_fsub+0xf6>
 80012e6:	1b0f      	subs	r7, r1, r4
 80012e8:	017b      	lsls	r3, r7, #5
 80012ea:	d528      	bpl.n	800133e <__aeabi_fsub+0x472>
 80012ec:	01bf      	lsls	r7, r7, #6
 80012ee:	09bf      	lsrs	r7, r7, #6
 80012f0:	0038      	movs	r0, r7
 80012f2:	f000 f91b 	bl	800152c <__clzsi2>
 80012f6:	003b      	movs	r3, r7
 80012f8:	3805      	subs	r0, #5
 80012fa:	4083      	lsls	r3, r0
 80012fc:	0034      	movs	r4, r6
 80012fe:	2501      	movs	r5, #1
 8001300:	e6ca      	b.n	8001098 <__aeabi_fsub+0x1cc>
 8001302:	2900      	cmp	r1, #0
 8001304:	d100      	bne.n	8001308 <__aeabi_fsub+0x43c>
 8001306:	e6b5      	b.n	8001074 <__aeabi_fsub+0x1a8>
 8001308:	2401      	movs	r4, #1
 800130a:	0007      	movs	r7, r0
 800130c:	4034      	ands	r4, r6
 800130e:	e658      	b.n	8000fc2 <__aeabi_fsub+0xf6>
 8001310:	4663      	mov	r3, ip
 8001312:	2b00      	cmp	r3, #0
 8001314:	d100      	bne.n	8001318 <__aeabi_fsub+0x44c>
 8001316:	e6e9      	b.n	80010ec <__aeabi_fsub+0x220>
 8001318:	2900      	cmp	r1, #0
 800131a:	d100      	bne.n	800131e <__aeabi_fsub+0x452>
 800131c:	e6ea      	b.n	80010f4 <__aeabi_fsub+0x228>
 800131e:	2380      	movs	r3, #128	@ 0x80
 8001320:	03db      	lsls	r3, r3, #15
 8001322:	429f      	cmp	r7, r3
 8001324:	d200      	bcs.n	8001328 <__aeabi_fsub+0x45c>
 8001326:	e6e5      	b.n	80010f4 <__aeabi_fsub+0x228>
 8001328:	4298      	cmp	r0, r3
 800132a:	d300      	bcc.n	800132e <__aeabi_fsub+0x462>
 800132c:	e6e2      	b.n	80010f4 <__aeabi_fsub+0x228>
 800132e:	0007      	movs	r7, r0
 8001330:	e6e0      	b.n	80010f4 <__aeabi_fsub+0x228>
 8001332:	2900      	cmp	r1, #0
 8001334:	d100      	bne.n	8001338 <__aeabi_fsub+0x46c>
 8001336:	e69e      	b.n	8001076 <__aeabi_fsub+0x1aa>
 8001338:	2300      	movs	r3, #0
 800133a:	08cf      	lsrs	r7, r1, #3
 800133c:	e641      	b.n	8000fc2 <__aeabi_fsub+0xf6>
 800133e:	0034      	movs	r4, r6
 8001340:	2301      	movs	r3, #1
 8001342:	08ff      	lsrs	r7, r7, #3
 8001344:	e63d      	b.n	8000fc2 <__aeabi_fsub+0xf6>
 8001346:	2f00      	cmp	r7, #0
 8001348:	d100      	bne.n	800134c <__aeabi_fsub+0x480>
 800134a:	e693      	b.n	8001074 <__aeabi_fsub+0x1a8>
 800134c:	2300      	movs	r3, #0
 800134e:	08ff      	lsrs	r7, r7, #3
 8001350:	e637      	b.n	8000fc2 <__aeabi_fsub+0xf6>
 8001352:	2300      	movs	r3, #0
 8001354:	08d7      	lsrs	r7, r2, #3
 8001356:	e634      	b.n	8000fc2 <__aeabi_fsub+0xf6>
 8001358:	2301      	movs	r3, #1
 800135a:	08cf      	lsrs	r7, r1, #3
 800135c:	e631      	b.n	8000fc2 <__aeabi_fsub+0xf6>
 800135e:	2280      	movs	r2, #128	@ 0x80
 8001360:	000b      	movs	r3, r1
 8001362:	04d2      	lsls	r2, r2, #19
 8001364:	2001      	movs	r0, #1
 8001366:	4013      	ands	r3, r2
 8001368:	4211      	tst	r1, r2
 800136a:	d000      	beq.n	800136e <__aeabi_fsub+0x4a2>
 800136c:	e6ae      	b.n	80010cc <__aeabi_fsub+0x200>
 800136e:	08cf      	lsrs	r7, r1, #3
 8001370:	e627      	b.n	8000fc2 <__aeabi_fsub+0xf6>
 8001372:	2b00      	cmp	r3, #0
 8001374:	d100      	bne.n	8001378 <__aeabi_fsub+0x4ac>
 8001376:	e75f      	b.n	8001238 <__aeabi_fsub+0x36c>
 8001378:	1b56      	subs	r6, r2, r5
 800137a:	2d00      	cmp	r5, #0
 800137c:	d101      	bne.n	8001382 <__aeabi_fsub+0x4b6>
 800137e:	0033      	movs	r3, r6
 8001380:	e6e7      	b.n	8001152 <__aeabi_fsub+0x286>
 8001382:	2380      	movs	r3, #128	@ 0x80
 8001384:	4660      	mov	r0, ip
 8001386:	04db      	lsls	r3, r3, #19
 8001388:	4318      	orrs	r0, r3
 800138a:	4684      	mov	ip, r0
 800138c:	e6eb      	b.n	8001166 <__aeabi_fsub+0x29a>
 800138e:	46c0      	nop			@ (mov r8, r8)
 8001390:	7dffffff 	.word	0x7dffffff

08001394 <__aeabi_fcmpun>:
 8001394:	0243      	lsls	r3, r0, #9
 8001396:	024a      	lsls	r2, r1, #9
 8001398:	0040      	lsls	r0, r0, #1
 800139a:	0049      	lsls	r1, r1, #1
 800139c:	0a5b      	lsrs	r3, r3, #9
 800139e:	0a52      	lsrs	r2, r2, #9
 80013a0:	0e09      	lsrs	r1, r1, #24
 80013a2:	0e00      	lsrs	r0, r0, #24
 80013a4:	28ff      	cmp	r0, #255	@ 0xff
 80013a6:	d006      	beq.n	80013b6 <__aeabi_fcmpun+0x22>
 80013a8:	2000      	movs	r0, #0
 80013aa:	29ff      	cmp	r1, #255	@ 0xff
 80013ac:	d102      	bne.n	80013b4 <__aeabi_fcmpun+0x20>
 80013ae:	1e53      	subs	r3, r2, #1
 80013b0:	419a      	sbcs	r2, r3
 80013b2:	0010      	movs	r0, r2
 80013b4:	4770      	bx	lr
 80013b6:	38fe      	subs	r0, #254	@ 0xfe
 80013b8:	2b00      	cmp	r3, #0
 80013ba:	d1fb      	bne.n	80013b4 <__aeabi_fcmpun+0x20>
 80013bc:	e7f4      	b.n	80013a8 <__aeabi_fcmpun+0x14>
 80013be:	46c0      	nop			@ (mov r8, r8)

080013c0 <__aeabi_f2iz>:
 80013c0:	0241      	lsls	r1, r0, #9
 80013c2:	0042      	lsls	r2, r0, #1
 80013c4:	0fc3      	lsrs	r3, r0, #31
 80013c6:	0a49      	lsrs	r1, r1, #9
 80013c8:	2000      	movs	r0, #0
 80013ca:	0e12      	lsrs	r2, r2, #24
 80013cc:	2a7e      	cmp	r2, #126	@ 0x7e
 80013ce:	dd03      	ble.n	80013d8 <__aeabi_f2iz+0x18>
 80013d0:	2a9d      	cmp	r2, #157	@ 0x9d
 80013d2:	dd02      	ble.n	80013da <__aeabi_f2iz+0x1a>
 80013d4:	4a09      	ldr	r2, [pc, #36]	@ (80013fc <__aeabi_f2iz+0x3c>)
 80013d6:	1898      	adds	r0, r3, r2
 80013d8:	4770      	bx	lr
 80013da:	2080      	movs	r0, #128	@ 0x80
 80013dc:	0400      	lsls	r0, r0, #16
 80013de:	4301      	orrs	r1, r0
 80013e0:	2a95      	cmp	r2, #149	@ 0x95
 80013e2:	dc07      	bgt.n	80013f4 <__aeabi_f2iz+0x34>
 80013e4:	2096      	movs	r0, #150	@ 0x96
 80013e6:	1a82      	subs	r2, r0, r2
 80013e8:	40d1      	lsrs	r1, r2
 80013ea:	4248      	negs	r0, r1
 80013ec:	2b00      	cmp	r3, #0
 80013ee:	d1f3      	bne.n	80013d8 <__aeabi_f2iz+0x18>
 80013f0:	0008      	movs	r0, r1
 80013f2:	e7f1      	b.n	80013d8 <__aeabi_f2iz+0x18>
 80013f4:	3a96      	subs	r2, #150	@ 0x96
 80013f6:	4091      	lsls	r1, r2
 80013f8:	e7f7      	b.n	80013ea <__aeabi_f2iz+0x2a>
 80013fa:	46c0      	nop			@ (mov r8, r8)
 80013fc:	7fffffff 	.word	0x7fffffff

08001400 <__aeabi_i2f>:
 8001400:	b570      	push	{r4, r5, r6, lr}
 8001402:	2800      	cmp	r0, #0
 8001404:	d012      	beq.n	800142c <__aeabi_i2f+0x2c>
 8001406:	17c3      	asrs	r3, r0, #31
 8001408:	18c5      	adds	r5, r0, r3
 800140a:	405d      	eors	r5, r3
 800140c:	0fc4      	lsrs	r4, r0, #31
 800140e:	0028      	movs	r0, r5
 8001410:	f000 f88c 	bl	800152c <__clzsi2>
 8001414:	239e      	movs	r3, #158	@ 0x9e
 8001416:	1a1b      	subs	r3, r3, r0
 8001418:	2b96      	cmp	r3, #150	@ 0x96
 800141a:	dc0f      	bgt.n	800143c <__aeabi_i2f+0x3c>
 800141c:	2808      	cmp	r0, #8
 800141e:	d038      	beq.n	8001492 <__aeabi_i2f+0x92>
 8001420:	3808      	subs	r0, #8
 8001422:	4085      	lsls	r5, r0
 8001424:	026d      	lsls	r5, r5, #9
 8001426:	0a6d      	lsrs	r5, r5, #9
 8001428:	b2d8      	uxtb	r0, r3
 800142a:	e002      	b.n	8001432 <__aeabi_i2f+0x32>
 800142c:	2400      	movs	r4, #0
 800142e:	2000      	movs	r0, #0
 8001430:	2500      	movs	r5, #0
 8001432:	05c0      	lsls	r0, r0, #23
 8001434:	4328      	orrs	r0, r5
 8001436:	07e4      	lsls	r4, r4, #31
 8001438:	4320      	orrs	r0, r4
 800143a:	bd70      	pop	{r4, r5, r6, pc}
 800143c:	2b99      	cmp	r3, #153	@ 0x99
 800143e:	dc14      	bgt.n	800146a <__aeabi_i2f+0x6a>
 8001440:	1f42      	subs	r2, r0, #5
 8001442:	4095      	lsls	r5, r2
 8001444:	002a      	movs	r2, r5
 8001446:	4915      	ldr	r1, [pc, #84]	@ (800149c <__aeabi_i2f+0x9c>)
 8001448:	4011      	ands	r1, r2
 800144a:	0755      	lsls	r5, r2, #29
 800144c:	d01c      	beq.n	8001488 <__aeabi_i2f+0x88>
 800144e:	250f      	movs	r5, #15
 8001450:	402a      	ands	r2, r5
 8001452:	2a04      	cmp	r2, #4
 8001454:	d018      	beq.n	8001488 <__aeabi_i2f+0x88>
 8001456:	3104      	adds	r1, #4
 8001458:	08ca      	lsrs	r2, r1, #3
 800145a:	0149      	lsls	r1, r1, #5
 800145c:	d515      	bpl.n	800148a <__aeabi_i2f+0x8a>
 800145e:	239f      	movs	r3, #159	@ 0x9f
 8001460:	0252      	lsls	r2, r2, #9
 8001462:	1a18      	subs	r0, r3, r0
 8001464:	0a55      	lsrs	r5, r2, #9
 8001466:	b2c0      	uxtb	r0, r0
 8001468:	e7e3      	b.n	8001432 <__aeabi_i2f+0x32>
 800146a:	2205      	movs	r2, #5
 800146c:	0029      	movs	r1, r5
 800146e:	1a12      	subs	r2, r2, r0
 8001470:	40d1      	lsrs	r1, r2
 8001472:	0002      	movs	r2, r0
 8001474:	321b      	adds	r2, #27
 8001476:	4095      	lsls	r5, r2
 8001478:	002a      	movs	r2, r5
 800147a:	1e55      	subs	r5, r2, #1
 800147c:	41aa      	sbcs	r2, r5
 800147e:	430a      	orrs	r2, r1
 8001480:	4906      	ldr	r1, [pc, #24]	@ (800149c <__aeabi_i2f+0x9c>)
 8001482:	4011      	ands	r1, r2
 8001484:	0755      	lsls	r5, r2, #29
 8001486:	d1e2      	bne.n	800144e <__aeabi_i2f+0x4e>
 8001488:	08ca      	lsrs	r2, r1, #3
 800148a:	0252      	lsls	r2, r2, #9
 800148c:	0a55      	lsrs	r5, r2, #9
 800148e:	b2d8      	uxtb	r0, r3
 8001490:	e7cf      	b.n	8001432 <__aeabi_i2f+0x32>
 8001492:	026d      	lsls	r5, r5, #9
 8001494:	0a6d      	lsrs	r5, r5, #9
 8001496:	308e      	adds	r0, #142	@ 0x8e
 8001498:	e7cb      	b.n	8001432 <__aeabi_i2f+0x32>
 800149a:	46c0      	nop			@ (mov r8, r8)
 800149c:	fbffffff 	.word	0xfbffffff

080014a0 <__aeabi_ui2f>:
 80014a0:	b510      	push	{r4, lr}
 80014a2:	1e04      	subs	r4, r0, #0
 80014a4:	d00d      	beq.n	80014c2 <__aeabi_ui2f+0x22>
 80014a6:	f000 f841 	bl	800152c <__clzsi2>
 80014aa:	239e      	movs	r3, #158	@ 0x9e
 80014ac:	1a1b      	subs	r3, r3, r0
 80014ae:	2b96      	cmp	r3, #150	@ 0x96
 80014b0:	dc0c      	bgt.n	80014cc <__aeabi_ui2f+0x2c>
 80014b2:	2808      	cmp	r0, #8
 80014b4:	d034      	beq.n	8001520 <__aeabi_ui2f+0x80>
 80014b6:	3808      	subs	r0, #8
 80014b8:	4084      	lsls	r4, r0
 80014ba:	0264      	lsls	r4, r4, #9
 80014bc:	0a64      	lsrs	r4, r4, #9
 80014be:	b2d8      	uxtb	r0, r3
 80014c0:	e001      	b.n	80014c6 <__aeabi_ui2f+0x26>
 80014c2:	2000      	movs	r0, #0
 80014c4:	2400      	movs	r4, #0
 80014c6:	05c0      	lsls	r0, r0, #23
 80014c8:	4320      	orrs	r0, r4
 80014ca:	bd10      	pop	{r4, pc}
 80014cc:	2b99      	cmp	r3, #153	@ 0x99
 80014ce:	dc13      	bgt.n	80014f8 <__aeabi_ui2f+0x58>
 80014d0:	1f42      	subs	r2, r0, #5
 80014d2:	4094      	lsls	r4, r2
 80014d4:	4a14      	ldr	r2, [pc, #80]	@ (8001528 <__aeabi_ui2f+0x88>)
 80014d6:	4022      	ands	r2, r4
 80014d8:	0761      	lsls	r1, r4, #29
 80014da:	d01c      	beq.n	8001516 <__aeabi_ui2f+0x76>
 80014dc:	210f      	movs	r1, #15
 80014de:	4021      	ands	r1, r4
 80014e0:	2904      	cmp	r1, #4
 80014e2:	d018      	beq.n	8001516 <__aeabi_ui2f+0x76>
 80014e4:	3204      	adds	r2, #4
 80014e6:	08d4      	lsrs	r4, r2, #3
 80014e8:	0152      	lsls	r2, r2, #5
 80014ea:	d515      	bpl.n	8001518 <__aeabi_ui2f+0x78>
 80014ec:	239f      	movs	r3, #159	@ 0x9f
 80014ee:	0264      	lsls	r4, r4, #9
 80014f0:	1a18      	subs	r0, r3, r0
 80014f2:	0a64      	lsrs	r4, r4, #9
 80014f4:	b2c0      	uxtb	r0, r0
 80014f6:	e7e6      	b.n	80014c6 <__aeabi_ui2f+0x26>
 80014f8:	0002      	movs	r2, r0
 80014fa:	0021      	movs	r1, r4
 80014fc:	321b      	adds	r2, #27
 80014fe:	4091      	lsls	r1, r2
 8001500:	000a      	movs	r2, r1
 8001502:	1e51      	subs	r1, r2, #1
 8001504:	418a      	sbcs	r2, r1
 8001506:	2105      	movs	r1, #5
 8001508:	1a09      	subs	r1, r1, r0
 800150a:	40cc      	lsrs	r4, r1
 800150c:	4314      	orrs	r4, r2
 800150e:	4a06      	ldr	r2, [pc, #24]	@ (8001528 <__aeabi_ui2f+0x88>)
 8001510:	4022      	ands	r2, r4
 8001512:	0761      	lsls	r1, r4, #29
 8001514:	d1e2      	bne.n	80014dc <__aeabi_ui2f+0x3c>
 8001516:	08d4      	lsrs	r4, r2, #3
 8001518:	0264      	lsls	r4, r4, #9
 800151a:	0a64      	lsrs	r4, r4, #9
 800151c:	b2d8      	uxtb	r0, r3
 800151e:	e7d2      	b.n	80014c6 <__aeabi_ui2f+0x26>
 8001520:	0264      	lsls	r4, r4, #9
 8001522:	0a64      	lsrs	r4, r4, #9
 8001524:	308e      	adds	r0, #142	@ 0x8e
 8001526:	e7ce      	b.n	80014c6 <__aeabi_ui2f+0x26>
 8001528:	fbffffff 	.word	0xfbffffff

0800152c <__clzsi2>:
 800152c:	211c      	movs	r1, #28
 800152e:	2301      	movs	r3, #1
 8001530:	041b      	lsls	r3, r3, #16
 8001532:	4298      	cmp	r0, r3
 8001534:	d301      	bcc.n	800153a <__clzsi2+0xe>
 8001536:	0c00      	lsrs	r0, r0, #16
 8001538:	3910      	subs	r1, #16
 800153a:	0a1b      	lsrs	r3, r3, #8
 800153c:	4298      	cmp	r0, r3
 800153e:	d301      	bcc.n	8001544 <__clzsi2+0x18>
 8001540:	0a00      	lsrs	r0, r0, #8
 8001542:	3908      	subs	r1, #8
 8001544:	091b      	lsrs	r3, r3, #4
 8001546:	4298      	cmp	r0, r3
 8001548:	d301      	bcc.n	800154e <__clzsi2+0x22>
 800154a:	0900      	lsrs	r0, r0, #4
 800154c:	3904      	subs	r1, #4
 800154e:	a202      	add	r2, pc, #8	@ (adr r2, 8001558 <__clzsi2+0x2c>)
 8001550:	5c10      	ldrb	r0, [r2, r0]
 8001552:	1840      	adds	r0, r0, r1
 8001554:	4770      	bx	lr
 8001556:	46c0      	nop			@ (mov r8, r8)
 8001558:	02020304 	.word	0x02020304
 800155c:	01010101 	.word	0x01010101
	...

08001568 <mm_to_m>:
static uint16_t next_index = 0;      // next index for lookahead
static float lastV = 0.0f;           // for ramping
static uint32_t now_ms = 0;

// helpers
static float mm_to_m(int16_t mm) { return ((float)mm) / 1000.0f; }
 8001568:	b580      	push	{r7, lr}
 800156a:	b082      	sub	sp, #8
 800156c:	af00      	add	r7, sp, #0
 800156e:	0002      	movs	r2, r0
 8001570:	1dbb      	adds	r3, r7, #6
 8001572:	801a      	strh	r2, [r3, #0]
 8001574:	1dbb      	adds	r3, r7, #6
 8001576:	2200      	movs	r2, #0
 8001578:	5e9b      	ldrsh	r3, [r3, r2]
 800157a:	0018      	movs	r0, r3
 800157c:	f7ff ff40 	bl	8001400 <__aeabi_i2f>
 8001580:	1c03      	adds	r3, r0, #0
 8001582:	4904      	ldr	r1, [pc, #16]	@ (8001594 <mm_to_m+0x2c>)
 8001584:	1c18      	adds	r0, r3, #0
 8001586:	f7ff f979 	bl	800087c <__aeabi_fdiv>
 800158a:	1c03      	adds	r3, r0, #0
 800158c:	1c18      	adds	r0, r3, #0
 800158e:	46bd      	mov	sp, r7
 8001590:	b002      	add	sp, #8
 8001592:	bd80      	pop	{r7, pc}
 8001594:	447a0000 	.word	0x447a0000

08001598 <point_x_m>:
static float point_x_m(uint16_t idx) { return mm_to_m(pathX[idx]); }
 8001598:	b580      	push	{r7, lr}
 800159a:	b082      	sub	sp, #8
 800159c:	af00      	add	r7, sp, #0
 800159e:	0002      	movs	r2, r0
 80015a0:	1dbb      	adds	r3, r7, #6
 80015a2:	801a      	strh	r2, [r3, #0]
 80015a4:	1dbb      	adds	r3, r7, #6
 80015a6:	881a      	ldrh	r2, [r3, #0]
 80015a8:	4b05      	ldr	r3, [pc, #20]	@ (80015c0 <point_x_m+0x28>)
 80015aa:	0052      	lsls	r2, r2, #1
 80015ac:	5ed3      	ldrsh	r3, [r2, r3]
 80015ae:	0018      	movs	r0, r3
 80015b0:	f7ff ffda 	bl	8001568 <mm_to_m>
 80015b4:	1c03      	adds	r3, r0, #0
 80015b6:	1c18      	adds	r0, r3, #0
 80015b8:	46bd      	mov	sp, r7
 80015ba:	b002      	add	sp, #8
 80015bc:	bd80      	pop	{r7, pc}
 80015be:	46c0      	nop			@ (mov r8, r8)
 80015c0:	20000108 	.word	0x20000108

080015c4 <point_y_m>:
static float point_y_m(uint16_t idx) { return mm_to_m(pathY[idx]); }
 80015c4:	b580      	push	{r7, lr}
 80015c6:	b082      	sub	sp, #8
 80015c8:	af00      	add	r7, sp, #0
 80015ca:	0002      	movs	r2, r0
 80015cc:	1dbb      	adds	r3, r7, #6
 80015ce:	801a      	strh	r2, [r3, #0]
 80015d0:	1dbb      	adds	r3, r7, #6
 80015d2:	881a      	ldrh	r2, [r3, #0]
 80015d4:	4b05      	ldr	r3, [pc, #20]	@ (80015ec <point_y_m+0x28>)
 80015d6:	0052      	lsls	r2, r2, #1
 80015d8:	5ed3      	ldrsh	r3, [r2, r3]
 80015da:	0018      	movs	r0, r3
 80015dc:	f7ff ffc4 	bl	8001568 <mm_to_m>
 80015e0:	1c03      	adds	r3, r0, #0
 80015e2:	1c18      	adds	r0, r3, #0
 80015e4:	46bd      	mov	sp, r7
 80015e6:	b002      	add	sp, #8
 80015e8:	bd80      	pop	{r7, pc}
 80015ea:	46c0      	nop			@ (mov r8, r8)
 80015ec:	200004f0 	.word	0x200004f0

080015f0 <norm_deg>:

// normalize angle to [-180,180]
static float norm_deg(float ang) {
 80015f0:	b580      	push	{r7, lr}
 80015f2:	b082      	sub	sp, #8
 80015f4:	af00      	add	r7, sp, #0
 80015f6:	6078      	str	r0, [r7, #4]
    while (ang > 180.0f) ang -= 360.0f;
 80015f8:	e005      	b.n	8001606 <norm_deg+0x16>
 80015fa:	490f      	ldr	r1, [pc, #60]	@ (8001638 <norm_deg+0x48>)
 80015fc:	6878      	ldr	r0, [r7, #4]
 80015fe:	f7ff fc65 	bl	8000ecc <__aeabi_fsub>
 8001602:	1c03      	adds	r3, r0, #0
 8001604:	607b      	str	r3, [r7, #4]
 8001606:	490d      	ldr	r1, [pc, #52]	@ (800163c <norm_deg+0x4c>)
 8001608:	6878      	ldr	r0, [r7, #4]
 800160a:	f7fe ff19 	bl	8000440 <__aeabi_fcmpgt>
 800160e:	1e03      	subs	r3, r0, #0
 8001610:	d1f3      	bne.n	80015fa <norm_deg+0xa>
    while (ang <= -180.0f) ang += 360.0f;
 8001612:	e005      	b.n	8001620 <norm_deg+0x30>
 8001614:	4908      	ldr	r1, [pc, #32]	@ (8001638 <norm_deg+0x48>)
 8001616:	6878      	ldr	r0, [r7, #4]
 8001618:	f7fe ff3e 	bl	8000498 <__aeabi_fadd>
 800161c:	1c03      	adds	r3, r0, #0
 800161e:	607b      	str	r3, [r7, #4]
 8001620:	4907      	ldr	r1, [pc, #28]	@ (8001640 <norm_deg+0x50>)
 8001622:	6878      	ldr	r0, [r7, #4]
 8001624:	f7fe ff02 	bl	800042c <__aeabi_fcmple>
 8001628:	1e03      	subs	r3, r0, #0
 800162a:	d1f3      	bne.n	8001614 <norm_deg+0x24>
    return ang;
 800162c:	687b      	ldr	r3, [r7, #4]
}
 800162e:	1c18      	adds	r0, r3, #0
 8001630:	46bd      	mov	sp, r7
 8001632:	b002      	add	sp, #8
 8001634:	bd80      	pop	{r7, pc}
 8001636:	46c0      	nop			@ (mov r8, r8)
 8001638:	43b40000 	.word	0x43b40000
 800163c:	43340000 	.word	0x43340000
 8001640:	c3340000 	.word	0xc3340000

08001644 <dist2d>:

// minimal absolute value
static float abs_f(float x) { return x < 0 ? -x : x; }

// compute Euclidean distance
static float dist2d(float ax, float ay, float bx, float by) {
 8001644:	b590      	push	{r4, r7, lr}
 8001646:	b087      	sub	sp, #28
 8001648:	af00      	add	r7, sp, #0
 800164a:	60f8      	str	r0, [r7, #12]
 800164c:	60b9      	str	r1, [r7, #8]
 800164e:	607a      	str	r2, [r7, #4]
 8001650:	603b      	str	r3, [r7, #0]
    float dx = bx - ax;
 8001652:	68f9      	ldr	r1, [r7, #12]
 8001654:	6878      	ldr	r0, [r7, #4]
 8001656:	f7ff fc39 	bl	8000ecc <__aeabi_fsub>
 800165a:	1c03      	adds	r3, r0, #0
 800165c:	617b      	str	r3, [r7, #20]
    float dy = by - ay;
 800165e:	68b9      	ldr	r1, [r7, #8]
 8001660:	6838      	ldr	r0, [r7, #0]
 8001662:	f7ff fc33 	bl	8000ecc <__aeabi_fsub>
 8001666:	1c03      	adds	r3, r0, #0
 8001668:	613b      	str	r3, [r7, #16]
    return sqrtf(dx*dx + dy*dy);
 800166a:	6979      	ldr	r1, [r7, #20]
 800166c:	6978      	ldr	r0, [r7, #20]
 800166e:	f7ff fad3 	bl	8000c18 <__aeabi_fmul>
 8001672:	1c03      	adds	r3, r0, #0
 8001674:	1c1c      	adds	r4, r3, #0
 8001676:	6939      	ldr	r1, [r7, #16]
 8001678:	6938      	ldr	r0, [r7, #16]
 800167a:	f7ff facd 	bl	8000c18 <__aeabi_fmul>
 800167e:	1c03      	adds	r3, r0, #0
 8001680:	1c19      	adds	r1, r3, #0
 8001682:	1c20      	adds	r0, r4, #0
 8001684:	f7fe ff08 	bl	8000498 <__aeabi_fadd>
 8001688:	1c03      	adds	r3, r0, #0
 800168a:	1c18      	adds	r0, r3, #0
 800168c:	f004 f86a 	bl	8005764 <sqrtf>
 8001690:	1c03      	adds	r3, r0, #0
}
 8001692:	1c18      	adds	r0, r3, #0
 8001694:	46bd      	mov	sp, r7
 8001696:	b007      	add	sp, #28
 8001698:	bd90      	pop	{r4, r7, pc}
	...

0800169c <angle_from_pose_to_point_deg>:
    float a = atan2f(dy, dx) * RAD_TO_DEG;
    return norm_deg(a);
}

// compute angle from current robot position to a target point (degrees)
static float angle_from_pose_to_point_deg(float rx, float ry, float tx, float ty) {
 800169c:	b580      	push	{r7, lr}
 800169e:	b088      	sub	sp, #32
 80016a0:	af00      	add	r7, sp, #0
 80016a2:	60f8      	str	r0, [r7, #12]
 80016a4:	60b9      	str	r1, [r7, #8]
 80016a6:	607a      	str	r2, [r7, #4]
 80016a8:	603b      	str	r3, [r7, #0]
    float dx = tx - rx;
 80016aa:	68f9      	ldr	r1, [r7, #12]
 80016ac:	6878      	ldr	r0, [r7, #4]
 80016ae:	f7ff fc0d 	bl	8000ecc <__aeabi_fsub>
 80016b2:	1c03      	adds	r3, r0, #0
 80016b4:	61fb      	str	r3, [r7, #28]
    float dy = ty - ry;
 80016b6:	68b9      	ldr	r1, [r7, #8]
 80016b8:	6838      	ldr	r0, [r7, #0]
 80016ba:	f7ff fc07 	bl	8000ecc <__aeabi_fsub>
 80016be:	1c03      	adds	r3, r0, #0
 80016c0:	61bb      	str	r3, [r7, #24]
    float a = atan2f(dy, dx) * RAD_TO_DEG;
 80016c2:	69fa      	ldr	r2, [r7, #28]
 80016c4:	69bb      	ldr	r3, [r7, #24]
 80016c6:	1c11      	adds	r1, r2, #0
 80016c8:	1c18      	adds	r0, r3, #0
 80016ca:	f004 f847 	bl	800575c <atan2f>
 80016ce:	1c03      	adds	r3, r0, #0
 80016d0:	4907      	ldr	r1, [pc, #28]	@ (80016f0 <angle_from_pose_to_point_deg+0x54>)
 80016d2:	1c18      	adds	r0, r3, #0
 80016d4:	f7ff faa0 	bl	8000c18 <__aeabi_fmul>
 80016d8:	1c03      	adds	r3, r0, #0
 80016da:	617b      	str	r3, [r7, #20]
    return norm_deg(a);
 80016dc:	697b      	ldr	r3, [r7, #20]
 80016de:	1c18      	adds	r0, r3, #0
 80016e0:	f7ff ff86 	bl	80015f0 <norm_deg>
 80016e4:	1c03      	adds	r3, r0, #0
}
 80016e6:	1c18      	adds	r0, r3, #0
 80016e8:	46bd      	mov	sp, r7
 80016ea:	b008      	add	sp, #32
 80016ec:	bd80      	pop	{r7, pc}
 80016ee:	46c0      	nop			@ (mov r8, r8)
 80016f0:	42652ee6 	.word	0x42652ee6

080016f4 <apply_drive_refs>:

// set low-level drive outputs using global V_req, W_req
static void apply_drive_refs(void) {
 80016f4:	b580      	push	{r7, lr}
 80016f6:	af00      	add	r7, sp, #0
    // V_req and W_req are globals used by VW_DifferentialDrive
    // Call the mapping function to set wheel RPM references
    VW_DifferentialDrive(V_req, W_req);
 80016f8:	4b05      	ldr	r3, [pc, #20]	@ (8001710 <apply_drive_refs+0x1c>)
 80016fa:	681a      	ldr	r2, [r3, #0]
 80016fc:	4b05      	ldr	r3, [pc, #20]	@ (8001714 <apply_drive_refs+0x20>)
 80016fe:	681b      	ldr	r3, [r3, #0]
 8001700:	1c19      	adds	r1, r3, #0
 8001702:	1c10      	adds	r0, r2, #0
 8001704:	f003 fbac 	bl	8004e60 <VW_DifferentialDrive>
}
 8001708:	46c0      	nop			@ (mov r8, r8)
 800170a:	46bd      	mov	sp, r7
 800170c:	bd80      	pop	{r7, pc}
 800170e:	46c0      	nop			@ (mov r8, r8)
 8001710:	200009fc 	.word	0x200009fc
 8001714:	20000a00 	.word	0x20000a00

08001718 <resetAMR>:

// reset internals
void resetAMR(void) {
 8001718:	b580      	push	{r7, lr}
 800171a:	af00      	add	r7, sp, #0
    // stop motion
    V_req = 0.0f;
 800171c:	4b0d      	ldr	r3, [pc, #52]	@ (8001754 <resetAMR+0x3c>)
 800171e:	2200      	movs	r2, #0
 8001720:	601a      	str	r2, [r3, #0]
    W_req = 0.0f;
 8001722:	4b0d      	ldr	r3, [pc, #52]	@ (8001758 <resetAMR+0x40>)
 8001724:	2200      	movs	r2, #0
 8001726:	601a      	str	r2, [r3, #0]
    apply_drive_refs();
 8001728:	f7ff ffe4 	bl	80016f4 <apply_drive_refs>

    // reset indices & flags
    current_index = 0;
 800172c:	4b0b      	ldr	r3, [pc, #44]	@ (800175c <resetAMR+0x44>)
 800172e:	2200      	movs	r2, #0
 8001730:	801a      	strh	r2, [r3, #0]
    next_index = 0;
 8001732:	4b0b      	ldr	r3, [pc, #44]	@ (8001760 <resetAMR+0x48>)
 8001734:	2200      	movs	r2, #0
 8001736:	801a      	strh	r2, [r3, #0]
    lastV = 0.0f;
 8001738:	4b0a      	ldr	r3, [pc, #40]	@ (8001764 <resetAMR+0x4c>)
 800173a:	2200      	movs	r2, #0
 800173c:	601a      	str	r2, [r3, #0]

    // reset odometry & imu (user-provided function)
    Reset_x_y();
 800173e:	f003 f87d 	bl	800483c <Reset_x_y>

    // go to idle
    state = AMR_IDLE;
 8001742:	4b09      	ldr	r3, [pc, #36]	@ (8001768 <resetAMR+0x50>)
 8001744:	2200      	movs	r2, #0
 8001746:	701a      	strb	r2, [r3, #0]
    amr_active = 0;
 8001748:	4b08      	ldr	r3, [pc, #32]	@ (800176c <resetAMR+0x54>)
 800174a:	2200      	movs	r2, #0
 800174c:	701a      	strb	r2, [r3, #0]
}
 800174e:	46c0      	nop			@ (mov r8, r8)
 8001750:	46bd      	mov	sp, r7
 8001752:	bd80      	pop	{r7, pc}
 8001754:	200009fc 	.word	0x200009fc
 8001758:	20000a00 	.word	0x20000a00
 800175c:	2000009c 	.word	0x2000009c
 8001760:	2000009e 	.word	0x2000009e
 8001764:	200000a0 	.word	0x200000a0
 8001768:	20000096 	.word	0x20000096
 800176c:	20000094 	.word	0x20000094

08001770 <AMR_Stop>:

// alias stop
void AMR_Stop(void) {
 8001770:	b580      	push	{r7, lr}
 8001772:	af00      	add	r7, sp, #0
    resetAMR();
 8001774:	f7ff ffd0 	bl	8001718 <resetAMR>
}
 8001778:	46c0      	nop			@ (mov r8, r8)
 800177a:	46bd      	mov	sp, r7
 800177c:	bd80      	pop	{r7, pc}
	...

08001780 <AMR_Start>:

// start sequence: resets and begin init wait (imu calibrate)
void AMR_Start(void) {
 8001780:	b580      	push	{r7, lr}
 8001782:	af00      	add	r7, sp, #0
    // reset odometry & internal state
    Reset_x_y();
 8001784:	f003 f85a 	bl	800483c <Reset_x_y>
    current_index = 0;
 8001788:	4b0a      	ldr	r3, [pc, #40]	@ (80017b4 <AMR_Start+0x34>)
 800178a:	2200      	movs	r2, #0
 800178c:	801a      	strh	r2, [r3, #0]
    next_index = 0;
 800178e:	4b0a      	ldr	r3, [pc, #40]	@ (80017b8 <AMR_Start+0x38>)
 8001790:	2200      	movs	r2, #0
 8001792:	801a      	strh	r2, [r3, #0]
    lastV = 0.0f;
 8001794:	4b09      	ldr	r3, [pc, #36]	@ (80017bc <AMR_Start+0x3c>)
 8001796:	2200      	movs	r2, #0
 8001798:	601a      	str	r2, [r3, #0]

    // set flags
    amr_active = 1;
 800179a:	4b09      	ldr	r3, [pc, #36]	@ (80017c0 <AMR_Start+0x40>)
 800179c:	2201      	movs	r2, #1
 800179e:	701a      	strb	r2, [r3, #0]

    // wait 1000 ms for imu/calibration
    state = AMR_INIT_WAIT;
 80017a0:	4b08      	ldr	r3, [pc, #32]	@ (80017c4 <AMR_Start+0x44>)
 80017a2:	2201      	movs	r2, #1
 80017a4:	701a      	strb	r2, [r3, #0]
    init_wait_start_ms = 0; // will be set in first Update with millis()
 80017a6:	4b08      	ldr	r3, [pc, #32]	@ (80017c8 <AMR_Start+0x48>)
 80017a8:	2200      	movs	r2, #0
 80017aa:	601a      	str	r2, [r3, #0]
}
 80017ac:	46c0      	nop			@ (mov r8, r8)
 80017ae:	46bd      	mov	sp, r7
 80017b0:	bd80      	pop	{r7, pc}
 80017b2:	46c0      	nop			@ (mov r8, r8)
 80017b4:	2000009c 	.word	0x2000009c
 80017b8:	2000009e 	.word	0x2000009e
 80017bc:	200000a0 	.word	0x200000a0
 80017c0:	20000094 	.word	0x20000094
 80017c4:	20000096 	.word	0x20000096
 80017c8:	20000098 	.word	0x20000098

080017cc <AMR_Init>:

// initialize module (call once from main)
void AMR_Init(void) {
 80017cc:	b580      	push	{r7, lr}
 80017ce:	af00      	add	r7, sp, #0
    amr_active = 0;
 80017d0:	4b0b      	ldr	r3, [pc, #44]	@ (8001800 <AMR_Init+0x34>)
 80017d2:	2200      	movs	r2, #0
 80017d4:	701a      	strb	r2, [r3, #0]
    amr_loop_mode = 0;
 80017d6:	4b0b      	ldr	r3, [pc, #44]	@ (8001804 <AMR_Init+0x38>)
 80017d8:	2200      	movs	r2, #0
 80017da:	701a      	strb	r2, [r3, #0]
    position_error_threshold = 0.1f;
 80017dc:	4b0a      	ldr	r3, [pc, #40]	@ (8001808 <AMR_Init+0x3c>)
 80017de:	4a0b      	ldr	r2, [pc, #44]	@ (800180c <AMR_Init+0x40>)
 80017e0:	601a      	str	r2, [r3, #0]
    amr_nominal_speed = AMR_MAX_V_DEFAULT;
 80017e2:	4b0b      	ldr	r3, [pc, #44]	@ (8001810 <AMR_Init+0x44>)
 80017e4:	22fa      	movs	r2, #250	@ 0xfa
 80017e6:	0592      	lsls	r2, r2, #22
 80017e8:	601a      	str	r2, [r3, #0]
    amr_max_angular_speed = AMR_MAX_W_DEFAULT;
 80017ea:	4b0a      	ldr	r3, [pc, #40]	@ (8001814 <AMR_Init+0x48>)
 80017ec:	2280      	movs	r2, #128	@ 0x80
 80017ee:	05d2      	lsls	r2, r2, #23
 80017f0:	601a      	str	r2, [r3, #0]
    state = AMR_IDLE;
 80017f2:	4b09      	ldr	r3, [pc, #36]	@ (8001818 <AMR_Init+0x4c>)
 80017f4:	2200      	movs	r2, #0
 80017f6:	701a      	strb	r2, [r3, #0]
}
 80017f8:	46c0      	nop			@ (mov r8, r8)
 80017fa:	46bd      	mov	sp, r7
 80017fc:	bd80      	pop	{r7, pc}
 80017fe:	46c0      	nop			@ (mov r8, r8)
 8001800:	20000094 	.word	0x20000094
 8001804:	20000095 	.word	0x20000095
 8001808:	20000000 	.word	0x20000000
 800180c:	3dcccccd 	.word	0x3dcccccd
 8001810:	20000004 	.word	0x20000004
 8001814:	20000008 	.word	0x20000008
 8001818:	20000096 	.word	0x20000096

0800181c <AMR_Update>:

// Main update  call every 10 ms
void AMR_Update(void) {
 800181c:	b5b0      	push	{r4, r5, r7, lr}
 800181e:	b0a8      	sub	sp, #160	@ 0xa0
 8001820:	af00      	add	r7, sp, #0
    now_ms = now_ms + 1;
 8001822:	4bdc      	ldr	r3, [pc, #880]	@ (8001b94 <AMR_Update+0x378>)
 8001824:	681b      	ldr	r3, [r3, #0]
 8001826:	1c5a      	adds	r2, r3, #1
 8001828:	4bda      	ldr	r3, [pc, #872]	@ (8001b94 <AMR_Update+0x378>)
 800182a:	601a      	str	r2, [r3, #0]

    if (!amr_active) {
 800182c:	4bda      	ldr	r3, [pc, #872]	@ (8001b98 <AMR_Update+0x37c>)
 800182e:	781b      	ldrb	r3, [r3, #0]
 8001830:	2b00      	cmp	r3, #0
 8001832:	d109      	bne.n	8001848 <AMR_Update+0x2c>
        // ensure zero motion if not active
        V_req = 0.0f;
 8001834:	4bd9      	ldr	r3, [pc, #868]	@ (8001b9c <AMR_Update+0x380>)
 8001836:	2200      	movs	r2, #0
 8001838:	601a      	str	r2, [r3, #0]
        W_req = 0.0f;
 800183a:	4bd9      	ldr	r3, [pc, #868]	@ (8001ba0 <AMR_Update+0x384>)
 800183c:	2200      	movs	r2, #0
 800183e:	601a      	str	r2, [r3, #0]
        apply_drive_refs();
 8001840:	f7ff ff58 	bl	80016f4 <apply_drive_refs>
        return;
 8001844:	f000 fc3c 	bl	80020c0 <AMR_Update+0x8a4>
    }

    // Safety: if no valid points, remain idle
    if (valid_indexes == 0) {
 8001848:	4bd6      	ldr	r3, [pc, #856]	@ (8001ba4 <AMR_Update+0x388>)
 800184a:	881b      	ldrh	r3, [r3, #0]
 800184c:	b29b      	uxth	r3, r3
 800184e:	2b00      	cmp	r3, #0
 8001850:	d109      	bne.n	8001866 <AMR_Update+0x4a>
        V_req = 0.0f;
 8001852:	4bd2      	ldr	r3, [pc, #840]	@ (8001b9c <AMR_Update+0x380>)
 8001854:	2200      	movs	r2, #0
 8001856:	601a      	str	r2, [r3, #0]
        W_req = 0.0f;
 8001858:	4bd1      	ldr	r3, [pc, #836]	@ (8001ba0 <AMR_Update+0x384>)
 800185a:	2200      	movs	r2, #0
 800185c:	601a      	str	r2, [r3, #0]
        apply_drive_refs();
 800185e:	f7ff ff49 	bl	80016f4 <apply_drive_refs>
        return;
 8001862:	f000 fc2d 	bl	80020c0 <AMR_Update+0x8a4>
    }

    switch (state) {
 8001866:	4bd0      	ldr	r3, [pc, #832]	@ (8001ba8 <AMR_Update+0x38c>)
 8001868:	781b      	ldrb	r3, [r3, #0]
 800186a:	2b06      	cmp	r3, #6
 800186c:	d901      	bls.n	8001872 <AMR_Update+0x56>
 800186e:	f000 fc27 	bl	80020c0 <AMR_Update+0x8a4>
 8001872:	009a      	lsls	r2, r3, #2
 8001874:	4bcd      	ldr	r3, [pc, #820]	@ (8001bac <AMR_Update+0x390>)
 8001876:	18d3      	adds	r3, r2, r3
 8001878:	681b      	ldr	r3, [r3, #0]
 800187a:	469f      	mov	pc, r3
        case AMR_INIT_WAIT:
            if (init_wait_start_ms == 0) init_wait_start_ms = now_ms;
 800187c:	4bcc      	ldr	r3, [pc, #816]	@ (8001bb0 <AMR_Update+0x394>)
 800187e:	681b      	ldr	r3, [r3, #0]
 8001880:	2b00      	cmp	r3, #0
 8001882:	d103      	bne.n	800188c <AMR_Update+0x70>
 8001884:	4bc3      	ldr	r3, [pc, #780]	@ (8001b94 <AMR_Update+0x378>)
 8001886:	681a      	ldr	r2, [r3, #0]
 8001888:	4bc9      	ldr	r3, [pc, #804]	@ (8001bb0 <AMR_Update+0x394>)
 800188a:	601a      	str	r2, [r3, #0]
            if ((now_ms - init_wait_start_ms) >= 100) {
 800188c:	4bc1      	ldr	r3, [pc, #772]	@ (8001b94 <AMR_Update+0x378>)
 800188e:	681a      	ldr	r2, [r3, #0]
 8001890:	4bc7      	ldr	r3, [pc, #796]	@ (8001bb0 <AMR_Update+0x394>)
 8001892:	681b      	ldr	r3, [r3, #0]
 8001894:	1ad3      	subs	r3, r2, r3
 8001896:	2b63      	cmp	r3, #99	@ 0x63
 8001898:	d912      	bls.n	80018c0 <AMR_Update+0xa4>
                // finished calibration/wait
                // prepare indexes and align to first
                current_index = 0;
 800189a:	4bc6      	ldr	r3, [pc, #792]	@ (8001bb4 <AMR_Update+0x398>)
 800189c:	2200      	movs	r2, #0
 800189e:	801a      	strh	r2, [r3, #0]
                next_index = (valid_indexes > 1) ? 1 : 0;
 80018a0:	4bc0      	ldr	r3, [pc, #768]	@ (8001ba4 <AMR_Update+0x388>)
 80018a2:	881b      	ldrh	r3, [r3, #0]
 80018a4:	b29b      	uxth	r3, r3
 80018a6:	2201      	movs	r2, #1
 80018a8:	429a      	cmp	r2, r3
 80018aa:	419b      	sbcs	r3, r3
 80018ac:	425b      	negs	r3, r3
 80018ae:	b2db      	uxtb	r3, r3
 80018b0:	001a      	movs	r2, r3
 80018b2:	4bc1      	ldr	r3, [pc, #772]	@ (8001bb8 <AMR_Update+0x39c>)
 80018b4:	801a      	strh	r2, [r3, #0]
                state = AMR_ALIGN_TO_FIRST;
 80018b6:	4bbc      	ldr	r3, [pc, #752]	@ (8001ba8 <AMR_Update+0x38c>)
 80018b8:	2202      	movs	r2, #2
 80018ba:	701a      	strb	r2, [r3, #0]
            } else {
                // keep motors stopped during calibrate
                V_req = 0.0f; W_req = 0.0f;
                apply_drive_refs();
            }
            break;
 80018bc:	f000 fc00 	bl	80020c0 <AMR_Update+0x8a4>
                V_req = 0.0f; W_req = 0.0f;
 80018c0:	4bb6      	ldr	r3, [pc, #728]	@ (8001b9c <AMR_Update+0x380>)
 80018c2:	2200      	movs	r2, #0
 80018c4:	601a      	str	r2, [r3, #0]
 80018c6:	4bb6      	ldr	r3, [pc, #728]	@ (8001ba0 <AMR_Update+0x384>)
 80018c8:	2200      	movs	r2, #0
 80018ca:	601a      	str	r2, [r3, #0]
                apply_drive_refs();
 80018cc:	f7ff ff12 	bl	80016f4 <apply_drive_refs>
            break;
 80018d0:	f000 fbf6 	bl	80020c0 <AMR_Update+0x8a4>

        case AMR_ALIGN_TO_FIRST: {

        	if (current_index == 0 && pathX[0] == 0 && pathY[0] == 0) {
 80018d4:	4bb7      	ldr	r3, [pc, #732]	@ (8001bb4 <AMR_Update+0x398>)
 80018d6:	881b      	ldrh	r3, [r3, #0]
 80018d8:	2b00      	cmp	r3, #0
 80018da:	d123      	bne.n	8001924 <AMR_Update+0x108>
 80018dc:	4bb7      	ldr	r3, [pc, #732]	@ (8001bbc <AMR_Update+0x3a0>)
 80018de:	2200      	movs	r2, #0
 80018e0:	5e9b      	ldrsh	r3, [r3, r2]
 80018e2:	2b00      	cmp	r3, #0
 80018e4:	d11e      	bne.n	8001924 <AMR_Update+0x108>
 80018e6:	4bb6      	ldr	r3, [pc, #728]	@ (8001bc0 <AMR_Update+0x3a4>)
 80018e8:	2200      	movs	r2, #0
 80018ea:	5e9b      	ldrsh	r3, [r3, r2]
 80018ec:	2b00      	cmp	r3, #0
 80018ee:	d119      	bne.n	8001924 <AMR_Update+0x108>
        	    // immediately treat point0 as "reached"
        	    if (valid_indexes > 1) {
 80018f0:	4bac      	ldr	r3, [pc, #688]	@ (8001ba4 <AMR_Update+0x388>)
 80018f2:	881b      	ldrh	r3, [r3, #0]
 80018f4:	b29b      	uxth	r3, r3
 80018f6:	2b01      	cmp	r3, #1
 80018f8:	d907      	bls.n	800190a <AMR_Update+0xee>
        	        next_index = 1;
 80018fa:	4baf      	ldr	r3, [pc, #700]	@ (8001bb8 <AMR_Update+0x39c>)
 80018fc:	2201      	movs	r2, #1
 80018fe:	801a      	strh	r2, [r3, #0]
        	        state = AMR_ALIGN_NEXT;
 8001900:	4ba9      	ldr	r3, [pc, #676]	@ (8001ba8 <AMR_Update+0x38c>)
 8001902:	2204      	movs	r2, #4
 8001904:	701a      	strb	r2, [r3, #0]
        	        V_req = 0.0f;
        	        W_req = 0.0f;
        	        apply_drive_refs();
        	        state = AMR_FINISHED;
        	    }
        	    break;
 8001906:	f000 fbdb 	bl	80020c0 <AMR_Update+0x8a4>
        	        V_req = 0.0f;
 800190a:	4ba4      	ldr	r3, [pc, #656]	@ (8001b9c <AMR_Update+0x380>)
 800190c:	2200      	movs	r2, #0
 800190e:	601a      	str	r2, [r3, #0]
        	        W_req = 0.0f;
 8001910:	4ba3      	ldr	r3, [pc, #652]	@ (8001ba0 <AMR_Update+0x384>)
 8001912:	2200      	movs	r2, #0
 8001914:	601a      	str	r2, [r3, #0]
        	        apply_drive_refs();
 8001916:	f7ff feed 	bl	80016f4 <apply_drive_refs>
        	        state = AMR_FINISHED;
 800191a:	4ba3      	ldr	r3, [pc, #652]	@ (8001ba8 <AMR_Update+0x38c>)
 800191c:	2206      	movs	r2, #6
 800191e:	701a      	strb	r2, [r3, #0]
        	    break;
 8001920:	f000 fbce 	bl	80020c0 <AMR_Update+0x8a4>
        	}

            // compute first target point in meters
            float tx = point_x_m(current_index);
 8001924:	4ba3      	ldr	r3, [pc, #652]	@ (8001bb4 <AMR_Update+0x398>)
 8001926:	881b      	ldrh	r3, [r3, #0]
 8001928:	0018      	movs	r0, r3
 800192a:	f7ff fe35 	bl	8001598 <point_x_m>
 800192e:	1c03      	adds	r3, r0, #0
 8001930:	617b      	str	r3, [r7, #20]
            float ty = point_y_m(current_index);
 8001932:	4ba0      	ldr	r3, [pc, #640]	@ (8001bb4 <AMR_Update+0x398>)
 8001934:	881b      	ldrh	r3, [r3, #0]
 8001936:	0018      	movs	r0, r3
 8001938:	f7ff fe44 	bl	80015c4 <point_y_m>
 800193c:	1c03      	adds	r3, r0, #0
 800193e:	613b      	str	r3, [r7, #16]

            // compute angle from robot origin (odometry was reset so pos_x,pos_y ~ 0)
            // but better to use current odometry (pos_x,pos_y) to be general:
            float desired_deg = angle_from_pose_to_point_deg(pos_x, pos_y, tx, ty);
 8001940:	4ba0      	ldr	r3, [pc, #640]	@ (8001bc4 <AMR_Update+0x3a8>)
 8001942:	6818      	ldr	r0, [r3, #0]
 8001944:	4ba0      	ldr	r3, [pc, #640]	@ (8001bc8 <AMR_Update+0x3ac>)
 8001946:	6819      	ldr	r1, [r3, #0]
 8001948:	693b      	ldr	r3, [r7, #16]
 800194a:	697a      	ldr	r2, [r7, #20]
 800194c:	f7ff fea6 	bl	800169c <angle_from_pose_to_point_deg>
 8001950:	1c03      	adds	r3, r0, #0
 8001952:	60fb      	str	r3, [r7, #12]
            float yaw_deg = (float)rounded_yaw_relative; // degrees
 8001954:	4b9d      	ldr	r3, [pc, #628]	@ (8001bcc <AMR_Update+0x3b0>)
 8001956:	2200      	movs	r2, #0
 8001958:	5e9b      	ldrsh	r3, [r3, r2]
 800195a:	0018      	movs	r0, r3
 800195c:	f7ff fd50 	bl	8001400 <__aeabi_i2f>
 8001960:	1c03      	adds	r3, r0, #0
 8001962:	60bb      	str	r3, [r7, #8]
            float err_deg = norm_deg(desired_deg - yaw_deg);
 8001964:	68b9      	ldr	r1, [r7, #8]
 8001966:	68f8      	ldr	r0, [r7, #12]
 8001968:	f7ff fab0 	bl	8000ecc <__aeabi_fsub>
 800196c:	1c03      	adds	r3, r0, #0
 800196e:	1c18      	adds	r0, r3, #0
 8001970:	f7ff fe3e 	bl	80015f0 <norm_deg>
 8001974:	1c03      	adds	r3, r0, #0
 8001976:	607b      	str	r3, [r7, #4]

            // convert to radians for W_req
            float err_rad = err_deg * DEG_TO_RAD;
 8001978:	4995      	ldr	r1, [pc, #596]	@ (8001bd0 <AMR_Update+0x3b4>)
 800197a:	6878      	ldr	r0, [r7, #4]
 800197c:	f7ff f94c 	bl	8000c18 <__aeabi_fmul>
 8001980:	1c03      	adds	r3, r0, #0
 8001982:	603b      	str	r3, [r7, #0]

            // angular P controller
            float w = ANGLE_P_GAIN * err_rad;
 8001984:	4993      	ldr	r1, [pc, #588]	@ (8001bd4 <AMR_Update+0x3b8>)
 8001986:	6838      	ldr	r0, [r7, #0]
 8001988:	f7ff f946 	bl	8000c18 <__aeabi_fmul>
 800198c:	1c03      	adds	r3, r0, #0
 800198e:	249c      	movs	r4, #156	@ 0x9c
 8001990:	193a      	adds	r2, r7, r4
 8001992:	6013      	str	r3, [r2, #0]
            if (w > amr_max_angular_speed) w = amr_max_angular_speed;
 8001994:	4b90      	ldr	r3, [pc, #576]	@ (8001bd8 <AMR_Update+0x3bc>)
 8001996:	681b      	ldr	r3, [r3, #0]
 8001998:	1c19      	adds	r1, r3, #0
 800199a:	193b      	adds	r3, r7, r4
 800199c:	6818      	ldr	r0, [r3, #0]
 800199e:	f7fe fd4f 	bl	8000440 <__aeabi_fcmpgt>
 80019a2:	1e03      	subs	r3, r0, #0
 80019a4:	d003      	beq.n	80019ae <AMR_Update+0x192>
 80019a6:	4b8c      	ldr	r3, [pc, #560]	@ (8001bd8 <AMR_Update+0x3bc>)
 80019a8:	681b      	ldr	r3, [r3, #0]
 80019aa:	193a      	adds	r2, r7, r4
 80019ac:	6013      	str	r3, [r2, #0]
            if (w < -amr_max_angular_speed) w = -amr_max_angular_speed;
 80019ae:	4b8a      	ldr	r3, [pc, #552]	@ (8001bd8 <AMR_Update+0x3bc>)
 80019b0:	681b      	ldr	r3, [r3, #0]
 80019b2:	2280      	movs	r2, #128	@ 0x80
 80019b4:	0612      	lsls	r2, r2, #24
 80019b6:	4053      	eors	r3, r2
 80019b8:	1c19      	adds	r1, r3, #0
 80019ba:	249c      	movs	r4, #156	@ 0x9c
 80019bc:	193b      	adds	r3, r7, r4
 80019be:	6818      	ldr	r0, [r3, #0]
 80019c0:	f7fe fd2a 	bl	8000418 <__aeabi_fcmplt>
 80019c4:	1e03      	subs	r3, r0, #0
 80019c6:	d006      	beq.n	80019d6 <AMR_Update+0x1ba>
 80019c8:	4b83      	ldr	r3, [pc, #524]	@ (8001bd8 <AMR_Update+0x3bc>)
 80019ca:	681b      	ldr	r3, [r3, #0]
 80019cc:	2280      	movs	r2, #128	@ 0x80
 80019ce:	0612      	lsls	r2, r2, #24
 80019d0:	4053      	eors	r3, r2
 80019d2:	193a      	adds	r2, r7, r4
 80019d4:	6013      	str	r3, [r2, #0]

            // in align stage rotate in place
            V_req = 0.0f;
 80019d6:	4b71      	ldr	r3, [pc, #452]	@ (8001b9c <AMR_Update+0x380>)
 80019d8:	2200      	movs	r2, #0
 80019da:	601a      	str	r2, [r3, #0]
            W_req = -w;
 80019dc:	239c      	movs	r3, #156	@ 0x9c
 80019de:	18fb      	adds	r3, r7, r3
 80019e0:	681b      	ldr	r3, [r3, #0]
 80019e2:	2280      	movs	r2, #128	@ 0x80
 80019e4:	0612      	lsls	r2, r2, #24
 80019e6:	405a      	eors	r2, r3
 80019e8:	4b6d      	ldr	r3, [pc, #436]	@ (8001ba0 <AMR_Update+0x384>)
 80019ea:	601a      	str	r2, [r3, #0]
            apply_drive_refs();
 80019ec:	f7ff fe82 	bl	80016f4 <apply_drive_refs>

            // arrival condition: yaw within a small threshold (2 degrees)
            if (fabsf(err_deg) < 6.0f) {
 80019f0:	687b      	ldr	r3, [r7, #4]
 80019f2:	005b      	lsls	r3, r3, #1
 80019f4:	085b      	lsrs	r3, r3, #1
 80019f6:	4979      	ldr	r1, [pc, #484]	@ (8001bdc <AMR_Update+0x3c0>)
 80019f8:	1c18      	adds	r0, r3, #0
 80019fa:	f7fe fd0d 	bl	8000418 <__aeabi_fcmplt>
 80019fe:	1e03      	subs	r3, r0, #0
 8001a00:	d100      	bne.n	8001a04 <AMR_Update+0x1e8>
                V_req = 0.0f; W_req = 0.0f;
                apply_drive_refs();
                // move to drive stage
                state = AMR_DRIVE_TO_FIRST;
            }
            break;
 8001a02:	e35d      	b.n	80020c0 <AMR_Update+0x8a4>
                V_req = 0.0f; W_req = 0.0f;
 8001a04:	4b65      	ldr	r3, [pc, #404]	@ (8001b9c <AMR_Update+0x380>)
 8001a06:	2200      	movs	r2, #0
 8001a08:	601a      	str	r2, [r3, #0]
 8001a0a:	4b65      	ldr	r3, [pc, #404]	@ (8001ba0 <AMR_Update+0x384>)
 8001a0c:	2200      	movs	r2, #0
 8001a0e:	601a      	str	r2, [r3, #0]
                apply_drive_refs();
 8001a10:	f7ff fe70 	bl	80016f4 <apply_drive_refs>
                state = AMR_DRIVE_TO_FIRST;
 8001a14:	4b64      	ldr	r3, [pc, #400]	@ (8001ba8 <AMR_Update+0x38c>)
 8001a16:	2203      	movs	r2, #3
 8001a18:	701a      	strb	r2, [r3, #0]
            break;
 8001a1a:	e351      	b.n	80020c0 <AMR_Update+0x8a4>
        }

        case AMR_DRIVE_TO_FIRST: {
            float tx = point_x_m(current_index);
 8001a1c:	4b65      	ldr	r3, [pc, #404]	@ (8001bb4 <AMR_Update+0x398>)
 8001a1e:	881b      	ldrh	r3, [r3, #0]
 8001a20:	0018      	movs	r0, r3
 8001a22:	f7ff fdb9 	bl	8001598 <point_x_m>
 8001a26:	1c03      	adds	r3, r0, #0
 8001a28:	63fb      	str	r3, [r7, #60]	@ 0x3c
            float ty = point_y_m(current_index);
 8001a2a:	4b62      	ldr	r3, [pc, #392]	@ (8001bb4 <AMR_Update+0x398>)
 8001a2c:	881b      	ldrh	r3, [r3, #0]
 8001a2e:	0018      	movs	r0, r3
 8001a30:	f7ff fdc8 	bl	80015c4 <point_y_m>
 8001a34:	1c03      	adds	r3, r0, #0
 8001a36:	63bb      	str	r3, [r7, #56]	@ 0x38

            // distance to target
            float dist = dist2d(pos_x, pos_y, tx, ty);
 8001a38:	4b62      	ldr	r3, [pc, #392]	@ (8001bc4 <AMR_Update+0x3a8>)
 8001a3a:	6818      	ldr	r0, [r3, #0]
 8001a3c:	4b62      	ldr	r3, [pc, #392]	@ (8001bc8 <AMR_Update+0x3ac>)
 8001a3e:	6819      	ldr	r1, [r3, #0]
 8001a40:	6bbb      	ldr	r3, [r7, #56]	@ 0x38
 8001a42:	6bfa      	ldr	r2, [r7, #60]	@ 0x3c
 8001a44:	f7ff fdfe 	bl	8001644 <dist2d>
 8001a48:	1c03      	adds	r3, r0, #0
 8001a4a:	637b      	str	r3, [r7, #52]	@ 0x34

            // desired heading to target
            float desired_deg = angle_from_pose_to_point_deg(pos_x, pos_y, tx, ty);
 8001a4c:	4b5d      	ldr	r3, [pc, #372]	@ (8001bc4 <AMR_Update+0x3a8>)
 8001a4e:	6818      	ldr	r0, [r3, #0]
 8001a50:	4b5d      	ldr	r3, [pc, #372]	@ (8001bc8 <AMR_Update+0x3ac>)
 8001a52:	6819      	ldr	r1, [r3, #0]
 8001a54:	6bbb      	ldr	r3, [r7, #56]	@ 0x38
 8001a56:	6bfa      	ldr	r2, [r7, #60]	@ 0x3c
 8001a58:	f7ff fe20 	bl	800169c <angle_from_pose_to_point_deg>
 8001a5c:	1c03      	adds	r3, r0, #0
 8001a5e:	633b      	str	r3, [r7, #48]	@ 0x30
            float yaw_deg = (float)rounded_yaw_relative;
 8001a60:	4b5a      	ldr	r3, [pc, #360]	@ (8001bcc <AMR_Update+0x3b0>)
 8001a62:	2200      	movs	r2, #0
 8001a64:	5e9b      	ldrsh	r3, [r3, r2]
 8001a66:	0018      	movs	r0, r3
 8001a68:	f7ff fcca 	bl	8001400 <__aeabi_i2f>
 8001a6c:	1c03      	adds	r3, r0, #0
 8001a6e:	62fb      	str	r3, [r7, #44]	@ 0x2c
            float err_deg = norm_deg(desired_deg - yaw_deg);
 8001a70:	6af9      	ldr	r1, [r7, #44]	@ 0x2c
 8001a72:	6b38      	ldr	r0, [r7, #48]	@ 0x30
 8001a74:	f7ff fa2a 	bl	8000ecc <__aeabi_fsub>
 8001a78:	1c03      	adds	r3, r0, #0
 8001a7a:	1c18      	adds	r0, r3, #0
 8001a7c:	f7ff fdb8 	bl	80015f0 <norm_deg>
 8001a80:	1c03      	adds	r3, r0, #0
 8001a82:	62bb      	str	r3, [r7, #40]	@ 0x28
            float err_rad = err_deg * DEG_TO_RAD;
 8001a84:	4952      	ldr	r1, [pc, #328]	@ (8001bd0 <AMR_Update+0x3b4>)
 8001a86:	6ab8      	ldr	r0, [r7, #40]	@ 0x28
 8001a88:	f7ff f8c6 	bl	8000c18 <__aeabi_fmul>
 8001a8c:	1c03      	adds	r3, r0, #0
 8001a8e:	627b      	str	r3, [r7, #36]	@ 0x24

            // compute W_req (P control)
            float w = ANGLE_P_GAIN * err_rad;
 8001a90:	4950      	ldr	r1, [pc, #320]	@ (8001bd4 <AMR_Update+0x3b8>)
 8001a92:	6a78      	ldr	r0, [r7, #36]	@ 0x24
 8001a94:	f7ff f8c0 	bl	8000c18 <__aeabi_fmul>
 8001a98:	1c03      	adds	r3, r0, #0
 8001a9a:	2498      	movs	r4, #152	@ 0x98
 8001a9c:	193a      	adds	r2, r7, r4
 8001a9e:	6013      	str	r3, [r2, #0]
            if (w > amr_max_angular_speed) w = amr_max_angular_speed;
 8001aa0:	4b4d      	ldr	r3, [pc, #308]	@ (8001bd8 <AMR_Update+0x3bc>)
 8001aa2:	681b      	ldr	r3, [r3, #0]
 8001aa4:	1c19      	adds	r1, r3, #0
 8001aa6:	193b      	adds	r3, r7, r4
 8001aa8:	6818      	ldr	r0, [r3, #0]
 8001aaa:	f7fe fcc9 	bl	8000440 <__aeabi_fcmpgt>
 8001aae:	1e03      	subs	r3, r0, #0
 8001ab0:	d003      	beq.n	8001aba <AMR_Update+0x29e>
 8001ab2:	4b49      	ldr	r3, [pc, #292]	@ (8001bd8 <AMR_Update+0x3bc>)
 8001ab4:	681b      	ldr	r3, [r3, #0]
 8001ab6:	193a      	adds	r2, r7, r4
 8001ab8:	6013      	str	r3, [r2, #0]
            if (w < -amr_max_angular_speed) w = -amr_max_angular_speed;
 8001aba:	4b47      	ldr	r3, [pc, #284]	@ (8001bd8 <AMR_Update+0x3bc>)
 8001abc:	681b      	ldr	r3, [r3, #0]
 8001abe:	2280      	movs	r2, #128	@ 0x80
 8001ac0:	0612      	lsls	r2, r2, #24
 8001ac2:	4053      	eors	r3, r2
 8001ac4:	1c19      	adds	r1, r3, #0
 8001ac6:	2498      	movs	r4, #152	@ 0x98
 8001ac8:	193b      	adds	r3, r7, r4
 8001aca:	6818      	ldr	r0, [r3, #0]
 8001acc:	f7fe fca4 	bl	8000418 <__aeabi_fcmplt>
 8001ad0:	1e03      	subs	r3, r0, #0
 8001ad2:	d006      	beq.n	8001ae2 <AMR_Update+0x2c6>
 8001ad4:	4b40      	ldr	r3, [pc, #256]	@ (8001bd8 <AMR_Update+0x3bc>)
 8001ad6:	681b      	ldr	r3, [r3, #0]
 8001ad8:	2280      	movs	r2, #128	@ 0x80
 8001ada:	0612      	lsls	r2, r2, #24
 8001adc:	4053      	eors	r3, r2
 8001ade:	193a      	adds	r2, r7, r4
 8001ae0:	6013      	str	r3, [r2, #0]

            // set linear V_req ramping towards nominal, but reduce with yaw error
            float yaw_abs_deg = fabsf(err_deg);
 8001ae2:	6abb      	ldr	r3, [r7, #40]	@ 0x28
 8001ae4:	005b      	lsls	r3, r3, #1
 8001ae6:	085b      	lsrs	r3, r3, #1
 8001ae8:	623b      	str	r3, [r7, #32]
            float reduce = 0.0f;
 8001aea:	2300      	movs	r3, #0
 8001aec:	2494      	movs	r4, #148	@ 0x94
 8001aee:	193a      	adds	r2, r7, r4
 8001af0:	6013      	str	r3, [r2, #0]
            if (yaw_abs_deg > ANGLE_SLOW_THRESH_DEG)
 8001af2:	493b      	ldr	r1, [pc, #236]	@ (8001be0 <AMR_Update+0x3c4>)
 8001af4:	6a38      	ldr	r0, [r7, #32]
 8001af6:	f7fe fca3 	bl	8000440 <__aeabi_fcmpgt>
 8001afa:	1e03      	subs	r3, r0, #0
 8001afc:	d00b      	beq.n	8001b16 <AMR_Update+0x2fa>
                reduce = (yaw_abs_deg - ANGLE_SLOW_THRESH_DEG) / (ANGLE_FULL_SLOW_DEG - ANGLE_SLOW_THRESH_DEG);
 8001afe:	4938      	ldr	r1, [pc, #224]	@ (8001be0 <AMR_Update+0x3c4>)
 8001b00:	6a38      	ldr	r0, [r7, #32]
 8001b02:	f7ff f9e3 	bl	8000ecc <__aeabi_fsub>
 8001b06:	1c03      	adds	r3, r0, #0
 8001b08:	4936      	ldr	r1, [pc, #216]	@ (8001be4 <AMR_Update+0x3c8>)
 8001b0a:	1c18      	adds	r0, r3, #0
 8001b0c:	f7fe feb6 	bl	800087c <__aeabi_fdiv>
 8001b10:	1c03      	adds	r3, r0, #0
 8001b12:	193a      	adds	r2, r7, r4
 8001b14:	6013      	str	r3, [r2, #0]
            if (reduce > 1.0f) reduce = 1.0f;
 8001b16:	21fe      	movs	r1, #254	@ 0xfe
 8001b18:	0589      	lsls	r1, r1, #22
 8001b1a:	2494      	movs	r4, #148	@ 0x94
 8001b1c:	193b      	adds	r3, r7, r4
 8001b1e:	6818      	ldr	r0, [r3, #0]
 8001b20:	f7fe fc8e 	bl	8000440 <__aeabi_fcmpgt>
 8001b24:	1e03      	subs	r3, r0, #0
 8001b26:	d003      	beq.n	8001b30 <AMR_Update+0x314>
 8001b28:	23fe      	movs	r3, #254	@ 0xfe
 8001b2a:	059b      	lsls	r3, r3, #22
 8001b2c:	193a      	adds	r2, r7, r4
 8001b2e:	6013      	str	r3, [r2, #0]
            float targetV = amr_nominal_speed * (1.0f - reduce);
 8001b30:	2394      	movs	r3, #148	@ 0x94
 8001b32:	18fb      	adds	r3, r7, r3
 8001b34:	6819      	ldr	r1, [r3, #0]
 8001b36:	20fe      	movs	r0, #254	@ 0xfe
 8001b38:	0580      	lsls	r0, r0, #22
 8001b3a:	f7ff f9c7 	bl	8000ecc <__aeabi_fsub>
 8001b3e:	1c03      	adds	r3, r0, #0
 8001b40:	1c1a      	adds	r2, r3, #0
 8001b42:	4b29      	ldr	r3, [pc, #164]	@ (8001be8 <AMR_Update+0x3cc>)
 8001b44:	681b      	ldr	r3, [r3, #0]
 8001b46:	1c19      	adds	r1, r3, #0
 8001b48:	1c10      	adds	r0, r2, #0
 8001b4a:	f7ff f865 	bl	8000c18 <__aeabi_fmul>
 8001b4e:	1c03      	adds	r3, r0, #0
 8001b50:	61fb      	str	r3, [r7, #28]

            // simple ramping
            float maxInc = LINEAR_RAMP_ACC * 0.01f; // in 10ms step
 8001b52:	4b26      	ldr	r3, [pc, #152]	@ (8001bec <AMR_Update+0x3d0>)
 8001b54:	61bb      	str	r3, [r7, #24]
            if (lastV < targetV) {
 8001b56:	4b26      	ldr	r3, [pc, #152]	@ (8001bf0 <AMR_Update+0x3d4>)
 8001b58:	681b      	ldr	r3, [r3, #0]
 8001b5a:	1c19      	adds	r1, r3, #0
 8001b5c:	69f8      	ldr	r0, [r7, #28]
 8001b5e:	f7fe fc6f 	bl	8000440 <__aeabi_fcmpgt>
 8001b62:	1e03      	subs	r3, r0, #0
 8001b64:	d046      	beq.n	8001bf4 <AMR_Update+0x3d8>
                lastV += maxInc;
 8001b66:	4b22      	ldr	r3, [pc, #136]	@ (8001bf0 <AMR_Update+0x3d4>)
 8001b68:	681b      	ldr	r3, [r3, #0]
 8001b6a:	69b9      	ldr	r1, [r7, #24]
 8001b6c:	1c18      	adds	r0, r3, #0
 8001b6e:	f7fe fc93 	bl	8000498 <__aeabi_fadd>
 8001b72:	1c03      	adds	r3, r0, #0
 8001b74:	1c1a      	adds	r2, r3, #0
 8001b76:	4b1e      	ldr	r3, [pc, #120]	@ (8001bf0 <AMR_Update+0x3d4>)
 8001b78:	601a      	str	r2, [r3, #0]
                if (lastV > targetV) lastV = targetV;
 8001b7a:	4b1d      	ldr	r3, [pc, #116]	@ (8001bf0 <AMR_Update+0x3d4>)
 8001b7c:	681b      	ldr	r3, [r3, #0]
 8001b7e:	1c19      	adds	r1, r3, #0
 8001b80:	69f8      	ldr	r0, [r7, #28]
 8001b82:	f7fe fc49 	bl	8000418 <__aeabi_fcmplt>
 8001b86:	1e03      	subs	r3, r0, #0
 8001b88:	d051      	beq.n	8001c2e <AMR_Update+0x412>
 8001b8a:	4b19      	ldr	r3, [pc, #100]	@ (8001bf0 <AMR_Update+0x3d4>)
 8001b8c:	69fa      	ldr	r2, [r7, #28]
 8001b8e:	601a      	str	r2, [r3, #0]
 8001b90:	e04d      	b.n	8001c2e <AMR_Update+0x412>
 8001b92:	46c0      	nop			@ (mov r8, r8)
 8001b94:	200000a4 	.word	0x200000a4
 8001b98:	20000094 	.word	0x20000094
 8001b9c:	200009fc 	.word	0x200009fc
 8001ba0:	20000a00 	.word	0x20000a00
 8001ba4:	200000f2 	.word	0x200000f2
 8001ba8:	20000096 	.word	0x20000096
 8001bac:	08006840 	.word	0x08006840
 8001bb0:	20000098 	.word	0x20000098
 8001bb4:	2000009c 	.word	0x2000009c
 8001bb8:	2000009e 	.word	0x2000009e
 8001bbc:	20000108 	.word	0x20000108
 8001bc0:	200004f0 	.word	0x200004f0
 8001bc4:	200009a0 	.word	0x200009a0
 8001bc8:	200009a4 	.word	0x200009a4
 8001bcc:	200009b4 	.word	0x200009b4
 8001bd0:	3c8efa35 	.word	0x3c8efa35
 8001bd4:	3fb33333 	.word	0x3fb33333
 8001bd8:	20000008 	.word	0x20000008
 8001bdc:	40c00000 	.word	0x40c00000
 8001be0:	41700000 	.word	0x41700000
 8001be4:	41f00000 	.word	0x41f00000
 8001be8:	20000004 	.word	0x20000004
 8001bec:	3b83126f 	.word	0x3b83126f
 8001bf0:	200000a0 	.word	0x200000a0
            } else if (lastV > targetV) {
 8001bf4:	4b84      	ldr	r3, [pc, #528]	@ (8001e08 <AMR_Update+0x5ec>)
 8001bf6:	681b      	ldr	r3, [r3, #0]
 8001bf8:	1c19      	adds	r1, r3, #0
 8001bfa:	69f8      	ldr	r0, [r7, #28]
 8001bfc:	f7fe fc0c 	bl	8000418 <__aeabi_fcmplt>
 8001c00:	1e03      	subs	r3, r0, #0
 8001c02:	d014      	beq.n	8001c2e <AMR_Update+0x412>
                lastV -= maxInc;
 8001c04:	4b80      	ldr	r3, [pc, #512]	@ (8001e08 <AMR_Update+0x5ec>)
 8001c06:	681b      	ldr	r3, [r3, #0]
 8001c08:	69b9      	ldr	r1, [r7, #24]
 8001c0a:	1c18      	adds	r0, r3, #0
 8001c0c:	f7ff f95e 	bl	8000ecc <__aeabi_fsub>
 8001c10:	1c03      	adds	r3, r0, #0
 8001c12:	1c1a      	adds	r2, r3, #0
 8001c14:	4b7c      	ldr	r3, [pc, #496]	@ (8001e08 <AMR_Update+0x5ec>)
 8001c16:	601a      	str	r2, [r3, #0]
                if (lastV < targetV) lastV = targetV;
 8001c18:	4b7b      	ldr	r3, [pc, #492]	@ (8001e08 <AMR_Update+0x5ec>)
 8001c1a:	681b      	ldr	r3, [r3, #0]
 8001c1c:	1c19      	adds	r1, r3, #0
 8001c1e:	69f8      	ldr	r0, [r7, #28]
 8001c20:	f7fe fc0e 	bl	8000440 <__aeabi_fcmpgt>
 8001c24:	1e03      	subs	r3, r0, #0
 8001c26:	d002      	beq.n	8001c2e <AMR_Update+0x412>
 8001c28:	4b77      	ldr	r3, [pc, #476]	@ (8001e08 <AMR_Update+0x5ec>)
 8001c2a:	69fa      	ldr	r2, [r7, #28]
 8001c2c:	601a      	str	r2, [r3, #0]
            }

            V_req = lastV;
 8001c2e:	4b76      	ldr	r3, [pc, #472]	@ (8001e08 <AMR_Update+0x5ec>)
 8001c30:	681a      	ldr	r2, [r3, #0]
 8001c32:	4b76      	ldr	r3, [pc, #472]	@ (8001e0c <AMR_Update+0x5f0>)
 8001c34:	601a      	str	r2, [r3, #0]
            W_req = -w;
 8001c36:	2398      	movs	r3, #152	@ 0x98
 8001c38:	18fb      	adds	r3, r7, r3
 8001c3a:	681b      	ldr	r3, [r3, #0]
 8001c3c:	2280      	movs	r2, #128	@ 0x80
 8001c3e:	0612      	lsls	r2, r2, #24
 8001c40:	405a      	eors	r2, r3
 8001c42:	4b73      	ldr	r3, [pc, #460]	@ (8001e10 <AMR_Update+0x5f4>)
 8001c44:	601a      	str	r2, [r3, #0]
            apply_drive_refs();
 8001c46:	f7ff fd55 	bl	80016f4 <apply_drive_refs>

            // reached target?
            if (dist <= position_error_threshold) {
 8001c4a:	4b72      	ldr	r3, [pc, #456]	@ (8001e14 <AMR_Update+0x5f8>)
 8001c4c:	681b      	ldr	r3, [r3, #0]
 8001c4e:	1c19      	adds	r1, r3, #0
 8001c50:	6b78      	ldr	r0, [r7, #52]	@ 0x34
 8001c52:	f7fe fbeb 	bl	800042c <__aeabi_fcmple>
 8001c56:	1e03      	subs	r3, r0, #0
 8001c58:	d100      	bne.n	8001c5c <AMR_Update+0x440>
                    V_req = 0.0f; W_req = 0.0f;
                    apply_drive_refs();
                    state = AMR_FINISHED;
                }
            }
            break;
 8001c5a:	e231      	b.n	80020c0 <AMR_Update+0x8a4>
                if (valid_indexes > 1) {
 8001c5c:	4b6e      	ldr	r3, [pc, #440]	@ (8001e18 <AMR_Update+0x5fc>)
 8001c5e:	881b      	ldrh	r3, [r3, #0]
 8001c60:	b29b      	uxth	r3, r3
 8001c62:	2b01      	cmp	r3, #1
 8001c64:	d914      	bls.n	8001c90 <AMR_Update+0x474>
                    next_index = (current_index + 1 < valid_indexes) ? current_index + 1 : current_index;
 8001c66:	4b6d      	ldr	r3, [pc, #436]	@ (8001e1c <AMR_Update+0x600>)
 8001c68:	881b      	ldrh	r3, [r3, #0]
 8001c6a:	3301      	adds	r3, #1
 8001c6c:	4a6a      	ldr	r2, [pc, #424]	@ (8001e18 <AMR_Update+0x5fc>)
 8001c6e:	8812      	ldrh	r2, [r2, #0]
 8001c70:	b292      	uxth	r2, r2
 8001c72:	4293      	cmp	r3, r2
 8001c74:	da04      	bge.n	8001c80 <AMR_Update+0x464>
 8001c76:	4b69      	ldr	r3, [pc, #420]	@ (8001e1c <AMR_Update+0x600>)
 8001c78:	881b      	ldrh	r3, [r3, #0]
 8001c7a:	3301      	adds	r3, #1
 8001c7c:	b29b      	uxth	r3, r3
 8001c7e:	e001      	b.n	8001c84 <AMR_Update+0x468>
 8001c80:	4b66      	ldr	r3, [pc, #408]	@ (8001e1c <AMR_Update+0x600>)
 8001c82:	881b      	ldrh	r3, [r3, #0]
 8001c84:	4a66      	ldr	r2, [pc, #408]	@ (8001e20 <AMR_Update+0x604>)
 8001c86:	8013      	strh	r3, [r2, #0]
                    state = AMR_ALIGN_NEXT;
 8001c88:	4b66      	ldr	r3, [pc, #408]	@ (8001e24 <AMR_Update+0x608>)
 8001c8a:	2204      	movs	r2, #4
 8001c8c:	701a      	strb	r2, [r3, #0]
            break;
 8001c8e:	e217      	b.n	80020c0 <AMR_Update+0x8a4>
                    V_req = 0.0f; W_req = 0.0f;
 8001c90:	4b5e      	ldr	r3, [pc, #376]	@ (8001e0c <AMR_Update+0x5f0>)
 8001c92:	2200      	movs	r2, #0
 8001c94:	601a      	str	r2, [r3, #0]
 8001c96:	4b5e      	ldr	r3, [pc, #376]	@ (8001e10 <AMR_Update+0x5f4>)
 8001c98:	2200      	movs	r2, #0
 8001c9a:	601a      	str	r2, [r3, #0]
                    apply_drive_refs();
 8001c9c:	f7ff fd2a 	bl	80016f4 <apply_drive_refs>
                    state = AMR_FINISHED;
 8001ca0:	4b60      	ldr	r3, [pc, #384]	@ (8001e24 <AMR_Update+0x608>)
 8001ca2:	2206      	movs	r2, #6
 8001ca4:	701a      	strb	r2, [r3, #0]
            break;
 8001ca6:	e20b      	b.n	80020c0 <AMR_Update+0x8a4>
        }

        case AMR_ALIGN_NEXT: {
            // compute heading between current point and next point
            // current target coords
            float cx = point_x_m(current_index);
 8001ca8:	4b5c      	ldr	r3, [pc, #368]	@ (8001e1c <AMR_Update+0x600>)
 8001caa:	881b      	ldrh	r3, [r3, #0]
 8001cac:	0018      	movs	r0, r3
 8001cae:	f7ff fc73 	bl	8001598 <point_x_m>
 8001cb2:	1c03      	adds	r3, r0, #0
 8001cb4:	65fb      	str	r3, [r7, #92]	@ 0x5c
            float cy = point_y_m(current_index);
 8001cb6:	4b59      	ldr	r3, [pc, #356]	@ (8001e1c <AMR_Update+0x600>)
 8001cb8:	881b      	ldrh	r3, [r3, #0]
 8001cba:	0018      	movs	r0, r3
 8001cbc:	f7ff fc82 	bl	80015c4 <point_y_m>
 8001cc0:	1c03      	adds	r3, r0, #0
 8001cc2:	65bb      	str	r3, [r7, #88]	@ 0x58
            // next coords
            float nx = point_x_m(next_index);
 8001cc4:	4b56      	ldr	r3, [pc, #344]	@ (8001e20 <AMR_Update+0x604>)
 8001cc6:	881b      	ldrh	r3, [r3, #0]
 8001cc8:	0018      	movs	r0, r3
 8001cca:	f7ff fc65 	bl	8001598 <point_x_m>
 8001cce:	1c03      	adds	r3, r0, #0
 8001cd0:	657b      	str	r3, [r7, #84]	@ 0x54
            float ny = point_y_m(next_index);
 8001cd2:	4b53      	ldr	r3, [pc, #332]	@ (8001e20 <AMR_Update+0x604>)
 8001cd4:	881b      	ldrh	r3, [r3, #0]
 8001cd6:	0018      	movs	r0, r3
 8001cd8:	f7ff fc74 	bl	80015c4 <point_y_m>
 8001cdc:	1c03      	adds	r3, r0, #0
 8001cde:	653b      	str	r3, [r7, #80]	@ 0x50

            // angle from current to next (global)
            float desired_deg = angle_from_pose_to_point_deg(cx, cy, nx, ny);
 8001ce0:	6d3b      	ldr	r3, [r7, #80]	@ 0x50
 8001ce2:	6d7a      	ldr	r2, [r7, #84]	@ 0x54
 8001ce4:	6db9      	ldr	r1, [r7, #88]	@ 0x58
 8001ce6:	6df8      	ldr	r0, [r7, #92]	@ 0x5c
 8001ce8:	f7ff fcd8 	bl	800169c <angle_from_pose_to_point_deg>
 8001cec:	1c03      	adds	r3, r0, #0
 8001cee:	64fb      	str	r3, [r7, #76]	@ 0x4c

            // but robot is at pos_x,pos_y; we just want robot yaw to equal that desired_deg
            float yaw_deg = (float)rounded_yaw_relative;
 8001cf0:	4b4d      	ldr	r3, [pc, #308]	@ (8001e28 <AMR_Update+0x60c>)
 8001cf2:	2200      	movs	r2, #0
 8001cf4:	5e9b      	ldrsh	r3, [r3, r2]
 8001cf6:	0018      	movs	r0, r3
 8001cf8:	f7ff fb82 	bl	8001400 <__aeabi_i2f>
 8001cfc:	1c03      	adds	r3, r0, #0
 8001cfe:	64bb      	str	r3, [r7, #72]	@ 0x48
            float err_deg = norm_deg(desired_deg - yaw_deg);
 8001d00:	6cb9      	ldr	r1, [r7, #72]	@ 0x48
 8001d02:	6cf8      	ldr	r0, [r7, #76]	@ 0x4c
 8001d04:	f7ff f8e2 	bl	8000ecc <__aeabi_fsub>
 8001d08:	1c03      	adds	r3, r0, #0
 8001d0a:	1c18      	adds	r0, r3, #0
 8001d0c:	f7ff fc70 	bl	80015f0 <norm_deg>
 8001d10:	1c03      	adds	r3, r0, #0
 8001d12:	647b      	str	r3, [r7, #68]	@ 0x44
            float err_rad = err_deg * DEG_TO_RAD;
 8001d14:	4945      	ldr	r1, [pc, #276]	@ (8001e2c <AMR_Update+0x610>)
 8001d16:	6c78      	ldr	r0, [r7, #68]	@ 0x44
 8001d18:	f7fe ff7e 	bl	8000c18 <__aeabi_fmul>
 8001d1c:	1c03      	adds	r3, r0, #0
 8001d1e:	643b      	str	r3, [r7, #64]	@ 0x40

            float w = ANGLE_P_GAIN * err_rad;
 8001d20:	4943      	ldr	r1, [pc, #268]	@ (8001e30 <AMR_Update+0x614>)
 8001d22:	6c38      	ldr	r0, [r7, #64]	@ 0x40
 8001d24:	f7fe ff78 	bl	8000c18 <__aeabi_fmul>
 8001d28:	1c03      	adds	r3, r0, #0
 8001d2a:	2490      	movs	r4, #144	@ 0x90
 8001d2c:	193a      	adds	r2, r7, r4
 8001d2e:	6013      	str	r3, [r2, #0]
            if (w > amr_max_angular_speed) w = amr_max_angular_speed;
 8001d30:	4b40      	ldr	r3, [pc, #256]	@ (8001e34 <AMR_Update+0x618>)
 8001d32:	681b      	ldr	r3, [r3, #0]
 8001d34:	1c19      	adds	r1, r3, #0
 8001d36:	193b      	adds	r3, r7, r4
 8001d38:	6818      	ldr	r0, [r3, #0]
 8001d3a:	f7fe fb81 	bl	8000440 <__aeabi_fcmpgt>
 8001d3e:	1e03      	subs	r3, r0, #0
 8001d40:	d003      	beq.n	8001d4a <AMR_Update+0x52e>
 8001d42:	4b3c      	ldr	r3, [pc, #240]	@ (8001e34 <AMR_Update+0x618>)
 8001d44:	681b      	ldr	r3, [r3, #0]
 8001d46:	193a      	adds	r2, r7, r4
 8001d48:	6013      	str	r3, [r2, #0]
            if (w < -amr_max_angular_speed) w = -amr_max_angular_speed;
 8001d4a:	4b3a      	ldr	r3, [pc, #232]	@ (8001e34 <AMR_Update+0x618>)
 8001d4c:	681b      	ldr	r3, [r3, #0]
 8001d4e:	2280      	movs	r2, #128	@ 0x80
 8001d50:	0612      	lsls	r2, r2, #24
 8001d52:	4053      	eors	r3, r2
 8001d54:	1c19      	adds	r1, r3, #0
 8001d56:	2490      	movs	r4, #144	@ 0x90
 8001d58:	193b      	adds	r3, r7, r4
 8001d5a:	6818      	ldr	r0, [r3, #0]
 8001d5c:	f7fe fb5c 	bl	8000418 <__aeabi_fcmplt>
 8001d60:	1e03      	subs	r3, r0, #0
 8001d62:	d006      	beq.n	8001d72 <AMR_Update+0x556>
 8001d64:	4b33      	ldr	r3, [pc, #204]	@ (8001e34 <AMR_Update+0x618>)
 8001d66:	681b      	ldr	r3, [r3, #0]
 8001d68:	2280      	movs	r2, #128	@ 0x80
 8001d6a:	0612      	lsls	r2, r2, #24
 8001d6c:	4053      	eors	r3, r2
 8001d6e:	193a      	adds	r2, r7, r4
 8001d70:	6013      	str	r3, [r2, #0]

            V_req = 0.0f;
 8001d72:	4b26      	ldr	r3, [pc, #152]	@ (8001e0c <AMR_Update+0x5f0>)
 8001d74:	2200      	movs	r2, #0
 8001d76:	601a      	str	r2, [r3, #0]
            W_req = -w;
 8001d78:	2390      	movs	r3, #144	@ 0x90
 8001d7a:	18fb      	adds	r3, r7, r3
 8001d7c:	681b      	ldr	r3, [r3, #0]
 8001d7e:	2280      	movs	r2, #128	@ 0x80
 8001d80:	0612      	lsls	r2, r2, #24
 8001d82:	405a      	eors	r2, r3
 8001d84:	4b22      	ldr	r3, [pc, #136]	@ (8001e10 <AMR_Update+0x5f4>)
 8001d86:	601a      	str	r2, [r3, #0]
            apply_drive_refs();
 8001d88:	f7ff fcb4 	bl	80016f4 <apply_drive_refs>

            if (fabsf(err_deg) < 6.0f) {
 8001d8c:	6c7b      	ldr	r3, [r7, #68]	@ 0x44
 8001d8e:	005b      	lsls	r3, r3, #1
 8001d90:	085b      	lsrs	r3, r3, #1
 8001d92:	4929      	ldr	r1, [pc, #164]	@ (8001e38 <AMR_Update+0x61c>)
 8001d94:	1c18      	adds	r0, r3, #0
 8001d96:	f7fe fb3f 	bl	8000418 <__aeabi_fcmplt>
 8001d9a:	1e03      	subs	r3, r0, #0
 8001d9c:	d100      	bne.n	8001da0 <AMR_Update+0x584>
                // set current_index to next target, set next for lookahead
                current_index = next_index;
                next_index = (current_index + 1 < valid_indexes) ? current_index + 1 : current_index;
                state = AMR_FOLLOW_ROUTE;
            }
            break;
 8001d9e:	e18f      	b.n	80020c0 <AMR_Update+0x8a4>
                V_req = 0.0f; W_req = 0.0f;
 8001da0:	4b1a      	ldr	r3, [pc, #104]	@ (8001e0c <AMR_Update+0x5f0>)
 8001da2:	2200      	movs	r2, #0
 8001da4:	601a      	str	r2, [r3, #0]
 8001da6:	4b1a      	ldr	r3, [pc, #104]	@ (8001e10 <AMR_Update+0x5f4>)
 8001da8:	2200      	movs	r2, #0
 8001daa:	601a      	str	r2, [r3, #0]
                apply_drive_refs();
 8001dac:	f7ff fca2 	bl	80016f4 <apply_drive_refs>
                current_index = next_index;
 8001db0:	4b1b      	ldr	r3, [pc, #108]	@ (8001e20 <AMR_Update+0x604>)
 8001db2:	881a      	ldrh	r2, [r3, #0]
 8001db4:	4b19      	ldr	r3, [pc, #100]	@ (8001e1c <AMR_Update+0x600>)
 8001db6:	801a      	strh	r2, [r3, #0]
                next_index = (current_index + 1 < valid_indexes) ? current_index + 1 : current_index;
 8001db8:	4b18      	ldr	r3, [pc, #96]	@ (8001e1c <AMR_Update+0x600>)
 8001dba:	881b      	ldrh	r3, [r3, #0]
 8001dbc:	3301      	adds	r3, #1
 8001dbe:	4a16      	ldr	r2, [pc, #88]	@ (8001e18 <AMR_Update+0x5fc>)
 8001dc0:	8812      	ldrh	r2, [r2, #0]
 8001dc2:	b292      	uxth	r2, r2
 8001dc4:	4293      	cmp	r3, r2
 8001dc6:	da04      	bge.n	8001dd2 <AMR_Update+0x5b6>
 8001dc8:	4b14      	ldr	r3, [pc, #80]	@ (8001e1c <AMR_Update+0x600>)
 8001dca:	881b      	ldrh	r3, [r3, #0]
 8001dcc:	3301      	adds	r3, #1
 8001dce:	b29b      	uxth	r3, r3
 8001dd0:	e001      	b.n	8001dd6 <AMR_Update+0x5ba>
 8001dd2:	4b12      	ldr	r3, [pc, #72]	@ (8001e1c <AMR_Update+0x600>)
 8001dd4:	881b      	ldrh	r3, [r3, #0]
 8001dd6:	4a12      	ldr	r2, [pc, #72]	@ (8001e20 <AMR_Update+0x604>)
 8001dd8:	8013      	strh	r3, [r2, #0]
                state = AMR_FOLLOW_ROUTE;
 8001dda:	4b12      	ldr	r3, [pc, #72]	@ (8001e24 <AMR_Update+0x608>)
 8001ddc:	2205      	movs	r2, #5
 8001dde:	701a      	strb	r2, [r3, #0]
            break;
 8001de0:	e16e      	b.n	80020c0 <AMR_Update+0x8a4>
        }

        case AMR_FOLLOW_ROUTE: {
            // if only one point or reached last, finish
            if (current_index >= valid_indexes) {
 8001de2:	4b0e      	ldr	r3, [pc, #56]	@ (8001e1c <AMR_Update+0x600>)
 8001de4:	881a      	ldrh	r2, [r3, #0]
 8001de6:	4b0c      	ldr	r3, [pc, #48]	@ (8001e18 <AMR_Update+0x5fc>)
 8001de8:	881b      	ldrh	r3, [r3, #0]
 8001dea:	b29b      	uxth	r3, r3
 8001dec:	429a      	cmp	r2, r3
 8001dee:	d325      	bcc.n	8001e3c <AMR_Update+0x620>
                V_req = 0.0f; W_req = 0.0f;
 8001df0:	4b06      	ldr	r3, [pc, #24]	@ (8001e0c <AMR_Update+0x5f0>)
 8001df2:	2200      	movs	r2, #0
 8001df4:	601a      	str	r2, [r3, #0]
 8001df6:	4b06      	ldr	r3, [pc, #24]	@ (8001e10 <AMR_Update+0x5f4>)
 8001df8:	2200      	movs	r2, #0
 8001dfa:	601a      	str	r2, [r3, #0]
                apply_drive_refs();
 8001dfc:	f7ff fc7a 	bl	80016f4 <apply_drive_refs>
                state = AMR_FINISHED;
 8001e00:	4b08      	ldr	r3, [pc, #32]	@ (8001e24 <AMR_Update+0x608>)
 8001e02:	2206      	movs	r2, #6
 8001e04:	701a      	strb	r2, [r3, #0]
                break;
 8001e06:	e15b      	b.n	80020c0 <AMR_Update+0x8a4>
 8001e08:	200000a0 	.word	0x200000a0
 8001e0c:	200009fc 	.word	0x200009fc
 8001e10:	20000a00 	.word	0x20000a00
 8001e14:	20000000 	.word	0x20000000
 8001e18:	200000f2 	.word	0x200000f2
 8001e1c:	2000009c 	.word	0x2000009c
 8001e20:	2000009e 	.word	0x2000009e
 8001e24:	20000096 	.word	0x20000096
 8001e28:	200009b4 	.word	0x200009b4
 8001e2c:	3c8efa35 	.word	0x3c8efa35
 8001e30:	3fb33333 	.word	0x3fb33333
 8001e34:	20000008 	.word	0x20000008
 8001e38:	40c00000 	.word	0x40c00000
            }

            // target is path[current_index]
            float tx = point_x_m(current_index);
 8001e3c:	4ba2      	ldr	r3, [pc, #648]	@ (80020c8 <AMR_Update+0x8ac>)
 8001e3e:	881b      	ldrh	r3, [r3, #0]
 8001e40:	0018      	movs	r0, r3
 8001e42:	f7ff fba9 	bl	8001598 <point_x_m>
 8001e46:	1c03      	adds	r3, r0, #0
 8001e48:	2484      	movs	r4, #132	@ 0x84
 8001e4a:	193a      	adds	r2, r7, r4
 8001e4c:	6013      	str	r3, [r2, #0]
            float ty = point_y_m(current_index);
 8001e4e:	4b9e      	ldr	r3, [pc, #632]	@ (80020c8 <AMR_Update+0x8ac>)
 8001e50:	881b      	ldrh	r3, [r3, #0]
 8001e52:	0018      	movs	r0, r3
 8001e54:	f7ff fbb6 	bl	80015c4 <point_y_m>
 8001e58:	1c03      	adds	r3, r0, #0
 8001e5a:	2580      	movs	r5, #128	@ 0x80
 8001e5c:	197a      	adds	r2, r7, r5
 8001e5e:	6013      	str	r3, [r2, #0]

            // compute distance & heading to current target
            float dist = dist2d(pos_x, pos_y, tx, ty);
 8001e60:	4b9a      	ldr	r3, [pc, #616]	@ (80020cc <AMR_Update+0x8b0>)
 8001e62:	6818      	ldr	r0, [r3, #0]
 8001e64:	4b9a      	ldr	r3, [pc, #616]	@ (80020d0 <AMR_Update+0x8b4>)
 8001e66:	6819      	ldr	r1, [r3, #0]
 8001e68:	197b      	adds	r3, r7, r5
 8001e6a:	681b      	ldr	r3, [r3, #0]
 8001e6c:	193a      	adds	r2, r7, r4
 8001e6e:	6812      	ldr	r2, [r2, #0]
 8001e70:	f7ff fbe8 	bl	8001644 <dist2d>
 8001e74:	1c03      	adds	r3, r0, #0
 8001e76:	67fb      	str	r3, [r7, #124]	@ 0x7c
            float desired_deg = angle_from_pose_to_point_deg(pos_x, pos_y, tx, ty);
 8001e78:	4b94      	ldr	r3, [pc, #592]	@ (80020cc <AMR_Update+0x8b0>)
 8001e7a:	6818      	ldr	r0, [r3, #0]
 8001e7c:	4b94      	ldr	r3, [pc, #592]	@ (80020d0 <AMR_Update+0x8b4>)
 8001e7e:	6819      	ldr	r1, [r3, #0]
 8001e80:	197b      	adds	r3, r7, r5
 8001e82:	681b      	ldr	r3, [r3, #0]
 8001e84:	193a      	adds	r2, r7, r4
 8001e86:	6812      	ldr	r2, [r2, #0]
 8001e88:	f7ff fc08 	bl	800169c <angle_from_pose_to_point_deg>
 8001e8c:	1c03      	adds	r3, r0, #0
 8001e8e:	67bb      	str	r3, [r7, #120]	@ 0x78
            float yaw_deg = (float)rounded_yaw_relative;
 8001e90:	4b90      	ldr	r3, [pc, #576]	@ (80020d4 <AMR_Update+0x8b8>)
 8001e92:	2200      	movs	r2, #0
 8001e94:	5e9b      	ldrsh	r3, [r3, r2]
 8001e96:	0018      	movs	r0, r3
 8001e98:	f7ff fab2 	bl	8001400 <__aeabi_i2f>
 8001e9c:	1c03      	adds	r3, r0, #0
 8001e9e:	677b      	str	r3, [r7, #116]	@ 0x74
            float err_deg = norm_deg(desired_deg - yaw_deg);
 8001ea0:	6f79      	ldr	r1, [r7, #116]	@ 0x74
 8001ea2:	6fb8      	ldr	r0, [r7, #120]	@ 0x78
 8001ea4:	f7ff f812 	bl	8000ecc <__aeabi_fsub>
 8001ea8:	1c03      	adds	r3, r0, #0
 8001eaa:	1c18      	adds	r0, r3, #0
 8001eac:	f7ff fba0 	bl	80015f0 <norm_deg>
 8001eb0:	1c03      	adds	r3, r0, #0
 8001eb2:	673b      	str	r3, [r7, #112]	@ 0x70
            float err_rad = err_deg * DEG_TO_RAD;
 8001eb4:	4988      	ldr	r1, [pc, #544]	@ (80020d8 <AMR_Update+0x8bc>)
 8001eb6:	6f38      	ldr	r0, [r7, #112]	@ 0x70
 8001eb8:	f7fe feae 	bl	8000c18 <__aeabi_fmul>
 8001ebc:	1c03      	adds	r3, r0, #0
 8001ebe:	66fb      	str	r3, [r7, #108]	@ 0x6c

            // compute W_req (P)
            float w = ANGLE_P_GAIN * err_rad;
 8001ec0:	4986      	ldr	r1, [pc, #536]	@ (80020dc <AMR_Update+0x8c0>)
 8001ec2:	6ef8      	ldr	r0, [r7, #108]	@ 0x6c
 8001ec4:	f7fe fea8 	bl	8000c18 <__aeabi_fmul>
 8001ec8:	1c03      	adds	r3, r0, #0
 8001eca:	248c      	movs	r4, #140	@ 0x8c
 8001ecc:	193a      	adds	r2, r7, r4
 8001ece:	6013      	str	r3, [r2, #0]
            if (w > amr_max_angular_speed) w = amr_max_angular_speed;
 8001ed0:	4b83      	ldr	r3, [pc, #524]	@ (80020e0 <AMR_Update+0x8c4>)
 8001ed2:	681b      	ldr	r3, [r3, #0]
 8001ed4:	1c19      	adds	r1, r3, #0
 8001ed6:	193b      	adds	r3, r7, r4
 8001ed8:	6818      	ldr	r0, [r3, #0]
 8001eda:	f7fe fab1 	bl	8000440 <__aeabi_fcmpgt>
 8001ede:	1e03      	subs	r3, r0, #0
 8001ee0:	d003      	beq.n	8001eea <AMR_Update+0x6ce>
 8001ee2:	4b7f      	ldr	r3, [pc, #508]	@ (80020e0 <AMR_Update+0x8c4>)
 8001ee4:	681b      	ldr	r3, [r3, #0]
 8001ee6:	193a      	adds	r2, r7, r4
 8001ee8:	6013      	str	r3, [r2, #0]
            if (w < -amr_max_angular_speed) w = -amr_max_angular_speed;
 8001eea:	4b7d      	ldr	r3, [pc, #500]	@ (80020e0 <AMR_Update+0x8c4>)
 8001eec:	681b      	ldr	r3, [r3, #0]
 8001eee:	2280      	movs	r2, #128	@ 0x80
 8001ef0:	0612      	lsls	r2, r2, #24
 8001ef2:	4053      	eors	r3, r2
 8001ef4:	1c19      	adds	r1, r3, #0
 8001ef6:	248c      	movs	r4, #140	@ 0x8c
 8001ef8:	193b      	adds	r3, r7, r4
 8001efa:	6818      	ldr	r0, [r3, #0]
 8001efc:	f7fe fa8c 	bl	8000418 <__aeabi_fcmplt>
 8001f00:	1e03      	subs	r3, r0, #0
 8001f02:	d006      	beq.n	8001f12 <AMR_Update+0x6f6>
 8001f04:	4b76      	ldr	r3, [pc, #472]	@ (80020e0 <AMR_Update+0x8c4>)
 8001f06:	681b      	ldr	r3, [r3, #0]
 8001f08:	2280      	movs	r2, #128	@ 0x80
 8001f0a:	0612      	lsls	r2, r2, #24
 8001f0c:	4053      	eors	r3, r2
 8001f0e:	193a      	adds	r2, r7, r4
 8001f10:	6013      	str	r3, [r2, #0]

            // compute desired V reduced by yaw error
            float yaw_abs_deg = fabsf(err_deg);
 8001f12:	6f3b      	ldr	r3, [r7, #112]	@ 0x70
 8001f14:	005b      	lsls	r3, r3, #1
 8001f16:	085b      	lsrs	r3, r3, #1
 8001f18:	66bb      	str	r3, [r7, #104]	@ 0x68
            float reduce = 0.0f;
 8001f1a:	2300      	movs	r3, #0
 8001f1c:	2488      	movs	r4, #136	@ 0x88
 8001f1e:	193a      	adds	r2, r7, r4
 8001f20:	6013      	str	r3, [r2, #0]
            if (yaw_abs_deg > ANGLE_SLOW_THRESH_DEG)
 8001f22:	4970      	ldr	r1, [pc, #448]	@ (80020e4 <AMR_Update+0x8c8>)
 8001f24:	6eb8      	ldr	r0, [r7, #104]	@ 0x68
 8001f26:	f7fe fa8b 	bl	8000440 <__aeabi_fcmpgt>
 8001f2a:	1e03      	subs	r3, r0, #0
 8001f2c:	d00b      	beq.n	8001f46 <AMR_Update+0x72a>
                reduce = (yaw_abs_deg - ANGLE_SLOW_THRESH_DEG) / (ANGLE_FULL_SLOW_DEG - ANGLE_SLOW_THRESH_DEG);
 8001f2e:	496d      	ldr	r1, [pc, #436]	@ (80020e4 <AMR_Update+0x8c8>)
 8001f30:	6eb8      	ldr	r0, [r7, #104]	@ 0x68
 8001f32:	f7fe ffcb 	bl	8000ecc <__aeabi_fsub>
 8001f36:	1c03      	adds	r3, r0, #0
 8001f38:	496b      	ldr	r1, [pc, #428]	@ (80020e8 <AMR_Update+0x8cc>)
 8001f3a:	1c18      	adds	r0, r3, #0
 8001f3c:	f7fe fc9e 	bl	800087c <__aeabi_fdiv>
 8001f40:	1c03      	adds	r3, r0, #0
 8001f42:	193a      	adds	r2, r7, r4
 8001f44:	6013      	str	r3, [r2, #0]
            if (reduce > 1.0f) reduce = 1.0f;
 8001f46:	21fe      	movs	r1, #254	@ 0xfe
 8001f48:	0589      	lsls	r1, r1, #22
 8001f4a:	2488      	movs	r4, #136	@ 0x88
 8001f4c:	193b      	adds	r3, r7, r4
 8001f4e:	6818      	ldr	r0, [r3, #0]
 8001f50:	f7fe fa76 	bl	8000440 <__aeabi_fcmpgt>
 8001f54:	1e03      	subs	r3, r0, #0
 8001f56:	d003      	beq.n	8001f60 <AMR_Update+0x744>
 8001f58:	23fe      	movs	r3, #254	@ 0xfe
 8001f5a:	059b      	lsls	r3, r3, #22
 8001f5c:	193a      	adds	r2, r7, r4
 8001f5e:	6013      	str	r3, [r2, #0]
            float targetV = amr_nominal_speed * (1.0f - reduce);
 8001f60:	2388      	movs	r3, #136	@ 0x88
 8001f62:	18fb      	adds	r3, r7, r3
 8001f64:	6819      	ldr	r1, [r3, #0]
 8001f66:	20fe      	movs	r0, #254	@ 0xfe
 8001f68:	0580      	lsls	r0, r0, #22
 8001f6a:	f7fe ffaf 	bl	8000ecc <__aeabi_fsub>
 8001f6e:	1c03      	adds	r3, r0, #0
 8001f70:	1c1a      	adds	r2, r3, #0
 8001f72:	4b5e      	ldr	r3, [pc, #376]	@ (80020ec <AMR_Update+0x8d0>)
 8001f74:	681b      	ldr	r3, [r3, #0]
 8001f76:	1c19      	adds	r1, r3, #0
 8001f78:	1c10      	adds	r0, r2, #0
 8001f7a:	f7fe fe4d 	bl	8000c18 <__aeabi_fmul>
 8001f7e:	1c03      	adds	r3, r0, #0
 8001f80:	667b      	str	r3, [r7, #100]	@ 0x64

            // ramping
            float maxInc = LINEAR_RAMP_ACC * 0.01f; // per 10ms step
 8001f82:	4b5b      	ldr	r3, [pc, #364]	@ (80020f0 <AMR_Update+0x8d4>)
 8001f84:	663b      	str	r3, [r7, #96]	@ 0x60
            if (lastV < targetV) {
 8001f86:	4b5b      	ldr	r3, [pc, #364]	@ (80020f4 <AMR_Update+0x8d8>)
 8001f88:	681b      	ldr	r3, [r3, #0]
 8001f8a:	1c19      	adds	r1, r3, #0
 8001f8c:	6e78      	ldr	r0, [r7, #100]	@ 0x64
 8001f8e:	f7fe fa57 	bl	8000440 <__aeabi_fcmpgt>
 8001f92:	1e03      	subs	r3, r0, #0
 8001f94:	d015      	beq.n	8001fc2 <AMR_Update+0x7a6>
                lastV += maxInc;
 8001f96:	4b57      	ldr	r3, [pc, #348]	@ (80020f4 <AMR_Update+0x8d8>)
 8001f98:	681b      	ldr	r3, [r3, #0]
 8001f9a:	6e39      	ldr	r1, [r7, #96]	@ 0x60
 8001f9c:	1c18      	adds	r0, r3, #0
 8001f9e:	f7fe fa7b 	bl	8000498 <__aeabi_fadd>
 8001fa2:	1c03      	adds	r3, r0, #0
 8001fa4:	1c1a      	adds	r2, r3, #0
 8001fa6:	4b53      	ldr	r3, [pc, #332]	@ (80020f4 <AMR_Update+0x8d8>)
 8001fa8:	601a      	str	r2, [r3, #0]
                if (lastV > targetV) lastV = targetV;
 8001faa:	4b52      	ldr	r3, [pc, #328]	@ (80020f4 <AMR_Update+0x8d8>)
 8001fac:	681b      	ldr	r3, [r3, #0]
 8001fae:	1c19      	adds	r1, r3, #0
 8001fb0:	6e78      	ldr	r0, [r7, #100]	@ 0x64
 8001fb2:	f7fe fa31 	bl	8000418 <__aeabi_fcmplt>
 8001fb6:	1e03      	subs	r3, r0, #0
 8001fb8:	d020      	beq.n	8001ffc <AMR_Update+0x7e0>
 8001fba:	4b4e      	ldr	r3, [pc, #312]	@ (80020f4 <AMR_Update+0x8d8>)
 8001fbc:	6e7a      	ldr	r2, [r7, #100]	@ 0x64
 8001fbe:	601a      	str	r2, [r3, #0]
 8001fc0:	e01c      	b.n	8001ffc <AMR_Update+0x7e0>
            } else if (lastV > targetV) {
 8001fc2:	4b4c      	ldr	r3, [pc, #304]	@ (80020f4 <AMR_Update+0x8d8>)
 8001fc4:	681b      	ldr	r3, [r3, #0]
 8001fc6:	1c19      	adds	r1, r3, #0
 8001fc8:	6e78      	ldr	r0, [r7, #100]	@ 0x64
 8001fca:	f7fe fa25 	bl	8000418 <__aeabi_fcmplt>
 8001fce:	1e03      	subs	r3, r0, #0
 8001fd0:	d014      	beq.n	8001ffc <AMR_Update+0x7e0>
                lastV -= maxInc;
 8001fd2:	4b48      	ldr	r3, [pc, #288]	@ (80020f4 <AMR_Update+0x8d8>)
 8001fd4:	681b      	ldr	r3, [r3, #0]
 8001fd6:	6e39      	ldr	r1, [r7, #96]	@ 0x60
 8001fd8:	1c18      	adds	r0, r3, #0
 8001fda:	f7fe ff77 	bl	8000ecc <__aeabi_fsub>
 8001fde:	1c03      	adds	r3, r0, #0
 8001fe0:	1c1a      	adds	r2, r3, #0
 8001fe2:	4b44      	ldr	r3, [pc, #272]	@ (80020f4 <AMR_Update+0x8d8>)
 8001fe4:	601a      	str	r2, [r3, #0]
                if (lastV < targetV) lastV = targetV;
 8001fe6:	4b43      	ldr	r3, [pc, #268]	@ (80020f4 <AMR_Update+0x8d8>)
 8001fe8:	681b      	ldr	r3, [r3, #0]
 8001fea:	1c19      	adds	r1, r3, #0
 8001fec:	6e78      	ldr	r0, [r7, #100]	@ 0x64
 8001fee:	f7fe fa27 	bl	8000440 <__aeabi_fcmpgt>
 8001ff2:	1e03      	subs	r3, r0, #0
 8001ff4:	d002      	beq.n	8001ffc <AMR_Update+0x7e0>
 8001ff6:	4b3f      	ldr	r3, [pc, #252]	@ (80020f4 <AMR_Update+0x8d8>)
 8001ff8:	6e7a      	ldr	r2, [r7, #100]	@ 0x64
 8001ffa:	601a      	str	r2, [r3, #0]
            }

            V_req = lastV;
 8001ffc:	4b3d      	ldr	r3, [pc, #244]	@ (80020f4 <AMR_Update+0x8d8>)
 8001ffe:	681a      	ldr	r2, [r3, #0]
 8002000:	4b3d      	ldr	r3, [pc, #244]	@ (80020f8 <AMR_Update+0x8dc>)
 8002002:	601a      	str	r2, [r3, #0]
            W_req = -w;
 8002004:	238c      	movs	r3, #140	@ 0x8c
 8002006:	18fb      	adds	r3, r7, r3
 8002008:	681b      	ldr	r3, [r3, #0]
 800200a:	2280      	movs	r2, #128	@ 0x80
 800200c:	0612      	lsls	r2, r2, #24
 800200e:	405a      	eors	r2, r3
 8002010:	4b3a      	ldr	r3, [pc, #232]	@ (80020fc <AMR_Update+0x8e0>)
 8002012:	601a      	str	r2, [r3, #0]
            apply_drive_refs();
 8002014:	f7ff fb6e 	bl	80016f4 <apply_drive_refs>

            // check arrival: if within threshold, step to next index
            if (dist <= position_error_threshold) {
 8002018:	4b39      	ldr	r3, [pc, #228]	@ (8002100 <AMR_Update+0x8e4>)
 800201a:	681b      	ldr	r3, [r3, #0]
 800201c:	1c19      	adds	r1, r3, #0
 800201e:	6ff8      	ldr	r0, [r7, #124]	@ 0x7c
 8002020:	f7fe fa04 	bl	800042c <__aeabi_fcmple>
 8002024:	1e03      	subs	r3, r0, #0
 8002026:	d100      	bne.n	800202a <AMR_Update+0x80e>
                        state = AMR_FINISHED;
                    }
                }
            }

            break;
 8002028:	e04a      	b.n	80020c0 <AMR_Update+0x8a4>
                if (current_index + 1 < valid_indexes) {
 800202a:	4b27      	ldr	r3, [pc, #156]	@ (80020c8 <AMR_Update+0x8ac>)
 800202c:	881b      	ldrh	r3, [r3, #0]
 800202e:	3301      	adds	r3, #1
 8002030:	4a34      	ldr	r2, [pc, #208]	@ (8002104 <AMR_Update+0x8e8>)
 8002032:	8812      	ldrh	r2, [r2, #0]
 8002034:	b292      	uxth	r2, r2
 8002036:	4293      	cmp	r3, r2
 8002038:	da17      	bge.n	800206a <AMR_Update+0x84e>
                    current_index++;
 800203a:	4b23      	ldr	r3, [pc, #140]	@ (80020c8 <AMR_Update+0x8ac>)
 800203c:	881b      	ldrh	r3, [r3, #0]
 800203e:	3301      	adds	r3, #1
 8002040:	b29a      	uxth	r2, r3
 8002042:	4b21      	ldr	r3, [pc, #132]	@ (80020c8 <AMR_Update+0x8ac>)
 8002044:	801a      	strh	r2, [r3, #0]
                    next_index = (current_index + 1 < valid_indexes) ? current_index + 1 : current_index;
 8002046:	4b20      	ldr	r3, [pc, #128]	@ (80020c8 <AMR_Update+0x8ac>)
 8002048:	881b      	ldrh	r3, [r3, #0]
 800204a:	3301      	adds	r3, #1
 800204c:	4a2d      	ldr	r2, [pc, #180]	@ (8002104 <AMR_Update+0x8e8>)
 800204e:	8812      	ldrh	r2, [r2, #0]
 8002050:	b292      	uxth	r2, r2
 8002052:	4293      	cmp	r3, r2
 8002054:	da04      	bge.n	8002060 <AMR_Update+0x844>
 8002056:	4b1c      	ldr	r3, [pc, #112]	@ (80020c8 <AMR_Update+0x8ac>)
 8002058:	881b      	ldrh	r3, [r3, #0]
 800205a:	3301      	adds	r3, #1
 800205c:	b29b      	uxth	r3, r3
 800205e:	e001      	b.n	8002064 <AMR_Update+0x848>
 8002060:	4b19      	ldr	r3, [pc, #100]	@ (80020c8 <AMR_Update+0x8ac>)
 8002062:	881b      	ldrh	r3, [r3, #0]
 8002064:	4a28      	ldr	r2, [pc, #160]	@ (8002108 <AMR_Update+0x8ec>)
 8002066:	8013      	strh	r3, [r2, #0]
            break;
 8002068:	e02a      	b.n	80020c0 <AMR_Update+0x8a4>
                    if (amr_loop_mode) {
 800206a:	4b28      	ldr	r3, [pc, #160]	@ (800210c <AMR_Update+0x8f0>)
 800206c:	781b      	ldrb	r3, [r3, #0]
 800206e:	2b00      	cmp	r3, #0
 8002070:	d00e      	beq.n	8002090 <AMR_Update+0x874>
                        current_index = 0;
 8002072:	4b15      	ldr	r3, [pc, #84]	@ (80020c8 <AMR_Update+0x8ac>)
 8002074:	2200      	movs	r2, #0
 8002076:	801a      	strh	r2, [r3, #0]
                        next_index = (valid_indexes > 1) ? 1 : 0;
 8002078:	4b22      	ldr	r3, [pc, #136]	@ (8002104 <AMR_Update+0x8e8>)
 800207a:	881b      	ldrh	r3, [r3, #0]
 800207c:	b29b      	uxth	r3, r3
 800207e:	2201      	movs	r2, #1
 8002080:	429a      	cmp	r2, r3
 8002082:	419b      	sbcs	r3, r3
 8002084:	425b      	negs	r3, r3
 8002086:	b2db      	uxtb	r3, r3
 8002088:	001a      	movs	r2, r3
 800208a:	4b1f      	ldr	r3, [pc, #124]	@ (8002108 <AMR_Update+0x8ec>)
 800208c:	801a      	strh	r2, [r3, #0]
            break;
 800208e:	e017      	b.n	80020c0 <AMR_Update+0x8a4>
                        V_req = 0.0f; W_req = 0.0f;
 8002090:	4b19      	ldr	r3, [pc, #100]	@ (80020f8 <AMR_Update+0x8dc>)
 8002092:	2200      	movs	r2, #0
 8002094:	601a      	str	r2, [r3, #0]
 8002096:	4b19      	ldr	r3, [pc, #100]	@ (80020fc <AMR_Update+0x8e0>)
 8002098:	2200      	movs	r2, #0
 800209a:	601a      	str	r2, [r3, #0]
                        apply_drive_refs();
 800209c:	f7ff fb2a 	bl	80016f4 <apply_drive_refs>
                        state = AMR_FINISHED;
 80020a0:	4b1b      	ldr	r3, [pc, #108]	@ (8002110 <AMR_Update+0x8f4>)
 80020a2:	2206      	movs	r2, #6
 80020a4:	701a      	strb	r2, [r3, #0]
            break;
 80020a6:	e00b      	b.n	80020c0 <AMR_Update+0x8a4>
        }

        case AMR_FINISHED:
            // stopped, report done, keep motors idle
            V_req = 0.0f; W_req = 0.0f;
 80020a8:	4b13      	ldr	r3, [pc, #76]	@ (80020f8 <AMR_Update+0x8dc>)
 80020aa:	2200      	movs	r2, #0
 80020ac:	601a      	str	r2, [r3, #0]
 80020ae:	4b13      	ldr	r3, [pc, #76]	@ (80020fc <AMR_Update+0x8e0>)
 80020b0:	2200      	movs	r2, #0
 80020b2:	601a      	str	r2, [r3, #0]
            apply_drive_refs();
 80020b4:	f7ff fb1e 	bl	80016f4 <apply_drive_refs>
            amr_active = 0;
 80020b8:	4b16      	ldr	r3, [pc, #88]	@ (8002114 <AMR_Update+0x8f8>)
 80020ba:	2200      	movs	r2, #0
 80020bc:	701a      	strb	r2, [r3, #0]
            // stay in FINISHED until external reset or start
            break;
 80020be:	46c0      	nop			@ (mov r8, r8)
    } // switch
}
 80020c0:	46bd      	mov	sp, r7
 80020c2:	b028      	add	sp, #160	@ 0xa0
 80020c4:	bdb0      	pop	{r4, r5, r7, pc}
 80020c6:	46c0      	nop			@ (mov r8, r8)
 80020c8:	2000009c 	.word	0x2000009c
 80020cc:	200009a0 	.word	0x200009a0
 80020d0:	200009a4 	.word	0x200009a4
 80020d4:	200009b4 	.word	0x200009b4
 80020d8:	3c8efa35 	.word	0x3c8efa35
 80020dc:	3fb33333 	.word	0x3fb33333
 80020e0:	20000008 	.word	0x20000008
 80020e4:	41700000 	.word	0x41700000
 80020e8:	41f00000 	.word	0x41f00000
 80020ec:	20000004 	.word	0x20000004
 80020f0:	3b83126f 	.word	0x3b83126f
 80020f4:	200000a0 	.word	0x200000a0
 80020f8:	200009fc 	.word	0x200009fc
 80020fc:	20000a00 	.word	0x20000a00
 8002100:	20000000 	.word	0x20000000
 8002104:	200000f2 	.word	0x200000f2
 8002108:	2000009e 	.word	0x2000009e
 800210c:	20000095 	.word	0x20000095
 8002110:	20000096 	.word	0x20000096
 8002114:	20000094 	.word	0x20000094

08002118 <__NVIC_EnableIRQ>:
  \details Enables a device specific interrupt in the NVIC interrupt controller.
  \param [in]      IRQn  Device specific interrupt number.
  \note    IRQn must not be negative.
 */
__STATIC_INLINE void __NVIC_EnableIRQ(IRQn_Type IRQn)
{
 8002118:	b580      	push	{r7, lr}
 800211a:	b082      	sub	sp, #8
 800211c:	af00      	add	r7, sp, #0
 800211e:	0002      	movs	r2, r0
 8002120:	1dfb      	adds	r3, r7, #7
 8002122:	701a      	strb	r2, [r3, #0]
  if ((int32_t)(IRQn) >= 0)
 8002124:	1dfb      	adds	r3, r7, #7
 8002126:	781b      	ldrb	r3, [r3, #0]
 8002128:	2b7f      	cmp	r3, #127	@ 0x7f
 800212a:	d809      	bhi.n	8002140 <__NVIC_EnableIRQ+0x28>
  {
    NVIC->ISER[0U] = (uint32_t)(1UL << (((uint32_t)IRQn) & 0x1FUL));
 800212c:	1dfb      	adds	r3, r7, #7
 800212e:	781b      	ldrb	r3, [r3, #0]
 8002130:	001a      	movs	r2, r3
 8002132:	231f      	movs	r3, #31
 8002134:	401a      	ands	r2, r3
 8002136:	4b04      	ldr	r3, [pc, #16]	@ (8002148 <__NVIC_EnableIRQ+0x30>)
 8002138:	2101      	movs	r1, #1
 800213a:	4091      	lsls	r1, r2
 800213c:	000a      	movs	r2, r1
 800213e:	601a      	str	r2, [r3, #0]
  }
}
 8002140:	46c0      	nop			@ (mov r8, r8)
 8002142:	46bd      	mov	sp, r7
 8002144:	b002      	add	sp, #8
 8002146:	bd80      	pop	{r7, pc}
 8002148:	e000e100 	.word	0xe000e100

0800214c <USART2_Init>:
volatile uint8_t posy_big = 0;
volatile uint8_t posy_small = 0;


void USART2_Init(void) //Bluetooth Setup
{
 800214c:	b580      	push	{r7, lr}
 800214e:	af00      	add	r7, sp, #0
	// ENABLE A PINS...
	RCC->AHBENR |= RCC_AHBENR_GPIOAEN;
 8002150:	4b1d      	ldr	r3, [pc, #116]	@ (80021c8 <USART2_Init+0x7c>)
 8002152:	695a      	ldr	r2, [r3, #20]
 8002154:	4b1c      	ldr	r3, [pc, #112]	@ (80021c8 <USART2_Init+0x7c>)
 8002156:	2180      	movs	r1, #128	@ 0x80
 8002158:	0289      	lsls	r1, r1, #10
 800215a:	430a      	orrs	r2, r1
 800215c:	615a      	str	r2, [r3, #20]
	// PA2 (TX) and PA3 (RX) to alternate function
	GPIOA->MODER &= ~((3 << (2 * 2)) | (3 << (3 * 2)));   // Clear
 800215e:	2390      	movs	r3, #144	@ 0x90
 8002160:	05db      	lsls	r3, r3, #23
 8002162:	681a      	ldr	r2, [r3, #0]
 8002164:	2390      	movs	r3, #144	@ 0x90
 8002166:	05db      	lsls	r3, r3, #23
 8002168:	21f0      	movs	r1, #240	@ 0xf0
 800216a:	438a      	bics	r2, r1
 800216c:	601a      	str	r2, [r3, #0]
	GPIOA->MODER |=  (2 << (2 * 2)) | (2 << (3 * 2));     // AF mode
 800216e:	2390      	movs	r3, #144	@ 0x90
 8002170:	05db      	lsls	r3, r3, #23
 8002172:	681a      	ldr	r2, [r3, #0]
 8002174:	2390      	movs	r3, #144	@ 0x90
 8002176:	05db      	lsls	r3, r3, #23
 8002178:	21a0      	movs	r1, #160	@ 0xa0
 800217a:	430a      	orrs	r2, r1
 800217c:	601a      	str	r2, [r3, #0]
	GPIOA->AFR[0] |= (1 << (4 * 2)) | (1 << (4 * 3));     // AF1 (USART2)
 800217e:	2390      	movs	r3, #144	@ 0x90
 8002180:	05db      	lsls	r3, r3, #23
 8002182:	6a1a      	ldr	r2, [r3, #32]
 8002184:	2390      	movs	r3, #144	@ 0x90
 8002186:	05db      	lsls	r3, r3, #23
 8002188:	2188      	movs	r1, #136	@ 0x88
 800218a:	0149      	lsls	r1, r1, #5
 800218c:	430a      	orrs	r2, r1
 800218e:	621a      	str	r2, [r3, #32]
	GPIOA->PUPDR |= (1 << (2*2)) | (1 << (3*2)); // Pull-up
 8002190:	2390      	movs	r3, #144	@ 0x90
 8002192:	05db      	lsls	r3, r3, #23
 8002194:	68da      	ldr	r2, [r3, #12]
 8002196:	2390      	movs	r3, #144	@ 0x90
 8002198:	05db      	lsls	r3, r3, #23
 800219a:	2150      	movs	r1, #80	@ 0x50
 800219c:	430a      	orrs	r2, r1
 800219e:	60da      	str	r2, [r3, #12]

    RCC->APB1ENR |= RCC_APB1ENR_USART2EN;
 80021a0:	4b09      	ldr	r3, [pc, #36]	@ (80021c8 <USART2_Init+0x7c>)
 80021a2:	69da      	ldr	r2, [r3, #28]
 80021a4:	4b08      	ldr	r3, [pc, #32]	@ (80021c8 <USART2_Init+0x7c>)
 80021a6:	2180      	movs	r1, #128	@ 0x80
 80021a8:	0289      	lsls	r1, r1, #10
 80021aa:	430a      	orrs	r2, r1
 80021ac:	61da      	str	r2, [r3, #28]

    USART2->BRR = 8000000 / BAUD_RATE; // 8 MHz clock, 38400 baud  BRR = 208
 80021ae:	4b07      	ldr	r3, [pc, #28]	@ (80021cc <USART2_Init+0x80>)
 80021b0:	22d0      	movs	r2, #208	@ 0xd0
 80021b2:	60da      	str	r2, [r3, #12]
    USART2->CR1 = USART_CR1_TE | USART_CR1_RE | USART_CR1_UE | USART_CR1_RXNEIE; // Enable TX, RX, USART
 80021b4:	4b05      	ldr	r3, [pc, #20]	@ (80021cc <USART2_Init+0x80>)
 80021b6:	222d      	movs	r2, #45	@ 0x2d
 80021b8:	601a      	str	r2, [r3, #0]
    NVIC_EnableIRQ(USART2_IRQn); // Enable USART2 interrupt in NVIC
 80021ba:	201c      	movs	r0, #28
 80021bc:	f7ff ffac 	bl	8002118 <__NVIC_EnableIRQ>
}
 80021c0:	46c0      	nop			@ (mov r8, r8)
 80021c2:	46bd      	mov	sp, r7
 80021c4:	bd80      	pop	{r7, pc}
 80021c6:	46c0      	nop			@ (mov r8, r8)
 80021c8:	40021000 	.word	0x40021000
 80021cc:	40004400 	.word	0x40004400

080021d0 <USART2_IRQHandler>:

void USART2_IRQHandler(void) // Bluetooth RX
{
 80021d0:	b580      	push	{r7, lr}
 80021d2:	b082      	sub	sp, #8
 80021d4:	af00      	add	r7, sp, #0
    if (USART2->ISR & USART_ISR_RXNE)
 80021d6:	4b37      	ldr	r3, [pc, #220]	@ (80022b4 <USART2_IRQHandler+0xe4>)
 80021d8:	69db      	ldr	r3, [r3, #28]
 80021da:	2220      	movs	r2, #32
 80021dc:	4013      	ands	r3, r2
 80021de:	d066      	beq.n	80022ae <USART2_IRQHandler+0xde>
    {
        uint8_t data = USART2->RDR;
 80021e0:	4b34      	ldr	r3, [pc, #208]	@ (80022b4 <USART2_IRQHandler+0xe4>)
 80021e2:	8c9b      	ldrh	r3, [r3, #36]	@ 0x24
 80021e4:	b29a      	uxth	r2, r3
 80021e6:	1dfb      	adds	r3, r7, #7
 80021e8:	701a      	strb	r2, [r3, #0]

        // --- 1. Start-of-packet sync check ---
        if (rx_index == 0 && data != 255)
 80021ea:	4b33      	ldr	r3, [pc, #204]	@ (80022b8 <USART2_IRQHandler+0xe8>)
 80021ec:	781b      	ldrb	r3, [r3, #0]
 80021ee:	b2db      	uxtb	r3, r3
 80021f0:	2b00      	cmp	r3, #0
 80021f2:	d113      	bne.n	800221c <USART2_IRQHandler+0x4c>
 80021f4:	1dfb      	adds	r3, r7, #7
 80021f6:	781b      	ldrb	r3, [r3, #0]
 80021f8:	2bff      	cmp	r3, #255	@ 0xff
 80021fa:	d00f      	beq.n	800221c <USART2_IRQHandler+0x4c>
        {
            // If first byte isnt the expected header (255),
            // flush and resync.
            USART2->RQR |= USART_RQR_RXFRQ; // clear RX flag
 80021fc:	4b2d      	ldr	r3, [pc, #180]	@ (80022b4 <USART2_IRQHandler+0xe4>)
 80021fe:	699a      	ldr	r2, [r3, #24]
 8002200:	4b2c      	ldr	r3, [pc, #176]	@ (80022b4 <USART2_IRQHandler+0xe4>)
 8002202:	2108      	movs	r1, #8
 8002204:	430a      	orrs	r2, r1
 8002206:	619a      	str	r2, [r3, #24]
            volatile uint8_t dummy = USART2->RDR; // read once to fully flush
 8002208:	4b2a      	ldr	r3, [pc, #168]	@ (80022b4 <USART2_IRQHandler+0xe4>)
 800220a:	8c9b      	ldrh	r3, [r3, #36]	@ 0x24
 800220c:	b29b      	uxth	r3, r3
 800220e:	b2da      	uxtb	r2, r3
 8002210:	1dbb      	adds	r3, r7, #6
 8002212:	701a      	strb	r2, [r3, #0]
            rx_index = 0;
 8002214:	4b28      	ldr	r3, [pc, #160]	@ (80022b8 <USART2_IRQHandler+0xe8>)
 8002216:	2200      	movs	r2, #0
 8002218:	701a      	strb	r2, [r3, #0]
            return;
 800221a:	e048      	b.n	80022ae <USART2_IRQHandler+0xde>
        }

        // --- 2. Store byte ---
        rx_buffer[rx_index++] = data;
 800221c:	4b26      	ldr	r3, [pc, #152]	@ (80022b8 <USART2_IRQHandler+0xe8>)
 800221e:	781b      	ldrb	r3, [r3, #0]
 8002220:	b2db      	uxtb	r3, r3
 8002222:	1c5a      	adds	r2, r3, #1
 8002224:	b2d1      	uxtb	r1, r2
 8002226:	4a24      	ldr	r2, [pc, #144]	@ (80022b8 <USART2_IRQHandler+0xe8>)
 8002228:	7011      	strb	r1, [r2, #0]
 800222a:	0019      	movs	r1, r3
 800222c:	4b23      	ldr	r3, [pc, #140]	@ (80022bc <USART2_IRQHandler+0xec>)
 800222e:	1dfa      	adds	r2, r7, #7
 8002230:	7812      	ldrb	r2, [r2, #0]
 8002232:	545a      	strb	r2, [r3, r1]

        // --- 3. Full packet received? ---
        if (rx_index == 8)
 8002234:	4b20      	ldr	r3, [pc, #128]	@ (80022b8 <USART2_IRQHandler+0xe8>)
 8002236:	781b      	ldrb	r3, [r3, #0]
 8002238:	b2db      	uxtb	r3, r3
 800223a:	2b08      	cmp	r3, #8
 800223c:	d137      	bne.n	80022ae <USART2_IRQHandler+0xde>
        {
            raw_x  = rx_buffer[1];
 800223e:	4b1f      	ldr	r3, [pc, #124]	@ (80022bc <USART2_IRQHandler+0xec>)
 8002240:	785b      	ldrb	r3, [r3, #1]
 8002242:	b2db      	uxtb	r3, r3
 8002244:	b21a      	sxth	r2, r3
 8002246:	4b1e      	ldr	r3, [pc, #120]	@ (80022c0 <USART2_IRQHandler+0xf0>)
 8002248:	801a      	strh	r2, [r3, #0]
            raw_y  = rx_buffer[2];
 800224a:	4b1c      	ldr	r3, [pc, #112]	@ (80022bc <USART2_IRQHandler+0xec>)
 800224c:	789b      	ldrb	r3, [r3, #2]
 800224e:	b2db      	uxtb	r3, r3
 8002250:	b21a      	sxth	r2, r3
 8002252:	4b1c      	ldr	r3, [pc, #112]	@ (80022c4 <USART2_IRQHandler+0xf4>)
 8002254:	801a      	strh	r2, [r3, #0]
           	menu_button = rx_buffer[3];
 8002256:	4b19      	ldr	r3, [pc, #100]	@ (80022bc <USART2_IRQHandler+0xec>)
 8002258:	78db      	ldrb	r3, [r3, #3]
 800225a:	b2da      	uxtb	r2, r3
 800225c:	4b1a      	ldr	r3, [pc, #104]	@ (80022c8 <USART2_IRQHandler+0xf8>)
 800225e:	701a      	strb	r2, [r3, #0]

            coded_route_recieved = rx_buffer[4];
 8002260:	4b16      	ldr	r3, [pc, #88]	@ (80022bc <USART2_IRQHandler+0xec>)
 8002262:	791b      	ldrb	r3, [r3, #4]
 8002264:	b2da      	uxtb	r2, r3
 8002266:	4b19      	ldr	r3, [pc, #100]	@ (80022cc <USART2_IRQHandler+0xfc>)
 8002268:	701a      	strb	r2, [r3, #0]
            coded_recieved_bool1 = rx_buffer[5];
 800226a:	4b14      	ldr	r3, [pc, #80]	@ (80022bc <USART2_IRQHandler+0xec>)
 800226c:	795b      	ldrb	r3, [r3, #5]
 800226e:	b2da      	uxtb	r2, r3
 8002270:	4b17      	ldr	r3, [pc, #92]	@ (80022d0 <USART2_IRQHandler+0x100>)
 8002272:	701a      	strb	r2, [r3, #0]
            station_wait_time = rx_buffer[6];
 8002274:	4b11      	ldr	r3, [pc, #68]	@ (80022bc <USART2_IRQHandler+0xec>)
 8002276:	799b      	ldrb	r3, [r3, #6]
 8002278:	b2da      	uxtb	r2, r3
 800227a:	4b16      	ldr	r3, [pc, #88]	@ (80022d4 <USART2_IRQHandler+0x104>)
 800227c:	701a      	strb	r2, [r3, #0]
            auto_set_speed = rx_buffer[7];
 800227e:	4b0f      	ldr	r3, [pc, #60]	@ (80022bc <USART2_IRQHandler+0xec>)
 8002280:	79db      	ldrb	r3, [r3, #7]
 8002282:	b2da      	uxtb	r2, r3
 8002284:	4b14      	ldr	r3, [pc, #80]	@ (80022d8 <USART2_IRQHandler+0x108>)
 8002286:	701a      	strb	r2, [r3, #0]

            // Reset for next packet
            rx_index = 0;
 8002288:	4b0b      	ldr	r3, [pc, #44]	@ (80022b8 <USART2_IRQHandler+0xe8>)
 800228a:	2200      	movs	r2, #0
 800228c:	701a      	strb	r2, [r3, #0]

            // --- 4. Detect first connection packet ---
            if (first_connection == 0 && rx_buffer[0] == 255)
 800228e:	4b13      	ldr	r3, [pc, #76]	@ (80022dc <USART2_IRQHandler+0x10c>)
 8002290:	781b      	ldrb	r3, [r3, #0]
 8002292:	b2db      	uxtb	r3, r3
 8002294:	2b00      	cmp	r3, #0
 8002296:	d10a      	bne.n	80022ae <USART2_IRQHandler+0xde>
 8002298:	4b08      	ldr	r3, [pc, #32]	@ (80022bc <USART2_IRQHandler+0xec>)
 800229a:	781b      	ldrb	r3, [r3, #0]
 800229c:	b2db      	uxtb	r3, r3
 800229e:	2bff      	cmp	r3, #255	@ 0xff
 80022a0:	d105      	bne.n	80022ae <USART2_IRQHandler+0xde>
            {
                LED_action = 1;
 80022a2:	4b0f      	ldr	r3, [pc, #60]	@ (80022e0 <USART2_IRQHandler+0x110>)
 80022a4:	2201      	movs	r2, #1
 80022a6:	701a      	strb	r2, [r3, #0]
                first_connection = 1;
 80022a8:	4b0c      	ldr	r3, [pc, #48]	@ (80022dc <USART2_IRQHandler+0x10c>)
 80022aa:	2201      	movs	r2, #1
 80022ac:	701a      	strb	r2, [r3, #0]
            }
        }
    }
}
 80022ae:	46bd      	mov	sp, r7
 80022b0:	b002      	add	sp, #8
 80022b2:	bd80      	pop	{r7, pc}
 80022b4:	40004400 	.word	0x40004400
 80022b8:	200000b4 	.word	0x200000b4
 80022bc:	200000ac 	.word	0x200000ac
 80022c0:	2000000c 	.word	0x2000000c
 80022c4:	2000000e 	.word	0x2000000e
 80022c8:	200000a8 	.word	0x200000a8
 80022cc:	200000aa 	.word	0x200000aa
 80022d0:	200000a9 	.word	0x200000a9
 80022d4:	20000011 	.word	0x20000011
 80022d8:	20000010 	.word	0x20000010
 80022dc:	200000b5 	.word	0x200000b5
 80022e0:	200000ec 	.word	0x200000ec

080022e4 <USART2_send>:



void USART2_send(uint8_t b)
{
 80022e4:	b580      	push	{r7, lr}
 80022e6:	b082      	sub	sp, #8
 80022e8:	af00      	add	r7, sp, #0
 80022ea:	0002      	movs	r2, r0
 80022ec:	1dfb      	adds	r3, r7, #7
 80022ee:	701a      	strb	r2, [r3, #0]
    while (!(USART2->ISR & USART_ISR_TXE));  // Wait until TX buffer empty
 80022f0:	46c0      	nop			@ (mov r8, r8)
 80022f2:	4b07      	ldr	r3, [pc, #28]	@ (8002310 <USART2_send+0x2c>)
 80022f4:	69db      	ldr	r3, [r3, #28]
 80022f6:	2280      	movs	r2, #128	@ 0x80
 80022f8:	4013      	ands	r3, r2
 80022fa:	d0fa      	beq.n	80022f2 <USART2_send+0xe>
    USART2->TDR = b;
 80022fc:	4a04      	ldr	r2, [pc, #16]	@ (8002310 <USART2_send+0x2c>)
 80022fe:	1dfb      	adds	r3, r7, #7
 8002300:	781b      	ldrb	r3, [r3, #0]
 8002302:	b29b      	uxth	r3, r3
 8002304:	8513      	strh	r3, [r2, #40]	@ 0x28
}
 8002306:	46c0      	nop			@ (mov r8, r8)
 8002308:	46bd      	mov	sp, r7
 800230a:	b002      	add	sp, #8
 800230c:	bd80      	pop	{r7, pc}
 800230e:	46c0      	nop			@ (mov r8, r8)
 8002310:	40004400 	.word	0x40004400

08002314 <BT_SendTelemetry>:

void BT_SendTelemetry(void)
{
 8002314:	b580      	push	{r7, lr}
 8002316:	b084      	sub	sp, #16
 8002318:	af00      	add	r7, sp, #0
    // Sent Packet
	uint8_t packet[11];
	packet[0] = 0xAA;          // header
 800231a:	003b      	movs	r3, r7
 800231c:	22aa      	movs	r2, #170	@ 0xaa
 800231e:	701a      	strb	r2, [r3, #0]
	packet[1] = (uint8_t)linear_velocity;
 8002320:	4b26      	ldr	r3, [pc, #152]	@ (80023bc <BT_SendTelemetry+0xa8>)
 8002322:	781b      	ldrb	r3, [r3, #0]
 8002324:	b2da      	uxtb	r2, r3
 8002326:	003b      	movs	r3, r7
 8002328:	705a      	strb	r2, [r3, #1]
	packet[2] = (uint8_t)angular_velocity;
 800232a:	4b25      	ldr	r3, [pc, #148]	@ (80023c0 <BT_SendTelemetry+0xac>)
 800232c:	781b      	ldrb	r3, [r3, #0]
 800232e:	b2da      	uxtb	r2, r3
 8002330:	003b      	movs	r3, r7
 8002332:	709a      	strb	r2, [r3, #2]
	packet[3] = (uint8_t)tmp_data;
 8002334:	4b23      	ldr	r3, [pc, #140]	@ (80023c4 <BT_SendTelemetry+0xb0>)
 8002336:	781b      	ldrb	r3, [r3, #0]
 8002338:	b2da      	uxtb	r2, r3
 800233a:	003b      	movs	r3, r7
 800233c:	70da      	strb	r2, [r3, #3]
	packet[4] = (uint8_t)near_obj;
 800233e:	4b22      	ldr	r3, [pc, #136]	@ (80023c8 <BT_SendTelemetry+0xb4>)
 8002340:	781b      	ldrb	r3, [r3, #0]
 8002342:	b2da      	uxtb	r2, r3
 8002344:	003b      	movs	r3, r7
 8002346:	711a      	strb	r2, [r3, #4]
	packet[5] = (uint8_t)colorin;
 8002348:	4b20      	ldr	r3, [pc, #128]	@ (80023cc <BT_SendTelemetry+0xb8>)
 800234a:	781b      	ldrb	r3, [r3, #0]
 800234c:	b2da      	uxtb	r2, r3
 800234e:	003b      	movs	r3, r7
 8002350:	715a      	strb	r2, [r3, #5]
	packet[6] = (uint8_t)voltage_sent;
 8002352:	4b1f      	ldr	r3, [pc, #124]	@ (80023d0 <BT_SendTelemetry+0xbc>)
 8002354:	781b      	ldrb	r3, [r3, #0]
 8002356:	b2da      	uxtb	r2, r3
 8002358:	003b      	movs	r3, r7
 800235a:	719a      	strb	r2, [r3, #6]
	packet[7] = (uint8_t)posx_big;
 800235c:	4b1d      	ldr	r3, [pc, #116]	@ (80023d4 <BT_SendTelemetry+0xc0>)
 800235e:	781b      	ldrb	r3, [r3, #0]
 8002360:	b2da      	uxtb	r2, r3
 8002362:	003b      	movs	r3, r7
 8002364:	71da      	strb	r2, [r3, #7]
	packet[8] = (uint8_t)posx_small;
 8002366:	4b1c      	ldr	r3, [pc, #112]	@ (80023d8 <BT_SendTelemetry+0xc4>)
 8002368:	781b      	ldrb	r3, [r3, #0]
 800236a:	b2da      	uxtb	r2, r3
 800236c:	003b      	movs	r3, r7
 800236e:	721a      	strb	r2, [r3, #8]
	packet[9] = (uint8_t)posy_big;
 8002370:	4b1a      	ldr	r3, [pc, #104]	@ (80023dc <BT_SendTelemetry+0xc8>)
 8002372:	781b      	ldrb	r3, [r3, #0]
 8002374:	b2da      	uxtb	r2, r3
 8002376:	003b      	movs	r3, r7
 8002378:	725a      	strb	r2, [r3, #9]
	packet[10] = (uint8_t)posy_small;
 800237a:	4b19      	ldr	r3, [pc, #100]	@ (80023e0 <BT_SendTelemetry+0xcc>)
 800237c:	781b      	ldrb	r3, [r3, #0]
 800237e:	b2da      	uxtb	r2, r3
 8002380:	003b      	movs	r3, r7
 8002382:	729a      	strb	r2, [r3, #10]

    for (int i = 0; i < 11; i++){
 8002384:	2300      	movs	r3, #0
 8002386:	60fb      	str	r3, [r7, #12]
 8002388:	e009      	b.n	800239e <BT_SendTelemetry+0x8a>
        USART2_send(packet[i]);
 800238a:	003a      	movs	r2, r7
 800238c:	68fb      	ldr	r3, [r7, #12]
 800238e:	18d3      	adds	r3, r2, r3
 8002390:	781b      	ldrb	r3, [r3, #0]
 8002392:	0018      	movs	r0, r3
 8002394:	f7ff ffa6 	bl	80022e4 <USART2_send>
    for (int i = 0; i < 11; i++){
 8002398:	68fb      	ldr	r3, [r7, #12]
 800239a:	3301      	adds	r3, #1
 800239c:	60fb      	str	r3, [r7, #12]
 800239e:	68fb      	ldr	r3, [r7, #12]
 80023a0:	2b0a      	cmp	r3, #10
 80023a2:	ddf2      	ble.n	800238a <BT_SendTelemetry+0x76>
    }
    while (!(USART2->ISR & USART_ISR_TC));
 80023a4:	46c0      	nop			@ (mov r8, r8)
 80023a6:	4b0f      	ldr	r3, [pc, #60]	@ (80023e4 <BT_SendTelemetry+0xd0>)
 80023a8:	69db      	ldr	r3, [r3, #28]
 80023aa:	2240      	movs	r2, #64	@ 0x40
 80023ac:	4013      	ands	r3, r2
 80023ae:	d0fa      	beq.n	80023a6 <BT_SendTelemetry+0x92>
}
 80023b0:	46c0      	nop			@ (mov r8, r8)
 80023b2:	46c0      	nop			@ (mov r8, r8)
 80023b4:	46bd      	mov	sp, r7
 80023b6:	b004      	add	sp, #16
 80023b8:	bd80      	pop	{r7, pc}
 80023ba:	46c0      	nop			@ (mov r8, r8)
 80023bc:	200000b6 	.word	0x200000b6
 80023c0:	200000b7 	.word	0x200000b7
 80023c4:	200000b8 	.word	0x200000b8
 80023c8:	200000b9 	.word	0x200000b9
 80023cc:	20000012 	.word	0x20000012
 80023d0:	200000ba 	.word	0x200000ba
 80023d4:	200000bb 	.word	0x200000bb
 80023d8:	200000bc 	.word	0x200000bc
 80023dc:	200000bd 	.word	0x200000bd
 80023e0:	200000be 	.word	0x200000be
 80023e4:	40004400 	.word	0x40004400

080023e8 <__NVIC_EnableIRQ>:
{
 80023e8:	b580      	push	{r7, lr}
 80023ea:	b082      	sub	sp, #8
 80023ec:	af00      	add	r7, sp, #0
 80023ee:	0002      	movs	r2, r0
 80023f0:	1dfb      	adds	r3, r7, #7
 80023f2:	701a      	strb	r2, [r3, #0]
  if ((int32_t)(IRQn) >= 0)
 80023f4:	1dfb      	adds	r3, r7, #7
 80023f6:	781b      	ldrb	r3, [r3, #0]
 80023f8:	2b7f      	cmp	r3, #127	@ 0x7f
 80023fa:	d809      	bhi.n	8002410 <__NVIC_EnableIRQ+0x28>
    NVIC->ISER[0U] = (uint32_t)(1UL << (((uint32_t)IRQn) & 0x1FUL));
 80023fc:	1dfb      	adds	r3, r7, #7
 80023fe:	781b      	ldrb	r3, [r3, #0]
 8002400:	001a      	movs	r2, r3
 8002402:	231f      	movs	r3, #31
 8002404:	401a      	ands	r2, r3
 8002406:	4b04      	ldr	r3, [pc, #16]	@ (8002418 <__NVIC_EnableIRQ+0x30>)
 8002408:	2101      	movs	r1, #1
 800240a:	4091      	lsls	r1, r2
 800240c:	000a      	movs	r2, r1
 800240e:	601a      	str	r2, [r3, #0]
}
 8002410:	46c0      	nop			@ (mov r8, r8)
 8002412:	46bd      	mov	sp, r7
 8002414:	b002      	add	sp, #8
 8002416:	bd80      	pop	{r7, pc}
 8002418:	e000e100 	.word	0xe000e100

0800241c <init_GPIO_EXTI_encoders>:
float rpm_2_filtered = 0.0f;	// GOOD PWM 2 = right
float prev_rpm_1 = 0.0f; //Referencia rpm para transfer function
float prev_rpm_2 = 0.0f; //Referencia rpm para transfer function

// --- call this once at startup (after clocks/GPIO init) ---
void init_GPIO_EXTI_encoders(void) {
 800241c:	b580      	push	{r7, lr}
 800241e:	af00      	add	r7, sp, #0
    // Ensure GPIOA / GPIOB clocks enabled
    RCC->AHBENR |= RCC_AHBENR_GPIOAEN | RCC_AHBENR_GPIOBEN;
 8002420:	4b2b      	ldr	r3, [pc, #172]	@ (80024d0 <init_GPIO_EXTI_encoders+0xb4>)
 8002422:	695a      	ldr	r2, [r3, #20]
 8002424:	4b2a      	ldr	r3, [pc, #168]	@ (80024d0 <init_GPIO_EXTI_encoders+0xb4>)
 8002426:	21c0      	movs	r1, #192	@ 0xc0
 8002428:	02c9      	lsls	r1, r1, #11
 800242a:	430a      	orrs	r2, r1
 800242c:	615a      	str	r2, [r3, #20]

    // Enable SYSCFG clock (needed to route EXTI lines)
    RCC->APB2ENR |= RCC_APB2ENR_SYSCFGEN;
 800242e:	4b28      	ldr	r3, [pc, #160]	@ (80024d0 <init_GPIO_EXTI_encoders+0xb4>)
 8002430:	699a      	ldr	r2, [r3, #24]
 8002432:	4b27      	ldr	r3, [pc, #156]	@ (80024d0 <init_GPIO_EXTI_encoders+0xb4>)
 8002434:	2101      	movs	r1, #1
 8002436:	430a      	orrs	r2, r1
 8002438:	619a      	str	r2, [r3, #24]

    // Configure inputs with pull-ups:
    // Encoder1: PB4 (A), PB5 (B)
    GPIOB->MODER &= ~((3 << (4 * 2)) | (3 << (5 * 2)));
 800243a:	4b26      	ldr	r3, [pc, #152]	@ (80024d4 <init_GPIO_EXTI_encoders+0xb8>)
 800243c:	681a      	ldr	r2, [r3, #0]
 800243e:	4b25      	ldr	r3, [pc, #148]	@ (80024d4 <init_GPIO_EXTI_encoders+0xb8>)
 8002440:	4925      	ldr	r1, [pc, #148]	@ (80024d8 <init_GPIO_EXTI_encoders+0xbc>)
 8002442:	400a      	ands	r2, r1
 8002444:	601a      	str	r2, [r3, #0]
    GPIOB->PUPDR &= ~((3 << (4 * 2)) | (3 << (5 * 2)));
 8002446:	4b23      	ldr	r3, [pc, #140]	@ (80024d4 <init_GPIO_EXTI_encoders+0xb8>)
 8002448:	68da      	ldr	r2, [r3, #12]
 800244a:	4b22      	ldr	r3, [pc, #136]	@ (80024d4 <init_GPIO_EXTI_encoders+0xb8>)
 800244c:	4922      	ldr	r1, [pc, #136]	@ (80024d8 <init_GPIO_EXTI_encoders+0xbc>)
 800244e:	400a      	ands	r2, r1
 8002450:	60da      	str	r2, [r3, #12]
    GPIOB->PUPDR |=  ((1 << (4 * 2)) | (1 << (5 * 2))); // pull-up
 8002452:	4b20      	ldr	r3, [pc, #128]	@ (80024d4 <init_GPIO_EXTI_encoders+0xb8>)
 8002454:	68da      	ldr	r2, [r3, #12]
 8002456:	4b1f      	ldr	r3, [pc, #124]	@ (80024d4 <init_GPIO_EXTI_encoders+0xb8>)
 8002458:	21a0      	movs	r1, #160	@ 0xa0
 800245a:	00c9      	lsls	r1, r1, #3
 800245c:	430a      	orrs	r2, r1
 800245e:	60da      	str	r2, [r3, #12]

    // Encoder2: PA6 (A), PA7 (B)
    GPIOA->MODER &= ~((3 << (6 * 2)) | (3 << (7 * 2)));
 8002460:	2390      	movs	r3, #144	@ 0x90
 8002462:	05db      	lsls	r3, r3, #23
 8002464:	681a      	ldr	r2, [r3, #0]
 8002466:	2390      	movs	r3, #144	@ 0x90
 8002468:	05db      	lsls	r3, r3, #23
 800246a:	491c      	ldr	r1, [pc, #112]	@ (80024dc <init_GPIO_EXTI_encoders+0xc0>)
 800246c:	400a      	ands	r2, r1
 800246e:	601a      	str	r2, [r3, #0]
    GPIOA->PUPDR &= ~((3 << (6 * 2)) | (3 << (7 * 2)));
 8002470:	2390      	movs	r3, #144	@ 0x90
 8002472:	05db      	lsls	r3, r3, #23
 8002474:	68da      	ldr	r2, [r3, #12]
 8002476:	2390      	movs	r3, #144	@ 0x90
 8002478:	05db      	lsls	r3, r3, #23
 800247a:	4918      	ldr	r1, [pc, #96]	@ (80024dc <init_GPIO_EXTI_encoders+0xc0>)
 800247c:	400a      	ands	r2, r1
 800247e:	60da      	str	r2, [r3, #12]
    GPIOA->PUPDR |=  ((1 << (6 * 2)) | (1 << (7 * 2))); // pull-up
 8002480:	2390      	movs	r3, #144	@ 0x90
 8002482:	05db      	lsls	r3, r3, #23
 8002484:	68da      	ldr	r2, [r3, #12]
 8002486:	2390      	movs	r3, #144	@ 0x90
 8002488:	05db      	lsls	r3, r3, #23
 800248a:	21a0      	movs	r1, #160	@ 0xa0
 800248c:	01c9      	lsls	r1, r1, #7
 800248e:	430a      	orrs	r2, r1
 8002490:	60da      	str	r2, [r3, #12]

    // Map EXTI lines:
    // SYSCFG->EXTICR[1] contains EXTI4..7 mapping (4 fields x 4 bits)
    // clear EXTI4..7 nibble fields first
    SYSCFG->EXTICR[1] &= ~((0xF << (0*4)) | (0xF << (1*4)) | (0xF << (2*4)) | (0xF << (3*4)));
 8002492:	4b13      	ldr	r3, [pc, #76]	@ (80024e0 <init_GPIO_EXTI_encoders+0xc4>)
 8002494:	68da      	ldr	r2, [r3, #12]
 8002496:	4b12      	ldr	r3, [pc, #72]	@ (80024e0 <init_GPIO_EXTI_encoders+0xc4>)
 8002498:	0c12      	lsrs	r2, r2, #16
 800249a:	0412      	lsls	r2, r2, #16
 800249c:	60da      	str	r2, [r3, #12]

    // EXTI4 -> PB  (value 1 for port B in EXTICR field)
    SYSCFG->EXTICR[1] |= (1 << (0*4));   // EXTI4 = PB
 800249e:	4b10      	ldr	r3, [pc, #64]	@ (80024e0 <init_GPIO_EXTI_encoders+0xc4>)
 80024a0:	68da      	ldr	r2, [r3, #12]
 80024a2:	4b0f      	ldr	r3, [pc, #60]	@ (80024e0 <init_GPIO_EXTI_encoders+0xc4>)
 80024a4:	2101      	movs	r1, #1
 80024a6:	430a      	orrs	r2, r1
 80024a8:	60da      	str	r2, [r3, #12]
    // EXTI6 -> PA  (value 0 for port A; clearing is enough; left explicit)
    // (we already cleared, so EXTI6 = PA)

    // Unmask EXTI lines for the encoder A pins and enable rising edge trigger
    EXTI->IMR |= (1 << 4) | (1 << 6);    // EXTI4 (encoder1 A), EXTI6 (encoder2 A)
 80024aa:	4b0e      	ldr	r3, [pc, #56]	@ (80024e4 <init_GPIO_EXTI_encoders+0xc8>)
 80024ac:	681a      	ldr	r2, [r3, #0]
 80024ae:	4b0d      	ldr	r3, [pc, #52]	@ (80024e4 <init_GPIO_EXTI_encoders+0xc8>)
 80024b0:	2150      	movs	r1, #80	@ 0x50
 80024b2:	430a      	orrs	r2, r1
 80024b4:	601a      	str	r2, [r3, #0]
    EXTI->RTSR |= (1 << 4) | (1 << 6);   // rising edge only (keep same behavior as before)
 80024b6:	4b0b      	ldr	r3, [pc, #44]	@ (80024e4 <init_GPIO_EXTI_encoders+0xc8>)
 80024b8:	689a      	ldr	r2, [r3, #8]
 80024ba:	4b0a      	ldr	r3, [pc, #40]	@ (80024e4 <init_GPIO_EXTI_encoders+0xc8>)
 80024bc:	2150      	movs	r1, #80	@ 0x50
 80024be:	430a      	orrs	r2, r1
 80024c0:	609a      	str	r2, [r3, #8]
    // Optionally enable falling edges too:
    // EXTI->FTSR |= (1<<4) | (1<<6);

    // NVIC: EXTI4..15 IRQ covers EXTI4..15
    NVIC_EnableIRQ(EXTI4_15_IRQn);
 80024c2:	2007      	movs	r0, #7
 80024c4:	f7ff ff90 	bl	80023e8 <__NVIC_EnableIRQ>
}
 80024c8:	46c0      	nop			@ (mov r8, r8)
 80024ca:	46bd      	mov	sp, r7
 80024cc:	bd80      	pop	{r7, pc}
 80024ce:	46c0      	nop			@ (mov r8, r8)
 80024d0:	40021000 	.word	0x40021000
 80024d4:	48000400 	.word	0x48000400
 80024d8:	fffff0ff 	.word	0xfffff0ff
 80024dc:	ffff0fff 	.word	0xffff0fff
 80024e0:	40010000 	.word	0x40010000
 80024e4:	40010400 	.word	0x40010400

080024e8 <update_encoder>:

void update_encoder(uint8_t encoder) {
 80024e8:	b580      	push	{r7, lr}
 80024ea:	b084      	sub	sp, #16
 80024ec:	af00      	add	r7, sp, #0
 80024ee:	0002      	movs	r2, r0
 80024f0:	1dfb      	adds	r3, r7, #7
 80024f2:	701a      	strb	r2, [r3, #0]
    uint8_t B;
    if (encoder == 1) {
 80024f4:	1dfb      	adds	r3, r7, #7
 80024f6:	781b      	ldrb	r3, [r3, #0]
 80024f8:	2b01      	cmp	r3, #1
 80024fa:	d109      	bne.n	8002510 <update_encoder+0x28>
        B = (GPIOB->IDR >> 5) & 1;
 80024fc:	4b23      	ldr	r3, [pc, #140]	@ (800258c <update_encoder+0xa4>)
 80024fe:	691b      	ldr	r3, [r3, #16]
 8002500:	095b      	lsrs	r3, r3, #5
 8002502:	b2da      	uxtb	r2, r3
 8002504:	230f      	movs	r3, #15
 8002506:	18fb      	adds	r3, r7, r3
 8002508:	2101      	movs	r1, #1
 800250a:	400a      	ands	r2, r1
 800250c:	701a      	strb	r2, [r3, #0]
 800250e:	e009      	b.n	8002524 <update_encoder+0x3c>
    } else {
        B = (GPIOA->IDR >> 7) & 1;
 8002510:	2390      	movs	r3, #144	@ 0x90
 8002512:	05db      	lsls	r3, r3, #23
 8002514:	691b      	ldr	r3, [r3, #16]
 8002516:	09db      	lsrs	r3, r3, #7
 8002518:	b2da      	uxtb	r2, r3
 800251a:	230f      	movs	r3, #15
 800251c:	18fb      	adds	r3, r7, r3
 800251e:	2101      	movs	r1, #1
 8002520:	400a      	ands	r2, r1
 8002522:	701a      	strb	r2, [r3, #0]
    }

    if (B == 0) {
 8002524:	230f      	movs	r3, #15
 8002526:	18fb      	adds	r3, r7, r3
 8002528:	781b      	ldrb	r3, [r3, #0]
 800252a:	2b00      	cmp	r3, #0
 800252c:	d115      	bne.n	800255a <update_encoder+0x72>
        if (encoder == 1) { encoderPos1--; direction1 = 2; }
 800252e:	1dfb      	adds	r3, r7, #7
 8002530:	781b      	ldrb	r3, [r3, #0]
 8002532:	2b01      	cmp	r3, #1
 8002534:	d108      	bne.n	8002548 <update_encoder+0x60>
 8002536:	4b16      	ldr	r3, [pc, #88]	@ (8002590 <update_encoder+0xa8>)
 8002538:	681b      	ldr	r3, [r3, #0]
 800253a:	1e5a      	subs	r2, r3, #1
 800253c:	4b14      	ldr	r3, [pc, #80]	@ (8002590 <update_encoder+0xa8>)
 800253e:	601a      	str	r2, [r3, #0]
 8002540:	4b14      	ldr	r3, [pc, #80]	@ (8002594 <update_encoder+0xac>)
 8002542:	2202      	movs	r2, #2
 8002544:	701a      	strb	r2, [r3, #0]
        else { encoderPos2++; direction2 = 1; }
    } else {
        if (encoder == 1) { encoderPos1++; direction1 = 1; }
        else { encoderPos2--; direction2 = 2; }
    }
}
 8002546:	e01d      	b.n	8002584 <update_encoder+0x9c>
        else { encoderPos2++; direction2 = 1; }
 8002548:	4b13      	ldr	r3, [pc, #76]	@ (8002598 <update_encoder+0xb0>)
 800254a:	681b      	ldr	r3, [r3, #0]
 800254c:	1c5a      	adds	r2, r3, #1
 800254e:	4b12      	ldr	r3, [pc, #72]	@ (8002598 <update_encoder+0xb0>)
 8002550:	601a      	str	r2, [r3, #0]
 8002552:	4b12      	ldr	r3, [pc, #72]	@ (800259c <update_encoder+0xb4>)
 8002554:	2201      	movs	r2, #1
 8002556:	701a      	strb	r2, [r3, #0]
}
 8002558:	e014      	b.n	8002584 <update_encoder+0x9c>
        if (encoder == 1) { encoderPos1++; direction1 = 1; }
 800255a:	1dfb      	adds	r3, r7, #7
 800255c:	781b      	ldrb	r3, [r3, #0]
 800255e:	2b01      	cmp	r3, #1
 8002560:	d108      	bne.n	8002574 <update_encoder+0x8c>
 8002562:	4b0b      	ldr	r3, [pc, #44]	@ (8002590 <update_encoder+0xa8>)
 8002564:	681b      	ldr	r3, [r3, #0]
 8002566:	1c5a      	adds	r2, r3, #1
 8002568:	4b09      	ldr	r3, [pc, #36]	@ (8002590 <update_encoder+0xa8>)
 800256a:	601a      	str	r2, [r3, #0]
 800256c:	4b09      	ldr	r3, [pc, #36]	@ (8002594 <update_encoder+0xac>)
 800256e:	2201      	movs	r2, #1
 8002570:	701a      	strb	r2, [r3, #0]
}
 8002572:	e007      	b.n	8002584 <update_encoder+0x9c>
        else { encoderPos2--; direction2 = 2; }
 8002574:	4b08      	ldr	r3, [pc, #32]	@ (8002598 <update_encoder+0xb0>)
 8002576:	681b      	ldr	r3, [r3, #0]
 8002578:	1e5a      	subs	r2, r3, #1
 800257a:	4b07      	ldr	r3, [pc, #28]	@ (8002598 <update_encoder+0xb0>)
 800257c:	601a      	str	r2, [r3, #0]
 800257e:	4b07      	ldr	r3, [pc, #28]	@ (800259c <update_encoder+0xb4>)
 8002580:	2202      	movs	r2, #2
 8002582:	701a      	strb	r2, [r3, #0]
}
 8002584:	46c0      	nop			@ (mov r8, r8)
 8002586:	46bd      	mov	sp, r7
 8002588:	b004      	add	sp, #16
 800258a:	bd80      	pop	{r7, pc}
 800258c:	48000400 	.word	0x48000400
 8002590:	200000c0 	.word	0x200000c0
 8002594:	200000c8 	.word	0x200000c8
 8002598:	200000c4 	.word	0x200000c4
 800259c:	200000c9 	.word	0x200000c9

080025a0 <velocidad_encoder>:

void velocidad_encoder(void){
 80025a0:	b590      	push	{r4, r7, lr}
 80025a2:	b083      	sub	sp, #12
 80025a4:	af00      	add	r7, sp, #0
    // --- Calculate raw RPM from encoder ---
    delta_Pos1 = encoderPos1 - lastPos1;
 80025a6:	4b40      	ldr	r3, [pc, #256]	@ (80026a8 <velocidad_encoder+0x108>)
 80025a8:	681b      	ldr	r3, [r3, #0]
 80025aa:	0018      	movs	r0, r3
 80025ac:	f7fe ff28 	bl	8001400 <__aeabi_i2f>
 80025b0:	1c02      	adds	r2, r0, #0
 80025b2:	4b3e      	ldr	r3, [pc, #248]	@ (80026ac <velocidad_encoder+0x10c>)
 80025b4:	681b      	ldr	r3, [r3, #0]
 80025b6:	1c19      	adds	r1, r3, #0
 80025b8:	1c10      	adds	r0, r2, #0
 80025ba:	f7fe fc87 	bl	8000ecc <__aeabi_fsub>
 80025be:	1c03      	adds	r3, r0, #0
 80025c0:	1c1a      	adds	r2, r3, #0
 80025c2:	4b3b      	ldr	r3, [pc, #236]	@ (80026b0 <velocidad_encoder+0x110>)
 80025c4:	601a      	str	r2, [r3, #0]
    float rpm_1_raw = (delta_Pos1 * 60.0f) / 5.0f;
 80025c6:	4b3a      	ldr	r3, [pc, #232]	@ (80026b0 <velocidad_encoder+0x110>)
 80025c8:	681b      	ldr	r3, [r3, #0]
 80025ca:	493a      	ldr	r1, [pc, #232]	@ (80026b4 <velocidad_encoder+0x114>)
 80025cc:	1c18      	adds	r0, r3, #0
 80025ce:	f7fe fb23 	bl	8000c18 <__aeabi_fmul>
 80025d2:	1c03      	adds	r3, r0, #0
 80025d4:	4938      	ldr	r1, [pc, #224]	@ (80026b8 <velocidad_encoder+0x118>)
 80025d6:	1c18      	adds	r0, r3, #0
 80025d8:	f7fe f950 	bl	800087c <__aeabi_fdiv>
 80025dc:	1c03      	adds	r3, r0, #0
 80025de:	607b      	str	r3, [r7, #4]

    delta_Pos2 = encoderPos2 - lastPos2;
 80025e0:	4b36      	ldr	r3, [pc, #216]	@ (80026bc <velocidad_encoder+0x11c>)
 80025e2:	681b      	ldr	r3, [r3, #0]
 80025e4:	0018      	movs	r0, r3
 80025e6:	f7fe ff0b 	bl	8001400 <__aeabi_i2f>
 80025ea:	1c02      	adds	r2, r0, #0
 80025ec:	4b34      	ldr	r3, [pc, #208]	@ (80026c0 <velocidad_encoder+0x120>)
 80025ee:	681b      	ldr	r3, [r3, #0]
 80025f0:	1c19      	adds	r1, r3, #0
 80025f2:	1c10      	adds	r0, r2, #0
 80025f4:	f7fe fc6a 	bl	8000ecc <__aeabi_fsub>
 80025f8:	1c03      	adds	r3, r0, #0
 80025fa:	1c1a      	adds	r2, r3, #0
 80025fc:	4b31      	ldr	r3, [pc, #196]	@ (80026c4 <velocidad_encoder+0x124>)
 80025fe:	601a      	str	r2, [r3, #0]
    float rpm_2_raw = (delta_Pos2 * 60.0f) / 5.0f;
 8002600:	4b30      	ldr	r3, [pc, #192]	@ (80026c4 <velocidad_encoder+0x124>)
 8002602:	681b      	ldr	r3, [r3, #0]
 8002604:	492b      	ldr	r1, [pc, #172]	@ (80026b4 <velocidad_encoder+0x114>)
 8002606:	1c18      	adds	r0, r3, #0
 8002608:	f7fe fb06 	bl	8000c18 <__aeabi_fmul>
 800260c:	1c03      	adds	r3, r0, #0
 800260e:	492a      	ldr	r1, [pc, #168]	@ (80026b8 <velocidad_encoder+0x118>)
 8002610:	1c18      	adds	r0, r3, #0
 8002612:	f7fe f933 	bl	800087c <__aeabi_fdiv>
 8002616:	1c03      	adds	r3, r0, #0
 8002618:	603b      	str	r3, [r7, #0]

    lastPos1 = encoderPos1;
 800261a:	4b23      	ldr	r3, [pc, #140]	@ (80026a8 <velocidad_encoder+0x108>)
 800261c:	681b      	ldr	r3, [r3, #0]
 800261e:	0018      	movs	r0, r3
 8002620:	f7fe feee 	bl	8001400 <__aeabi_i2f>
 8002624:	1c02      	adds	r2, r0, #0
 8002626:	4b21      	ldr	r3, [pc, #132]	@ (80026ac <velocidad_encoder+0x10c>)
 8002628:	601a      	str	r2, [r3, #0]
    lastPos2 = encoderPos2;
 800262a:	4b24      	ldr	r3, [pc, #144]	@ (80026bc <velocidad_encoder+0x11c>)
 800262c:	681b      	ldr	r3, [r3, #0]
 800262e:	0018      	movs	r0, r3
 8002630:	f7fe fee6 	bl	8001400 <__aeabi_i2f>
 8002634:	1c02      	adds	r2, r0, #0
 8002636:	4b22      	ldr	r3, [pc, #136]	@ (80026c0 <velocidad_encoder+0x120>)
 8002638:	601a      	str	r2, [r3, #0]

    // --- Apply digital filter ---
    rpm_1_filtered = Aa * rpm_1_raw - Bb * prev_rpm_1;
 800263a:	4923      	ldr	r1, [pc, #140]	@ (80026c8 <velocidad_encoder+0x128>)
 800263c:	6878      	ldr	r0, [r7, #4]
 800263e:	f7fe faeb 	bl	8000c18 <__aeabi_fmul>
 8002642:	1c03      	adds	r3, r0, #0
 8002644:	1c1c      	adds	r4, r3, #0
 8002646:	4b21      	ldr	r3, [pc, #132]	@ (80026cc <velocidad_encoder+0x12c>)
 8002648:	681b      	ldr	r3, [r3, #0]
 800264a:	4921      	ldr	r1, [pc, #132]	@ (80026d0 <velocidad_encoder+0x130>)
 800264c:	1c18      	adds	r0, r3, #0
 800264e:	f7fe fae3 	bl	8000c18 <__aeabi_fmul>
 8002652:	1c03      	adds	r3, r0, #0
 8002654:	1c19      	adds	r1, r3, #0
 8002656:	1c20      	adds	r0, r4, #0
 8002658:	f7fd ff1e 	bl	8000498 <__aeabi_fadd>
 800265c:	1c03      	adds	r3, r0, #0
 800265e:	1c1a      	adds	r2, r3, #0
 8002660:	4b1c      	ldr	r3, [pc, #112]	@ (80026d4 <velocidad_encoder+0x134>)
 8002662:	601a      	str	r2, [r3, #0]
    rpm_2_filtered = Aa * rpm_2_raw - Bb * prev_rpm_2;
 8002664:	4918      	ldr	r1, [pc, #96]	@ (80026c8 <velocidad_encoder+0x128>)
 8002666:	6838      	ldr	r0, [r7, #0]
 8002668:	f7fe fad6 	bl	8000c18 <__aeabi_fmul>
 800266c:	1c03      	adds	r3, r0, #0
 800266e:	1c1c      	adds	r4, r3, #0
 8002670:	4b19      	ldr	r3, [pc, #100]	@ (80026d8 <velocidad_encoder+0x138>)
 8002672:	681b      	ldr	r3, [r3, #0]
 8002674:	4916      	ldr	r1, [pc, #88]	@ (80026d0 <velocidad_encoder+0x130>)
 8002676:	1c18      	adds	r0, r3, #0
 8002678:	f7fe face 	bl	8000c18 <__aeabi_fmul>
 800267c:	1c03      	adds	r3, r0, #0
 800267e:	1c19      	adds	r1, r3, #0
 8002680:	1c20      	adds	r0, r4, #0
 8002682:	f7fd ff09 	bl	8000498 <__aeabi_fadd>
 8002686:	1c03      	adds	r3, r0, #0
 8002688:	1c1a      	adds	r2, r3, #0
 800268a:	4b14      	ldr	r3, [pc, #80]	@ (80026dc <velocidad_encoder+0x13c>)
 800268c:	601a      	str	r2, [r3, #0]

    // --- Update states for next iteration ---
    prev_rpm_1 = rpm_1_filtered;
 800268e:	4b11      	ldr	r3, [pc, #68]	@ (80026d4 <velocidad_encoder+0x134>)
 8002690:	681a      	ldr	r2, [r3, #0]
 8002692:	4b0e      	ldr	r3, [pc, #56]	@ (80026cc <velocidad_encoder+0x12c>)
 8002694:	601a      	str	r2, [r3, #0]
    prev_rpm_2 = rpm_2_filtered;
 8002696:	4b11      	ldr	r3, [pc, #68]	@ (80026dc <velocidad_encoder+0x13c>)
 8002698:	681a      	ldr	r2, [r3, #0]
 800269a:	4b0f      	ldr	r3, [pc, #60]	@ (80026d8 <velocidad_encoder+0x138>)
 800269c:	601a      	str	r2, [r3, #0]
}
 800269e:	46c0      	nop			@ (mov r8, r8)
 80026a0:	46bd      	mov	sp, r7
 80026a2:	b003      	add	sp, #12
 80026a4:	bd90      	pop	{r4, r7, pc}
 80026a6:	46c0      	nop			@ (mov r8, r8)
 80026a8:	200000c0 	.word	0x200000c0
 80026ac:	200000d4 	.word	0x200000d4
 80026b0:	200000cc 	.word	0x200000cc
 80026b4:	42700000 	.word	0x42700000
 80026b8:	40a00000 	.word	0x40a00000
 80026bc:	200000c4 	.word	0x200000c4
 80026c0:	200000d8 	.word	0x200000d8
 80026c4:	200000d0 	.word	0x200000d0
 80026c8:	3dc2e49a 	.word	0x3dc2e49a
 80026cc:	200000e4 	.word	0x200000e4
 80026d0:	3f67a36d 	.word	0x3f67a36d
 80026d4:	200000dc 	.word	0x200000dc
 80026d8:	200000e8 	.word	0x200000e8
 80026dc:	200000e0 	.word	0x200000e0

080026e0 <__NVIC_EnableIRQ>:
{
 80026e0:	b580      	push	{r7, lr}
 80026e2:	b082      	sub	sp, #8
 80026e4:	af00      	add	r7, sp, #0
 80026e6:	0002      	movs	r2, r0
 80026e8:	1dfb      	adds	r3, r7, #7
 80026ea:	701a      	strb	r2, [r3, #0]
  if ((int32_t)(IRQn) >= 0)
 80026ec:	1dfb      	adds	r3, r7, #7
 80026ee:	781b      	ldrb	r3, [r3, #0]
 80026f0:	2b7f      	cmp	r3, #127	@ 0x7f
 80026f2:	d809      	bhi.n	8002708 <__NVIC_EnableIRQ+0x28>
    NVIC->ISER[0U] = (uint32_t)(1UL << (((uint32_t)IRQn) & 0x1FUL));
 80026f4:	1dfb      	adds	r3, r7, #7
 80026f6:	781b      	ldrb	r3, [r3, #0]
 80026f8:	001a      	movs	r2, r3
 80026fa:	231f      	movs	r3, #31
 80026fc:	401a      	ands	r2, r3
 80026fe:	4b04      	ldr	r3, [pc, #16]	@ (8002710 <__NVIC_EnableIRQ+0x30>)
 8002700:	2101      	movs	r1, #1
 8002702:	4091      	lsls	r1, r2
 8002704:	000a      	movs	r2, r1
 8002706:	601a      	str	r2, [r3, #0]
}
 8002708:	46c0      	nop			@ (mov r8, r8)
 800270a:	46bd      	mov	sp, r7
 800270c:	b002      	add	sp, #8
 800270e:	bd80      	pop	{r7, pc}
 8002710:	e000e100 	.word	0xe000e100

08002714 <USART1_Init>:
volatile uint16_t pathCount = 0;        // How many points have been stored
volatile bool pathReady = false;        // Set true when ESP finishes sending

// ---------- USART1 init on PA9 (TX) PA10 (RX) - AF1 for USART1 on STM32F0 ----------
void USART1_Init(void)
{
 8002714:	b580      	push	{r7, lr}
 8002716:	af00      	add	r7, sp, #0
    RCC->AHBENR |= RCC_AHBENR_GPIOAEN;    // Enable GPIOA
 8002718:	4b26      	ldr	r3, [pc, #152]	@ (80027b4 <USART1_Init+0xa0>)
 800271a:	695a      	ldr	r2, [r3, #20]
 800271c:	4b25      	ldr	r3, [pc, #148]	@ (80027b4 <USART1_Init+0xa0>)
 800271e:	2180      	movs	r1, #128	@ 0x80
 8002720:	0289      	lsls	r1, r1, #10
 8002722:	430a      	orrs	r2, r1
 8002724:	615a      	str	r2, [r3, #20]
    RCC->APB2ENR |= RCC_APB2ENR_USART1EN; // Enable USART1
 8002726:	4b23      	ldr	r3, [pc, #140]	@ (80027b4 <USART1_Init+0xa0>)
 8002728:	699a      	ldr	r2, [r3, #24]
 800272a:	4b22      	ldr	r3, [pc, #136]	@ (80027b4 <USART1_Init+0xa0>)
 800272c:	2180      	movs	r1, #128	@ 0x80
 800272e:	01c9      	lsls	r1, r1, #7
 8002730:	430a      	orrs	r2, r1
 8002732:	619a      	str	r2, [r3, #24]

    // PA9 (TX), PA10 (RX) as AF1
    GPIOA->MODER &= ~((3 << (9*2)) | (3 << (10*2)));
 8002734:	2390      	movs	r3, #144	@ 0x90
 8002736:	05db      	lsls	r3, r3, #23
 8002738:	681a      	ldr	r2, [r3, #0]
 800273a:	2390      	movs	r3, #144	@ 0x90
 800273c:	05db      	lsls	r3, r3, #23
 800273e:	491e      	ldr	r1, [pc, #120]	@ (80027b8 <USART1_Init+0xa4>)
 8002740:	400a      	ands	r2, r1
 8002742:	601a      	str	r2, [r3, #0]
    GPIOA->MODER |=  ((2 << (9*2)) | (2 << (10*2)));
 8002744:	2390      	movs	r3, #144	@ 0x90
 8002746:	05db      	lsls	r3, r3, #23
 8002748:	681a      	ldr	r2, [r3, #0]
 800274a:	2390      	movs	r3, #144	@ 0x90
 800274c:	05db      	lsls	r3, r3, #23
 800274e:	21a0      	movs	r1, #160	@ 0xa0
 8002750:	0389      	lsls	r1, r1, #14
 8002752:	430a      	orrs	r2, r1
 8002754:	601a      	str	r2, [r3, #0]
    GPIOA->AFR[1] &= ~((0xF << ((9-8)*4)) | (0xF << ((10-8)*4)));
 8002756:	2390      	movs	r3, #144	@ 0x90
 8002758:	05db      	lsls	r3, r3, #23
 800275a:	6a5a      	ldr	r2, [r3, #36]	@ 0x24
 800275c:	2390      	movs	r3, #144	@ 0x90
 800275e:	05db      	lsls	r3, r3, #23
 8002760:	4916      	ldr	r1, [pc, #88]	@ (80027bc <USART1_Init+0xa8>)
 8002762:	400a      	ands	r2, r1
 8002764:	625a      	str	r2, [r3, #36]	@ 0x24
    GPIOA->AFR[1] |=  ((1 << ((9-8)*4)) | (1 << ((10-8)*4)));
 8002766:	2390      	movs	r3, #144	@ 0x90
 8002768:	05db      	lsls	r3, r3, #23
 800276a:	6a5a      	ldr	r2, [r3, #36]	@ 0x24
 800276c:	2390      	movs	r3, #144	@ 0x90
 800276e:	05db      	lsls	r3, r3, #23
 8002770:	2188      	movs	r1, #136	@ 0x88
 8002772:	0049      	lsls	r1, r1, #1
 8002774:	430a      	orrs	r2, r1
 8002776:	625a      	str	r2, [r3, #36]	@ 0x24

    // Pull-ups
    GPIOA->PUPDR &= ~((3 << (9*2)) | (3 << (10*2)));
 8002778:	2390      	movs	r3, #144	@ 0x90
 800277a:	05db      	lsls	r3, r3, #23
 800277c:	68da      	ldr	r2, [r3, #12]
 800277e:	2390      	movs	r3, #144	@ 0x90
 8002780:	05db      	lsls	r3, r3, #23
 8002782:	490d      	ldr	r1, [pc, #52]	@ (80027b8 <USART1_Init+0xa4>)
 8002784:	400a      	ands	r2, r1
 8002786:	60da      	str	r2, [r3, #12]
    GPIOA->PUPDR |=  ((1 << (9*2)) | (1 << (10*2)));
 8002788:	2390      	movs	r3, #144	@ 0x90
 800278a:	05db      	lsls	r3, r3, #23
 800278c:	68da      	ldr	r2, [r3, #12]
 800278e:	2390      	movs	r3, #144	@ 0x90
 8002790:	05db      	lsls	r3, r3, #23
 8002792:	21a0      	movs	r1, #160	@ 0xa0
 8002794:	0349      	lsls	r1, r1, #13
 8002796:	430a      	orrs	r2, r1
 8002798:	60da      	str	r2, [r3, #12]

    // USART config
    USART1->BRR = (uint32_t)(8000000 / 115200); // 8 MHz clock
 800279a:	4b09      	ldr	r3, [pc, #36]	@ (80027c0 <USART1_Init+0xac>)
 800279c:	2245      	movs	r2, #69	@ 0x45
 800279e:	60da      	str	r2, [r3, #12]
    USART1->CR1 = USART_CR1_TE | USART_CR1_RE | USART_CR1_UE | USART_CR1_RXNEIE;
 80027a0:	4b07      	ldr	r3, [pc, #28]	@ (80027c0 <USART1_Init+0xac>)
 80027a2:	222d      	movs	r2, #45	@ 0x2d
 80027a4:	601a      	str	r2, [r3, #0]

    NVIC_EnableIRQ(USART1_IRQn);
 80027a6:	201b      	movs	r0, #27
 80027a8:	f7ff ff9a 	bl	80026e0 <__NVIC_EnableIRQ>
}
 80027ac:	46c0      	nop			@ (mov r8, r8)
 80027ae:	46bd      	mov	sp, r7
 80027b0:	bd80      	pop	{r7, pc}
 80027b2:	46c0      	nop			@ (mov r8, r8)
 80027b4:	40021000 	.word	0x40021000
 80027b8:	ffc3ffff 	.word	0xffc3ffff
 80027bc:	fffff00f 	.word	0xfffff00f
 80027c0:	40013800 	.word	0x40013800

080027c4 <USART1_send>:


// Blocking transmit helper
void USART1_send(uint8_t b)
{
 80027c4:	b580      	push	{r7, lr}
 80027c6:	b082      	sub	sp, #8
 80027c8:	af00      	add	r7, sp, #0
 80027ca:	0002      	movs	r2, r0
 80027cc:	1dfb      	adds	r3, r7, #7
 80027ce:	701a      	strb	r2, [r3, #0]
    // Wait for TXE flag
	if (USART1->ISR & USART_ISR_TXE) {
 80027d0:	4b06      	ldr	r3, [pc, #24]	@ (80027ec <USART1_send+0x28>)
 80027d2:	69db      	ldr	r3, [r3, #28]
 80027d4:	2280      	movs	r2, #128	@ 0x80
 80027d6:	4013      	ands	r3, r2
 80027d8:	d004      	beq.n	80027e4 <USART1_send+0x20>
	        USART1->TDR = b;
 80027da:	4a04      	ldr	r2, [pc, #16]	@ (80027ec <USART1_send+0x28>)
 80027dc:	1dfb      	adds	r3, r7, #7
 80027de:	781b      	ldrb	r3, [r3, #0]
 80027e0:	b29b      	uxth	r3, r3
 80027e2:	8513      	strh	r3, [r2, #40]	@ 0x28
	    }
}
 80027e4:	46c0      	nop			@ (mov r8, r8)
 80027e6:	46bd      	mov	sp, r7
 80027e8:	b002      	add	sp, #8
 80027ea:	bd80      	pop	{r7, pc}
 80027ec:	40013800 	.word	0x40013800

080027f0 <USART1_IRQHandler>:

void USART1_IRQHandler(void)
{
 80027f0:	b590      	push	{r4, r7, lr}
 80027f2:	b085      	sub	sp, #20
 80027f4:	af00      	add	r7, sp, #0
    if (USART1->ISR & USART_ISR_RXNE)
 80027f6:	4b63      	ldr	r3, [pc, #396]	@ (8002984 <USART1_IRQHandler+0x194>)
 80027f8:	69db      	ldr	r3, [r3, #28]
 80027fa:	2220      	movs	r2, #32
 80027fc:	4013      	ands	r3, r2
 80027fe:	d100      	bne.n	8002802 <USART1_IRQHandler+0x12>
 8002800:	e0bc      	b.n	800297c <USART1_IRQHandler+0x18c>
    {
        uint8_t data = USART1->RDR;
 8002802:	4b60      	ldr	r3, [pc, #384]	@ (8002984 <USART1_IRQHandler+0x194>)
 8002804:	8c9b      	ldrh	r3, [r3, #36]	@ 0x24
 8002806:	b29a      	uxth	r2, r3
 8002808:	210f      	movs	r1, #15
 800280a:	187b      	adds	r3, r7, r1
 800280c:	701a      	strb	r2, [r3, #0]

        // 1. Looking for SYNC
        if (rxIndex == 0) {
 800280e:	4b5e      	ldr	r3, [pc, #376]	@ (8002988 <USART1_IRQHandler+0x198>)
 8002810:	781b      	ldrb	r3, [r3, #0]
 8002812:	b2db      	uxtb	r3, r3
 8002814:	2b00      	cmp	r3, #0
 8002816:	d10c      	bne.n	8002832 <USART1_IRQHandler+0x42>
            if (data == 0xAA) {
 8002818:	187b      	adds	r3, r7, r1
 800281a:	781b      	ldrb	r3, [r3, #0]
 800281c:	2baa      	cmp	r3, #170	@ 0xaa
 800281e:	d000      	beq.n	8002822 <USART1_IRQHandler+0x32>
 8002820:	e0ab      	b.n	800297a <USART1_IRQHandler+0x18a>
                rxBuf[0] = data;
 8002822:	4b5a      	ldr	r3, [pc, #360]	@ (800298c <USART1_IRQHandler+0x19c>)
 8002824:	187a      	adds	r2, r7, r1
 8002826:	7812      	ldrb	r2, [r2, #0]
 8002828:	701a      	strb	r2, [r3, #0]
                rxIndex = 1;
 800282a:	4b57      	ldr	r3, [pc, #348]	@ (8002988 <USART1_IRQHandler+0x198>)
 800282c:	2201      	movs	r2, #1
 800282e:	701a      	strb	r2, [r3, #0]
            }
            return;
 8002830:	e0a3      	b.n	800297a <USART1_IRQHandler+0x18a>
        }

        rxBuf[rxIndex++] = data;
 8002832:	4b55      	ldr	r3, [pc, #340]	@ (8002988 <USART1_IRQHandler+0x198>)
 8002834:	781b      	ldrb	r3, [r3, #0]
 8002836:	b2db      	uxtb	r3, r3
 8002838:	1c5a      	adds	r2, r3, #1
 800283a:	b2d1      	uxtb	r1, r2
 800283c:	4a52      	ldr	r2, [pc, #328]	@ (8002988 <USART1_IRQHandler+0x198>)
 800283e:	7011      	strb	r1, [r2, #0]
 8002840:	0019      	movs	r1, r3
 8002842:	4b52      	ldr	r3, [pc, #328]	@ (800298c <USART1_IRQHandler+0x19c>)
 8002844:	220f      	movs	r2, #15
 8002846:	18ba      	adds	r2, r7, r2
 8002848:	7812      	ldrb	r2, [r2, #0]
 800284a:	545a      	strb	r2, [r3, r1]

        // 2. CMD position = 1 (no check needed)
        // 3. LEN position = 2  read how many payload bytes to expect
        if (rxIndex == 3) {
 800284c:	4b4e      	ldr	r3, [pc, #312]	@ (8002988 <USART1_IRQHandler+0x198>)
 800284e:	781b      	ldrb	r3, [r3, #0]
 8002850:	b2db      	uxtb	r3, r3
 8002852:	2b03      	cmp	r3, #3
 8002854:	d104      	bne.n	8002860 <USART1_IRQHandler+0x70>
            packetLen = rxBuf[2];
 8002856:	4b4d      	ldr	r3, [pc, #308]	@ (800298c <USART1_IRQHandler+0x19c>)
 8002858:	789b      	ldrb	r3, [r3, #2]
 800285a:	b2da      	uxtb	r2, r3
 800285c:	4b4c      	ldr	r3, [pc, #304]	@ (8002990 <USART1_IRQHandler+0x1a0>)
 800285e:	701a      	strb	r2, [r3, #0]
        }

        // 4. End when complete packet is received
        if (rxIndex >= packetLen + 3)
 8002860:	4b4b      	ldr	r3, [pc, #300]	@ (8002990 <USART1_IRQHandler+0x1a0>)
 8002862:	781b      	ldrb	r3, [r3, #0]
 8002864:	b2db      	uxtb	r3, r3
 8002866:	3302      	adds	r3, #2
 8002868:	4a47      	ldr	r2, [pc, #284]	@ (8002988 <USART1_IRQHandler+0x198>)
 800286a:	7812      	ldrb	r2, [r2, #0]
 800286c:	b2d2      	uxtb	r2, r2
 800286e:	4293      	cmp	r3, r2
 8002870:	db00      	blt.n	8002874 <USART1_IRQHandler+0x84>
 8002872:	e083      	b.n	800297c <USART1_IRQHandler+0x18c>
        {
            uint8_t cmd = rxBuf[1];
 8002874:	210e      	movs	r1, #14
 8002876:	187b      	adds	r3, r7, r1
 8002878:	4a44      	ldr	r2, [pc, #272]	@ (800298c <USART1_IRQHandler+0x19c>)
 800287a:	7852      	ldrb	r2, [r2, #1]
 800287c:	701a      	strb	r2, [r3, #0]

            if (cmd == 0x01) {
 800287e:	187b      	adds	r3, r7, r1
 8002880:	781b      	ldrb	r3, [r3, #0]
 8002882:	2b01      	cmp	r3, #1
 8002884:	d12e      	bne.n	80028e4 <USART1_IRQHandler+0xf4>
            	if(pathReady == true){
 8002886:	4b43      	ldr	r3, [pc, #268]	@ (8002994 <USART1_IRQHandler+0x1a4>)
 8002888:	781b      	ldrb	r3, [r3, #0]
 800288a:	b2db      	uxtb	r3, r3
 800288c:	2b00      	cmp	r3, #0
 800288e:	d001      	beq.n	8002894 <USART1_IRQHandler+0xa4>
            		resetPath();
 8002890:	f000 f8c4 	bl	8002a1c <resetPath>
            	}
                // POINT packet
                int16_t X = (rxBuf[3] << 8) | rxBuf[4];
 8002894:	4b3d      	ldr	r3, [pc, #244]	@ (800298c <USART1_IRQHandler+0x19c>)
 8002896:	78db      	ldrb	r3, [r3, #3]
 8002898:	b2db      	uxtb	r3, r3
 800289a:	b21b      	sxth	r3, r3
 800289c:	021b      	lsls	r3, r3, #8
 800289e:	b219      	sxth	r1, r3
 80028a0:	4b3a      	ldr	r3, [pc, #232]	@ (800298c <USART1_IRQHandler+0x19c>)
 80028a2:	791b      	ldrb	r3, [r3, #4]
 80028a4:	b2db      	uxtb	r3, r3
 80028a6:	b21a      	sxth	r2, r3
 80028a8:	1dbb      	adds	r3, r7, #6
 80028aa:	430a      	orrs	r2, r1
 80028ac:	801a      	strh	r2, [r3, #0]
                int16_t Y = (rxBuf[5] << 8) | rxBuf[6];
 80028ae:	4b37      	ldr	r3, [pc, #220]	@ (800298c <USART1_IRQHandler+0x19c>)
 80028b0:	795b      	ldrb	r3, [r3, #5]
 80028b2:	b2db      	uxtb	r3, r3
 80028b4:	b21b      	sxth	r3, r3
 80028b6:	021b      	lsls	r3, r3, #8
 80028b8:	b219      	sxth	r1, r3
 80028ba:	4b34      	ldr	r3, [pc, #208]	@ (800298c <USART1_IRQHandler+0x19c>)
 80028bc:	799b      	ldrb	r3, [r3, #6]
 80028be:	b2db      	uxtb	r3, r3
 80028c0:	b21a      	sxth	r2, r3
 80028c2:	1d3b      	adds	r3, r7, #4
 80028c4:	430a      	orrs	r2, r1
 80028c6:	801a      	strh	r2, [r3, #0]
                processPoint(X, Y);
 80028c8:	1d3b      	adds	r3, r7, #4
 80028ca:	2200      	movs	r2, #0
 80028cc:	5e9a      	ldrsh	r2, [r3, r2]
 80028ce:	1dbb      	adds	r3, r7, #6
 80028d0:	2100      	movs	r1, #0
 80028d2:	5e5b      	ldrsh	r3, [r3, r1]
 80028d4:	0011      	movs	r1, r2
 80028d6:	0018      	movs	r0, r3
 80028d8:	f000 f866 	bl	80029a8 <processPoint>
                LED_action = 20; // in progress
 80028dc:	4b2e      	ldr	r3, [pc, #184]	@ (8002998 <USART1_IRQHandler+0x1a8>)
 80028de:	2214      	movs	r2, #20
 80028e0:	701a      	strb	r2, [r3, #0]
 80028e2:	e046      	b.n	8002972 <USART1_IRQHandler+0x182>
            }
            else if (cmd == 0x02) {
 80028e4:	230e      	movs	r3, #14
 80028e6:	18fb      	adds	r3, r7, r3
 80028e8:	781b      	ldrb	r3, [r3, #0]
 80028ea:	2b02      	cmp	r3, #2
 80028ec:	d124      	bne.n	8002938 <USART1_IRQHandler+0x148>
                // TEMP/VOLT packet
                int16_t T = (rxBuf[3] << 8) | rxBuf[4];
 80028ee:	4b27      	ldr	r3, [pc, #156]	@ (800298c <USART1_IRQHandler+0x19c>)
 80028f0:	78db      	ldrb	r3, [r3, #3]
 80028f2:	b2db      	uxtb	r3, r3
 80028f4:	b21b      	sxth	r3, r3
 80028f6:	021b      	lsls	r3, r3, #8
 80028f8:	b219      	sxth	r1, r3
 80028fa:	4b24      	ldr	r3, [pc, #144]	@ (800298c <USART1_IRQHandler+0x19c>)
 80028fc:	791b      	ldrb	r3, [r3, #4]
 80028fe:	b2db      	uxtb	r3, r3
 8002900:	b21a      	sxth	r2, r3
 8002902:	200a      	movs	r0, #10
 8002904:	183b      	adds	r3, r7, r0
 8002906:	430a      	orrs	r2, r1
 8002908:	801a      	strh	r2, [r3, #0]
                int16_t V = (rxBuf[5] << 8) | rxBuf[6];
 800290a:	4b20      	ldr	r3, [pc, #128]	@ (800298c <USART1_IRQHandler+0x19c>)
 800290c:	795b      	ldrb	r3, [r3, #5]
 800290e:	b2db      	uxtb	r3, r3
 8002910:	b21b      	sxth	r3, r3
 8002912:	021b      	lsls	r3, r3, #8
 8002914:	b219      	sxth	r1, r3
 8002916:	4b1d      	ldr	r3, [pc, #116]	@ (800298c <USART1_IRQHandler+0x19c>)
 8002918:	799b      	ldrb	r3, [r3, #6]
 800291a:	b2db      	uxtb	r3, r3
 800291c:	b21a      	sxth	r2, r3
 800291e:	2408      	movs	r4, #8
 8002920:	193b      	adds	r3, r7, r4
 8002922:	430a      	orrs	r2, r1
 8002924:	801a      	strh	r2, [r3, #0]
                temperature10 = T;
 8002926:	183b      	adds	r3, r7, r0
 8002928:	881a      	ldrh	r2, [r3, #0]
 800292a:	4b1c      	ldr	r3, [pc, #112]	@ (800299c <USART1_IRQHandler+0x1ac>)
 800292c:	801a      	strh	r2, [r3, #0]
                voltage10 = V;
 800292e:	193b      	adds	r3, r7, r4
 8002930:	881a      	ldrh	r2, [r3, #0]
 8002932:	4b1b      	ldr	r3, [pc, #108]	@ (80029a0 <USART1_IRQHandler+0x1b0>)
 8002934:	801a      	strh	r2, [r3, #0]
 8002936:	e01c      	b.n	8002972 <USART1_IRQHandler+0x182>
            }
            else if (cmd == 0x03) {
 8002938:	230e      	movs	r3, #14
 800293a:	18fb      	adds	r3, r7, r3
 800293c:	781b      	ldrb	r3, [r3, #0]
 800293e:	2b03      	cmp	r3, #3
 8002940:	d117      	bne.n	8002972 <USART1_IRQHandler+0x182>
                // END OF POINT STREAM
                int16_t valid = (rxBuf[3] << 8) | rxBuf[4];
 8002942:	4b12      	ldr	r3, [pc, #72]	@ (800298c <USART1_IRQHandler+0x19c>)
 8002944:	78db      	ldrb	r3, [r3, #3]
 8002946:	b2db      	uxtb	r3, r3
 8002948:	b21b      	sxth	r3, r3
 800294a:	021b      	lsls	r3, r3, #8
 800294c:	b219      	sxth	r1, r3
 800294e:	4b0f      	ldr	r3, [pc, #60]	@ (800298c <USART1_IRQHandler+0x19c>)
 8002950:	791b      	ldrb	r3, [r3, #4]
 8002952:	b2db      	uxtb	r3, r3
 8002954:	b21a      	sxth	r2, r3
 8002956:	200c      	movs	r0, #12
 8002958:	183b      	adds	r3, r7, r0
 800295a:	430a      	orrs	r2, r1
 800295c:	801a      	strh	r2, [r3, #0]
                valid_indexes = valid;
 800295e:	183b      	adds	r3, r7, r0
 8002960:	881a      	ldrh	r2, [r3, #0]
 8002962:	4b10      	ldr	r3, [pc, #64]	@ (80029a4 <USART1_IRQHandler+0x1b4>)
 8002964:	801a      	strh	r2, [r3, #0]
                LED_action = 21; // finished
 8002966:	4b0c      	ldr	r3, [pc, #48]	@ (8002998 <USART1_IRQHandler+0x1a8>)
 8002968:	2215      	movs	r2, #21
 800296a:	701a      	strb	r2, [r3, #0]
                pathReady = true;
 800296c:	4b09      	ldr	r3, [pc, #36]	@ (8002994 <USART1_IRQHandler+0x1a4>)
 800296e:	2201      	movs	r2, #1
 8002970:	701a      	strb	r2, [r3, #0]
            }

            rxIndex = 0;
 8002972:	4b05      	ldr	r3, [pc, #20]	@ (8002988 <USART1_IRQHandler+0x198>)
 8002974:	2200      	movs	r2, #0
 8002976:	701a      	strb	r2, [r3, #0]
 8002978:	e000      	b.n	800297c <USART1_IRQHandler+0x18c>
            return;
 800297a:	46c0      	nop			@ (mov r8, r8)
        }
    }
}
 800297c:	46bd      	mov	sp, r7
 800297e:	b005      	add	sp, #20
 8002980:	bd90      	pop	{r4, r7, pc}
 8002982:	46c0      	nop			@ (mov r8, r8)
 8002984:	40013800 	.word	0x40013800
 8002988:	20000104 	.word	0x20000104
 800298c:	200000f4 	.word	0x200000f4
 8002990:	20000105 	.word	0x20000105
 8002994:	200008da 	.word	0x200008da
 8002998:	200000ec 	.word	0x200000ec
 800299c:	200000ee 	.word	0x200000ee
 80029a0:	200000f0 	.word	0x200000f0
 80029a4:	200000f2 	.word	0x200000f2

080029a8 <processPoint>:

void processPoint(int16_t x, int16_t y){
 80029a8:	b580      	push	{r7, lr}
 80029aa:	b082      	sub	sp, #8
 80029ac:	af00      	add	r7, sp, #0
 80029ae:	0002      	movs	r2, r0
 80029b0:	1dbb      	adds	r3, r7, #6
 80029b2:	801a      	strh	r2, [r3, #0]
 80029b4:	1d3b      	adds	r3, r7, #4
 80029b6:	1c0a      	adds	r2, r1, #0
 80029b8:	801a      	strh	r2, [r3, #0]
    if (pathCount < MAX_POINTS)
 80029ba:	4b14      	ldr	r3, [pc, #80]	@ (8002a0c <processPoint+0x64>)
 80029bc:	881b      	ldrh	r3, [r3, #0]
 80029be:	b29a      	uxth	r2, r3
 80029c0:	23fa      	movs	r3, #250	@ 0xfa
 80029c2:	005b      	lsls	r3, r3, #1
 80029c4:	429a      	cmp	r2, r3
 80029c6:	d219      	bcs.n	80029fc <processPoint+0x54>
    {
        pathX[pathCount] = x;
 80029c8:	4b10      	ldr	r3, [pc, #64]	@ (8002a0c <processPoint+0x64>)
 80029ca:	881b      	ldrh	r3, [r3, #0]
 80029cc:	b29b      	uxth	r3, r3
 80029ce:	001a      	movs	r2, r3
 80029d0:	4b0f      	ldr	r3, [pc, #60]	@ (8002a10 <processPoint+0x68>)
 80029d2:	0052      	lsls	r2, r2, #1
 80029d4:	1db9      	adds	r1, r7, #6
 80029d6:	8809      	ldrh	r1, [r1, #0]
 80029d8:	52d1      	strh	r1, [r2, r3]
        pathY[pathCount] = y;
 80029da:	4b0c      	ldr	r3, [pc, #48]	@ (8002a0c <processPoint+0x64>)
 80029dc:	881b      	ldrh	r3, [r3, #0]
 80029de:	b29b      	uxth	r3, r3
 80029e0:	001a      	movs	r2, r3
 80029e2:	4b0c      	ldr	r3, [pc, #48]	@ (8002a14 <processPoint+0x6c>)
 80029e4:	0052      	lsls	r2, r2, #1
 80029e6:	1d39      	adds	r1, r7, #4
 80029e8:	8809      	ldrh	r1, [r1, #0]
 80029ea:	52d1      	strh	r1, [r2, r3]
        pathCount++;
 80029ec:	4b07      	ldr	r3, [pc, #28]	@ (8002a0c <processPoint+0x64>)
 80029ee:	881b      	ldrh	r3, [r3, #0]
 80029f0:	b29b      	uxth	r3, r3
 80029f2:	3301      	adds	r3, #1
 80029f4:	b29a      	uxth	r2, r3
 80029f6:	4b05      	ldr	r3, [pc, #20]	@ (8002a0c <processPoint+0x64>)
 80029f8:	801a      	strh	r2, [r3, #0]
    else
    {
        // Overflow  clamp and mark ready
        pathReady = true;
    }
}
 80029fa:	e002      	b.n	8002a02 <processPoint+0x5a>
        pathReady = true;
 80029fc:	4b06      	ldr	r3, [pc, #24]	@ (8002a18 <processPoint+0x70>)
 80029fe:	2201      	movs	r2, #1
 8002a00:	701a      	strb	r2, [r3, #0]
}
 8002a02:	46c0      	nop			@ (mov r8, r8)
 8002a04:	46bd      	mov	sp, r7
 8002a06:	b002      	add	sp, #8
 8002a08:	bd80      	pop	{r7, pc}
 8002a0a:	46c0      	nop			@ (mov r8, r8)
 8002a0c:	200008d8 	.word	0x200008d8
 8002a10:	20000108 	.word	0x20000108
 8002a14:	200004f0 	.word	0x200004f0
 8002a18:	200008da 	.word	0x200008da

08002a1c <resetPath>:

void resetPath(void){
 8002a1c:	b580      	push	{r7, lr}
 8002a1e:	b082      	sub	sp, #8
 8002a20:	af00      	add	r7, sp, #0
    for (int i = 0; i < MAX_POINTS; i++) {
 8002a22:	2300      	movs	r3, #0
 8002a24:	607b      	str	r3, [r7, #4]
 8002a26:	e00c      	b.n	8002a42 <resetPath+0x26>
        pathX[i] = 0;
 8002a28:	4b0d      	ldr	r3, [pc, #52]	@ (8002a60 <resetPath+0x44>)
 8002a2a:	687a      	ldr	r2, [r7, #4]
 8002a2c:	0052      	lsls	r2, r2, #1
 8002a2e:	2100      	movs	r1, #0
 8002a30:	52d1      	strh	r1, [r2, r3]
        pathY[i] = 0;
 8002a32:	4b0c      	ldr	r3, [pc, #48]	@ (8002a64 <resetPath+0x48>)
 8002a34:	687a      	ldr	r2, [r7, #4]
 8002a36:	0052      	lsls	r2, r2, #1
 8002a38:	2100      	movs	r1, #0
 8002a3a:	52d1      	strh	r1, [r2, r3]
    for (int i = 0; i < MAX_POINTS; i++) {
 8002a3c:	687b      	ldr	r3, [r7, #4]
 8002a3e:	3301      	adds	r3, #1
 8002a40:	607b      	str	r3, [r7, #4]
 8002a42:	687a      	ldr	r2, [r7, #4]
 8002a44:	23fa      	movs	r3, #250	@ 0xfa
 8002a46:	005b      	lsls	r3, r3, #1
 8002a48:	429a      	cmp	r2, r3
 8002a4a:	dbed      	blt.n	8002a28 <resetPath+0xc>
    }
    pathCount = 0;
 8002a4c:	4b06      	ldr	r3, [pc, #24]	@ (8002a68 <resetPath+0x4c>)
 8002a4e:	2200      	movs	r2, #0
 8002a50:	801a      	strh	r2, [r3, #0]
    pathReady = false;
 8002a52:	4b06      	ldr	r3, [pc, #24]	@ (8002a6c <resetPath+0x50>)
 8002a54:	2200      	movs	r2, #0
 8002a56:	701a      	strb	r2, [r3, #0]
}
 8002a58:	46c0      	nop			@ (mov r8, r8)
 8002a5a:	46bd      	mov	sp, r7
 8002a5c:	b002      	add	sp, #8
 8002a5e:	bd80      	pop	{r7, pc}
 8002a60:	20000108 	.word	0x20000108
 8002a64:	200004f0 	.word	0x200004f0
 8002a68:	200008d8 	.word	0x200008d8
 8002a6c:	200008da 	.word	0x200008da

08002a70 <i2c1_init>:
volatile uint8_t color_read_flag = 0;
//static uint16_t tick_counter = 0;


// === I2C helper functions ===
void i2c1_init(void) {
 8002a70:	b580      	push	{r7, lr}
 8002a72:	af00      	add	r7, sp, #0
    RCC->AHBENR |= RCC_AHBENR_GPIOBEN;
 8002a74:	4b29      	ldr	r3, [pc, #164]	@ (8002b1c <i2c1_init+0xac>)
 8002a76:	695a      	ldr	r2, [r3, #20]
 8002a78:	4b28      	ldr	r3, [pc, #160]	@ (8002b1c <i2c1_init+0xac>)
 8002a7a:	2180      	movs	r1, #128	@ 0x80
 8002a7c:	02c9      	lsls	r1, r1, #11
 8002a7e:	430a      	orrs	r2, r1
 8002a80:	615a      	str	r2, [r3, #20]
    RCC->APB1ENR |= RCC_APB1ENR_I2C1EN;
 8002a82:	4b26      	ldr	r3, [pc, #152]	@ (8002b1c <i2c1_init+0xac>)
 8002a84:	69da      	ldr	r2, [r3, #28]
 8002a86:	4b25      	ldr	r3, [pc, #148]	@ (8002b1c <i2c1_init+0xac>)
 8002a88:	2180      	movs	r1, #128	@ 0x80
 8002a8a:	0389      	lsls	r1, r1, #14
 8002a8c:	430a      	orrs	r2, r1
 8002a8e:	61da      	str	r2, [r3, #28]

    // === Use PB6=SCL, PB7=SDA ===
    GPIOB->MODER &= ~((3 << (6*2)) | (3 << (7*2)));
 8002a90:	4b23      	ldr	r3, [pc, #140]	@ (8002b20 <i2c1_init+0xb0>)
 8002a92:	681a      	ldr	r2, [r3, #0]
 8002a94:	4b22      	ldr	r3, [pc, #136]	@ (8002b20 <i2c1_init+0xb0>)
 8002a96:	4923      	ldr	r1, [pc, #140]	@ (8002b24 <i2c1_init+0xb4>)
 8002a98:	400a      	ands	r2, r1
 8002a9a:	601a      	str	r2, [r3, #0]
    GPIOB->MODER |=  (2 << (6*2)) | (2 << (7*2));    // AF
 8002a9c:	4b20      	ldr	r3, [pc, #128]	@ (8002b20 <i2c1_init+0xb0>)
 8002a9e:	681a      	ldr	r2, [r3, #0]
 8002aa0:	4b1f      	ldr	r3, [pc, #124]	@ (8002b20 <i2c1_init+0xb0>)
 8002aa2:	21a0      	movs	r1, #160	@ 0xa0
 8002aa4:	0209      	lsls	r1, r1, #8
 8002aa6:	430a      	orrs	r2, r1
 8002aa8:	601a      	str	r2, [r3, #0]
    GPIOB->OTYPER |= (1 << 6) | (1 << 7);
 8002aaa:	4b1d      	ldr	r3, [pc, #116]	@ (8002b20 <i2c1_init+0xb0>)
 8002aac:	685a      	ldr	r2, [r3, #4]
 8002aae:	4b1c      	ldr	r3, [pc, #112]	@ (8002b20 <i2c1_init+0xb0>)
 8002ab0:	21c0      	movs	r1, #192	@ 0xc0
 8002ab2:	430a      	orrs	r2, r1
 8002ab4:	605a      	str	r2, [r3, #4]
    GPIOB->AFR[0] &= ~((0xF << (6*4)) | (0xF << (7*4)));
 8002ab6:	4b1a      	ldr	r3, [pc, #104]	@ (8002b20 <i2c1_init+0xb0>)
 8002ab8:	6a1a      	ldr	r2, [r3, #32]
 8002aba:	4b19      	ldr	r3, [pc, #100]	@ (8002b20 <i2c1_init+0xb0>)
 8002abc:	0212      	lsls	r2, r2, #8
 8002abe:	0a12      	lsrs	r2, r2, #8
 8002ac0:	621a      	str	r2, [r3, #32]
    GPIOB->AFR[0] |=  (1 << (6*4)) | (1 << (7*4));    // AF1 = I2C1
 8002ac2:	4b17      	ldr	r3, [pc, #92]	@ (8002b20 <i2c1_init+0xb0>)
 8002ac4:	6a1a      	ldr	r2, [r3, #32]
 8002ac6:	4b16      	ldr	r3, [pc, #88]	@ (8002b20 <i2c1_init+0xb0>)
 8002ac8:	2188      	movs	r1, #136	@ 0x88
 8002aca:	0549      	lsls	r1, r1, #21
 8002acc:	430a      	orrs	r2, r1
 8002ace:	621a      	str	r2, [r3, #32]

    GPIOB->OSPEEDR |= (3 << (6*2)) | (3 << (7*2));    // High speed
 8002ad0:	4b13      	ldr	r3, [pc, #76]	@ (8002b20 <i2c1_init+0xb0>)
 8002ad2:	689a      	ldr	r2, [r3, #8]
 8002ad4:	4b12      	ldr	r3, [pc, #72]	@ (8002b20 <i2c1_init+0xb0>)
 8002ad6:	21f0      	movs	r1, #240	@ 0xf0
 8002ad8:	0209      	lsls	r1, r1, #8
 8002ada:	430a      	orrs	r2, r1
 8002adc:	609a      	str	r2, [r3, #8]
    GPIOB->PUPDR &= ~((3 << (6*2)) | (3 << (7*2)));
 8002ade:	4b10      	ldr	r3, [pc, #64]	@ (8002b20 <i2c1_init+0xb0>)
 8002ae0:	68da      	ldr	r2, [r3, #12]
 8002ae2:	4b0f      	ldr	r3, [pc, #60]	@ (8002b20 <i2c1_init+0xb0>)
 8002ae4:	490f      	ldr	r1, [pc, #60]	@ (8002b24 <i2c1_init+0xb4>)
 8002ae6:	400a      	ands	r2, r1
 8002ae8:	60da      	str	r2, [r3, #12]
    GPIOB->PUPDR |=  (1 << (6*2)) | (1 << (7*2)); // Pull-up both lines
 8002aea:	4b0d      	ldr	r3, [pc, #52]	@ (8002b20 <i2c1_init+0xb0>)
 8002aec:	68da      	ldr	r2, [r3, #12]
 8002aee:	4b0c      	ldr	r3, [pc, #48]	@ (8002b20 <i2c1_init+0xb0>)
 8002af0:	21a0      	movs	r1, #160	@ 0xa0
 8002af2:	01c9      	lsls	r1, r1, #7
 8002af4:	430a      	orrs	r2, r1
 8002af6:	60da      	str	r2, [r3, #12]

    // === Reset I2C1 ===
    I2C1->CR1 &= ~I2C_CR1_PE;
 8002af8:	4b0b      	ldr	r3, [pc, #44]	@ (8002b28 <i2c1_init+0xb8>)
 8002afa:	681a      	ldr	r2, [r3, #0]
 8002afc:	4b0a      	ldr	r3, [pc, #40]	@ (8002b28 <i2c1_init+0xb8>)
 8002afe:	2101      	movs	r1, #1
 8002b00:	438a      	bics	r2, r1
 8002b02:	601a      	str	r2, [r3, #0]
   // I2C1->CR1 |= I2C_CR1_SWRST;
   // I2C1->CR1 &= ~I2C_CR1_SWRST;

    // === Timing 100 kHz @ 8 MHz ===
    I2C1->TIMINGR = 0x2000090E;
 8002b04:	4b08      	ldr	r3, [pc, #32]	@ (8002b28 <i2c1_init+0xb8>)
 8002b06:	4a09      	ldr	r2, [pc, #36]	@ (8002b2c <i2c1_init+0xbc>)
 8002b08:	611a      	str	r2, [r3, #16]

    // === Enable I2C ===
    I2C1->CR1 |= I2C_CR1_PE;
 8002b0a:	4b07      	ldr	r3, [pc, #28]	@ (8002b28 <i2c1_init+0xb8>)
 8002b0c:	681a      	ldr	r2, [r3, #0]
 8002b0e:	4b06      	ldr	r3, [pc, #24]	@ (8002b28 <i2c1_init+0xb8>)
 8002b10:	2101      	movs	r1, #1
 8002b12:	430a      	orrs	r2, r1
 8002b14:	601a      	str	r2, [r3, #0]
}
 8002b16:	46c0      	nop			@ (mov r8, r8)
 8002b18:	46bd      	mov	sp, r7
 8002b1a:	bd80      	pop	{r7, pc}
 8002b1c:	40021000 	.word	0x40021000
 8002b20:	48000400 	.word	0x48000400
 8002b24:	ffff0fff 	.word	0xffff0fff
 8002b28:	40005400 	.word	0x40005400
 8002b2c:	2000090e 	.word	0x2000090e

08002b30 <i2c1_write>:

void i2c1_write(uint8_t dev, uint8_t reg, uint8_t data) {
 8002b30:	b590      	push	{r4, r7, lr}
 8002b32:	b083      	sub	sp, #12
 8002b34:	af00      	add	r7, sp, #0
 8002b36:	0004      	movs	r4, r0
 8002b38:	0008      	movs	r0, r1
 8002b3a:	0011      	movs	r1, r2
 8002b3c:	1dfb      	adds	r3, r7, #7
 8002b3e:	1c22      	adds	r2, r4, #0
 8002b40:	701a      	strb	r2, [r3, #0]
 8002b42:	1dbb      	adds	r3, r7, #6
 8002b44:	1c02      	adds	r2, r0, #0
 8002b46:	701a      	strb	r2, [r3, #0]
 8002b48:	1d7b      	adds	r3, r7, #5
 8002b4a:	1c0a      	adds	r2, r1, #0
 8002b4c:	701a      	strb	r2, [r3, #0]
	// Send reg + data
	I2C1->CR2 = (dev << 1) | (2 << 16) | I2C_CR2_START | I2C_CR2_AUTOEND;
 8002b4e:	1dfb      	adds	r3, r7, #7
 8002b50:	781b      	ldrb	r3, [r3, #0]
 8002b52:	005a      	lsls	r2, r3, #1
 8002b54:	4b13      	ldr	r3, [pc, #76]	@ (8002ba4 <i2c1_write+0x74>)
 8002b56:	4914      	ldr	r1, [pc, #80]	@ (8002ba8 <i2c1_write+0x78>)
 8002b58:	430a      	orrs	r2, r1
 8002b5a:	605a      	str	r2, [r3, #4]
	while (!(I2C1->ISR & I2C_ISR_TXIS));
 8002b5c:	46c0      	nop			@ (mov r8, r8)
 8002b5e:	4b11      	ldr	r3, [pc, #68]	@ (8002ba4 <i2c1_write+0x74>)
 8002b60:	699b      	ldr	r3, [r3, #24]
 8002b62:	2202      	movs	r2, #2
 8002b64:	4013      	ands	r3, r2
 8002b66:	d0fa      	beq.n	8002b5e <i2c1_write+0x2e>
	I2C1->TXDR = reg;
 8002b68:	4b0e      	ldr	r3, [pc, #56]	@ (8002ba4 <i2c1_write+0x74>)
 8002b6a:	1dba      	adds	r2, r7, #6
 8002b6c:	7812      	ldrb	r2, [r2, #0]
 8002b6e:	629a      	str	r2, [r3, #40]	@ 0x28
	while (!(I2C1->ISR & I2C_ISR_TXIS));
 8002b70:	46c0      	nop			@ (mov r8, r8)
 8002b72:	4b0c      	ldr	r3, [pc, #48]	@ (8002ba4 <i2c1_write+0x74>)
 8002b74:	699b      	ldr	r3, [r3, #24]
 8002b76:	2202      	movs	r2, #2
 8002b78:	4013      	ands	r3, r2
 8002b7a:	d0fa      	beq.n	8002b72 <i2c1_write+0x42>
	I2C1->TXDR = data;
 8002b7c:	4b09      	ldr	r3, [pc, #36]	@ (8002ba4 <i2c1_write+0x74>)
 8002b7e:	1d7a      	adds	r2, r7, #5
 8002b80:	7812      	ldrb	r2, [r2, #0]
 8002b82:	629a      	str	r2, [r3, #40]	@ 0x28
	while (!(I2C1->ISR & I2C_ISR_STOPF));
 8002b84:	46c0      	nop			@ (mov r8, r8)
 8002b86:	4b07      	ldr	r3, [pc, #28]	@ (8002ba4 <i2c1_write+0x74>)
 8002b88:	699b      	ldr	r3, [r3, #24]
 8002b8a:	2220      	movs	r2, #32
 8002b8c:	4013      	ands	r3, r2
 8002b8e:	d0fa      	beq.n	8002b86 <i2c1_write+0x56>
	I2C1->ICR |= I2C_ICR_STOPCF; // clear STOP flag
 8002b90:	4b04      	ldr	r3, [pc, #16]	@ (8002ba4 <i2c1_write+0x74>)
 8002b92:	69da      	ldr	r2, [r3, #28]
 8002b94:	4b03      	ldr	r3, [pc, #12]	@ (8002ba4 <i2c1_write+0x74>)
 8002b96:	2120      	movs	r1, #32
 8002b98:	430a      	orrs	r2, r1
 8002b9a:	61da      	str	r2, [r3, #28]
}
 8002b9c:	46c0      	nop			@ (mov r8, r8)
 8002b9e:	46bd      	mov	sp, r7
 8002ba0:	b003      	add	sp, #12
 8002ba2:	bd90      	pop	{r4, r7, pc}
 8002ba4:	40005400 	.word	0x40005400
 8002ba8:	02022000 	.word	0x02022000

08002bac <i2c1_read_bytes>:

void i2c1_read_bytes(uint8_t dev, uint8_t reg, uint8_t *buf, uint8_t len) {
 8002bac:	b590      	push	{r4, r7, lr}
 8002bae:	b085      	sub	sp, #20
 8002bb0:	af00      	add	r7, sp, #0
 8002bb2:	0004      	movs	r4, r0
 8002bb4:	0008      	movs	r0, r1
 8002bb6:	603a      	str	r2, [r7, #0]
 8002bb8:	0019      	movs	r1, r3
 8002bba:	1dfb      	adds	r3, r7, #7
 8002bbc:	1c22      	adds	r2, r4, #0
 8002bbe:	701a      	strb	r2, [r3, #0]
 8002bc0:	1dbb      	adds	r3, r7, #6
 8002bc2:	1c02      	adds	r2, r0, #0
 8002bc4:	701a      	strb	r2, [r3, #0]
 8002bc6:	1d7b      	adds	r3, r7, #5
 8002bc8:	1c0a      	adds	r2, r1, #0
 8002bca:	701a      	strb	r2, [r3, #0]
	// Write register address (no STOP, use RESTART)
	I2C1->CR2 = (dev << 1) | (1 << 16) | I2C_CR2_START;
 8002bcc:	1dfb      	adds	r3, r7, #7
 8002bce:	781b      	ldrb	r3, [r3, #0]
 8002bd0:	005a      	lsls	r2, r3, #1
 8002bd2:	4b28      	ldr	r3, [pc, #160]	@ (8002c74 <i2c1_read_bytes+0xc8>)
 8002bd4:	2190      	movs	r1, #144	@ 0x90
 8002bd6:	0249      	lsls	r1, r1, #9
 8002bd8:	430a      	orrs	r2, r1
 8002bda:	605a      	str	r2, [r3, #4]
	while (!(I2C1->ISR & I2C_ISR_TXIS));
 8002bdc:	46c0      	nop			@ (mov r8, r8)
 8002bde:	4b25      	ldr	r3, [pc, #148]	@ (8002c74 <i2c1_read_bytes+0xc8>)
 8002be0:	699b      	ldr	r3, [r3, #24]
 8002be2:	2202      	movs	r2, #2
 8002be4:	4013      	ands	r3, r2
 8002be6:	d0fa      	beq.n	8002bde <i2c1_read_bytes+0x32>
	I2C1->TXDR = reg;
 8002be8:	4b22      	ldr	r3, [pc, #136]	@ (8002c74 <i2c1_read_bytes+0xc8>)
 8002bea:	1dba      	adds	r2, r7, #6
 8002bec:	7812      	ldrb	r2, [r2, #0]
 8002bee:	629a      	str	r2, [r3, #40]	@ 0x28
	while (!(I2C1->ISR & I2C_ISR_TC));
 8002bf0:	46c0      	nop			@ (mov r8, r8)
 8002bf2:	4b20      	ldr	r3, [pc, #128]	@ (8002c74 <i2c1_read_bytes+0xc8>)
 8002bf4:	699b      	ldr	r3, [r3, #24]
 8002bf6:	2240      	movs	r2, #64	@ 0x40
 8002bf8:	4013      	ands	r3, r2
 8002bfa:	d0fa      	beq.n	8002bf2 <i2c1_read_bytes+0x46>

	// Restart + read
	I2C1->CR2 = (dev << 1) | (len << 16) | I2C_CR2_RD_WRN |
 8002bfc:	1dfb      	adds	r3, r7, #7
 8002bfe:	781b      	ldrb	r3, [r3, #0]
 8002c00:	005a      	lsls	r2, r3, #1
 8002c02:	1d7b      	adds	r3, r7, #5
 8002c04:	781b      	ldrb	r3, [r3, #0]
 8002c06:	041b      	lsls	r3, r3, #16
 8002c08:	4313      	orrs	r3, r2
 8002c0a:	0019      	movs	r1, r3
 8002c0c:	4b19      	ldr	r3, [pc, #100]	@ (8002c74 <i2c1_read_bytes+0xc8>)
				I2C_CR2_START | I2C_CR2_AUTOEND;
 8002c0e:	4a1a      	ldr	r2, [pc, #104]	@ (8002c78 <i2c1_read_bytes+0xcc>)
 8002c10:	430a      	orrs	r2, r1
	I2C1->CR2 = (dev << 1) | (len << 16) | I2C_CR2_RD_WRN |
 8002c12:	605a      	str	r2, [r3, #4]
	for (uint8_t i = 0; i < len; i++) {
 8002c14:	230f      	movs	r3, #15
 8002c16:	18fb      	adds	r3, r7, r3
 8002c18:	2200      	movs	r2, #0
 8002c1a:	701a      	strb	r2, [r3, #0]
 8002c1c:	e013      	b.n	8002c46 <i2c1_read_bytes+0x9a>
		while (!(I2C1->ISR & I2C_ISR_RXNE));
 8002c1e:	46c0      	nop			@ (mov r8, r8)
 8002c20:	4b14      	ldr	r3, [pc, #80]	@ (8002c74 <i2c1_read_bytes+0xc8>)
 8002c22:	699b      	ldr	r3, [r3, #24]
 8002c24:	2204      	movs	r2, #4
 8002c26:	4013      	ands	r3, r2
 8002c28:	d0fa      	beq.n	8002c20 <i2c1_read_bytes+0x74>
		buf[i] = I2C1->RXDR;
 8002c2a:	4b12      	ldr	r3, [pc, #72]	@ (8002c74 <i2c1_read_bytes+0xc8>)
 8002c2c:	6a59      	ldr	r1, [r3, #36]	@ 0x24
 8002c2e:	200f      	movs	r0, #15
 8002c30:	183b      	adds	r3, r7, r0
 8002c32:	781b      	ldrb	r3, [r3, #0]
 8002c34:	683a      	ldr	r2, [r7, #0]
 8002c36:	18d3      	adds	r3, r2, r3
 8002c38:	b2ca      	uxtb	r2, r1
 8002c3a:	701a      	strb	r2, [r3, #0]
	for (uint8_t i = 0; i < len; i++) {
 8002c3c:	183b      	adds	r3, r7, r0
 8002c3e:	781a      	ldrb	r2, [r3, #0]
 8002c40:	183b      	adds	r3, r7, r0
 8002c42:	3201      	adds	r2, #1
 8002c44:	701a      	strb	r2, [r3, #0]
 8002c46:	230f      	movs	r3, #15
 8002c48:	18fa      	adds	r2, r7, r3
 8002c4a:	1d7b      	adds	r3, r7, #5
 8002c4c:	7812      	ldrb	r2, [r2, #0]
 8002c4e:	781b      	ldrb	r3, [r3, #0]
 8002c50:	429a      	cmp	r2, r3
 8002c52:	d3e4      	bcc.n	8002c1e <i2c1_read_bytes+0x72>
	}
	while (!(I2C1->ISR & I2C_ISR_STOPF));
 8002c54:	46c0      	nop			@ (mov r8, r8)
 8002c56:	4b07      	ldr	r3, [pc, #28]	@ (8002c74 <i2c1_read_bytes+0xc8>)
 8002c58:	699b      	ldr	r3, [r3, #24]
 8002c5a:	2220      	movs	r2, #32
 8002c5c:	4013      	ands	r3, r2
 8002c5e:	d0fa      	beq.n	8002c56 <i2c1_read_bytes+0xaa>
	I2C1->ICR |= I2C_ICR_STOPCF;
 8002c60:	4b04      	ldr	r3, [pc, #16]	@ (8002c74 <i2c1_read_bytes+0xc8>)
 8002c62:	69da      	ldr	r2, [r3, #28]
 8002c64:	4b03      	ldr	r3, [pc, #12]	@ (8002c74 <i2c1_read_bytes+0xc8>)
 8002c66:	2120      	movs	r1, #32
 8002c68:	430a      	orrs	r2, r1
 8002c6a:	61da      	str	r2, [r3, #28]
}
 8002c6c:	46c0      	nop			@ (mov r8, r8)
 8002c6e:	46bd      	mov	sp, r7
 8002c70:	b005      	add	sp, #20
 8002c72:	bd90      	pop	{r4, r7, pc}
 8002c74:	40005400 	.word	0x40005400
 8002c78:	02002400 	.word	0x02002400

08002c7c <mpu6050_init>:

void mpu6050_init(void) {
 8002c7c:	b580      	push	{r7, lr}
 8002c7e:	af00      	add	r7, sp, #0
    i2c1_write(MPU6050_ADDR, PWR_MGMT_1, 0x00); // Wake up
 8002c80:	2200      	movs	r2, #0
 8002c82:	216b      	movs	r1, #107	@ 0x6b
 8002c84:	2068      	movs	r0, #104	@ 0x68
 8002c86:	f7ff ff53 	bl	8002b30 <i2c1_write>
    i2c1_write(MPU6050_ADDR, SMPLRT_DIV, 0x07);
 8002c8a:	2207      	movs	r2, #7
 8002c8c:	2119      	movs	r1, #25
 8002c8e:	2068      	movs	r0, #104	@ 0x68
 8002c90:	f7ff ff4e 	bl	8002b30 <i2c1_write>
    i2c1_write(MPU6050_ADDR, CONFIG, 0x04); //Filtro 4 21Hz
 8002c94:	2204      	movs	r2, #4
 8002c96:	211a      	movs	r1, #26
 8002c98:	2068      	movs	r0, #104	@ 0x68
 8002c9a:	f7ff ff49 	bl	8002b30 <i2c1_write>
    i2c1_write(MPU6050_ADDR, GYRO_CONFIG, 0x00);
 8002c9e:	2200      	movs	r2, #0
 8002ca0:	211b      	movs	r1, #27
 8002ca2:	2068      	movs	r0, #104	@ 0x68
 8002ca4:	f7ff ff44 	bl	8002b30 <i2c1_write>
    i2c1_write(MPU6050_ADDR, ACCEL_CONFIG, 0x00);  // 2g
 8002ca8:	2200      	movs	r2, #0
 8002caa:	211c      	movs	r1, #28
 8002cac:	2068      	movs	r0, #104	@ 0x68
 8002cae:	f7ff ff3f 	bl	8002b30 <i2c1_write>
}
 8002cb2:	46c0      	nop			@ (mov r8, r8)
 8002cb4:	46bd      	mov	sp, r7
 8002cb6:	bd80      	pop	{r7, pc}

08002cb8 <mpu6050_read_all>:

void mpu6050_read_all(void) {
 8002cb8:	b580      	push	{r7, lr}
 8002cba:	b084      	sub	sp, #16
 8002cbc:	af00      	add	r7, sp, #0
	uint8_t data[14];
	i2c1_read_bytes(MPU6050_ADDR, ACCEL_XOUT_H, data, 14);
 8002cbe:	003a      	movs	r2, r7
 8002cc0:	230e      	movs	r3, #14
 8002cc2:	213b      	movs	r1, #59	@ 0x3b
 8002cc4:	2068      	movs	r0, #104	@ 0x68
 8002cc6:	f7ff ff71 	bl	8002bac <i2c1_read_bytes>

	AccelX = (data[0] << 8) | data[1];
 8002cca:	003b      	movs	r3, r7
 8002ccc:	781b      	ldrb	r3, [r3, #0]
 8002cce:	b21b      	sxth	r3, r3
 8002cd0:	021b      	lsls	r3, r3, #8
 8002cd2:	b21a      	sxth	r2, r3
 8002cd4:	003b      	movs	r3, r7
 8002cd6:	785b      	ldrb	r3, [r3, #1]
 8002cd8:	b21b      	sxth	r3, r3
 8002cda:	4313      	orrs	r3, r2
 8002cdc:	b21a      	sxth	r2, r3
 8002cde:	4b21      	ldr	r3, [pc, #132]	@ (8002d64 <mpu6050_read_all+0xac>)
 8002ce0:	801a      	strh	r2, [r3, #0]
	AccelY = (data[2] << 8) | data[3];
 8002ce2:	003b      	movs	r3, r7
 8002ce4:	789b      	ldrb	r3, [r3, #2]
 8002ce6:	b21b      	sxth	r3, r3
 8002ce8:	021b      	lsls	r3, r3, #8
 8002cea:	b21a      	sxth	r2, r3
 8002cec:	003b      	movs	r3, r7
 8002cee:	78db      	ldrb	r3, [r3, #3]
 8002cf0:	b21b      	sxth	r3, r3
 8002cf2:	4313      	orrs	r3, r2
 8002cf4:	b21a      	sxth	r2, r3
 8002cf6:	4b1c      	ldr	r3, [pc, #112]	@ (8002d68 <mpu6050_read_all+0xb0>)
 8002cf8:	801a      	strh	r2, [r3, #0]
	AccelZ = (data[4] << 8) | data[5];
 8002cfa:	003b      	movs	r3, r7
 8002cfc:	791b      	ldrb	r3, [r3, #4]
 8002cfe:	b21b      	sxth	r3, r3
 8002d00:	021b      	lsls	r3, r3, #8
 8002d02:	b21a      	sxth	r2, r3
 8002d04:	003b      	movs	r3, r7
 8002d06:	795b      	ldrb	r3, [r3, #5]
 8002d08:	b21b      	sxth	r3, r3
 8002d0a:	4313      	orrs	r3, r2
 8002d0c:	b21a      	sxth	r2, r3
 8002d0e:	4b17      	ldr	r3, [pc, #92]	@ (8002d6c <mpu6050_read_all+0xb4>)
 8002d10:	801a      	strh	r2, [r3, #0]
	GyroX  = (data[8] << 8) | data[9];
 8002d12:	003b      	movs	r3, r7
 8002d14:	7a1b      	ldrb	r3, [r3, #8]
 8002d16:	b21b      	sxth	r3, r3
 8002d18:	021b      	lsls	r3, r3, #8
 8002d1a:	b21a      	sxth	r2, r3
 8002d1c:	003b      	movs	r3, r7
 8002d1e:	7a5b      	ldrb	r3, [r3, #9]
 8002d20:	b21b      	sxth	r3, r3
 8002d22:	4313      	orrs	r3, r2
 8002d24:	b21a      	sxth	r2, r3
 8002d26:	4b12      	ldr	r3, [pc, #72]	@ (8002d70 <mpu6050_read_all+0xb8>)
 8002d28:	801a      	strh	r2, [r3, #0]
	GyroY  = (data[10] << 8) | data[11];
 8002d2a:	003b      	movs	r3, r7
 8002d2c:	7a9b      	ldrb	r3, [r3, #10]
 8002d2e:	b21b      	sxth	r3, r3
 8002d30:	021b      	lsls	r3, r3, #8
 8002d32:	b21a      	sxth	r2, r3
 8002d34:	003b      	movs	r3, r7
 8002d36:	7adb      	ldrb	r3, [r3, #11]
 8002d38:	b21b      	sxth	r3, r3
 8002d3a:	4313      	orrs	r3, r2
 8002d3c:	b21a      	sxth	r2, r3
 8002d3e:	4b0d      	ldr	r3, [pc, #52]	@ (8002d74 <mpu6050_read_all+0xbc>)
 8002d40:	801a      	strh	r2, [r3, #0]
	GyroZ  = (data[12] << 8) | data[13];
 8002d42:	003b      	movs	r3, r7
 8002d44:	7b1b      	ldrb	r3, [r3, #12]
 8002d46:	b21b      	sxth	r3, r3
 8002d48:	021b      	lsls	r3, r3, #8
 8002d4a:	b21a      	sxth	r2, r3
 8002d4c:	003b      	movs	r3, r7
 8002d4e:	7b5b      	ldrb	r3, [r3, #13]
 8002d50:	b21b      	sxth	r3, r3
 8002d52:	4313      	orrs	r3, r2
 8002d54:	b21a      	sxth	r2, r3
 8002d56:	4b08      	ldr	r3, [pc, #32]	@ (8002d78 <mpu6050_read_all+0xc0>)
 8002d58:	801a      	strh	r2, [r3, #0]

}
 8002d5a:	46c0      	nop			@ (mov r8, r8)
 8002d5c:	46bd      	mov	sp, r7
 8002d5e:	b004      	add	sp, #16
 8002d60:	bd80      	pop	{r7, pc}
 8002d62:	46c0      	nop			@ (mov r8, r8)
 8002d64:	200008dc 	.word	0x200008dc
 8002d68:	200008de 	.word	0x200008de
 8002d6c:	200008e0 	.word	0x200008e0
 8002d70:	200008e2 	.word	0x200008e2
 8002d74:	200008e4 	.word	0x200008e4
 8002d78:	200008e6 	.word	0x200008e6

08002d7c <TCS34725_ReadRGB>:
	i2c1_write(TCS34725_ADDR, TCS34725_COMMAND_BIT | TCS34725_ATIME, 0x40);
	// Set gain (1x, 4x, 16x, 60x). Example: 0x01 = 4x
	i2c1_write(TCS34725_ADDR, TCS34725_COMMAND_BIT | TCS34725_CONTROL, 0x02);
}

void TCS34725_ReadRGB(uint16_t *r, uint16_t *g, uint16_t *b, uint16_t *c) {
 8002d7c:	b590      	push	{r4, r7, lr}
 8002d7e:	b087      	sub	sp, #28
 8002d80:	af00      	add	r7, sp, #0
 8002d82:	60f8      	str	r0, [r7, #12]
 8002d84:	60b9      	str	r1, [r7, #8]
 8002d86:	607a      	str	r2, [r7, #4]
 8002d88:	603b      	str	r3, [r7, #0]
    i2c1_write(TCS34725_ADDR, TCS34725_COMMAND_BIT | TCS34725_ENABLE, 0x03);
 8002d8a:	2203      	movs	r2, #3
 8002d8c:	2180      	movs	r1, #128	@ 0x80
 8002d8e:	2029      	movs	r0, #41	@ 0x29
 8002d90:	f7ff fece 	bl	8002b30 <i2c1_write>

	uint8_t data[8];
	// Read 8 bytes starting at CDATAL
	i2c1_read_bytes(TCS34725_ADDR, TCS34725_COMMAND_BIT | TCS34725_CDATAL, data, 8);
 8002d94:	2410      	movs	r4, #16
 8002d96:	193a      	adds	r2, r7, r4
 8002d98:	2308      	movs	r3, #8
 8002d9a:	2194      	movs	r1, #148	@ 0x94
 8002d9c:	2029      	movs	r0, #41	@ 0x29
 8002d9e:	f7ff ff05 	bl	8002bac <i2c1_read_bytes>

	*c = (data[1] << 8) | data[0]; // Clear channel
 8002da2:	0021      	movs	r1, r4
 8002da4:	187b      	adds	r3, r7, r1
 8002da6:	785b      	ldrb	r3, [r3, #1]
 8002da8:	b21b      	sxth	r3, r3
 8002daa:	021b      	lsls	r3, r3, #8
 8002dac:	b21a      	sxth	r2, r3
 8002dae:	187b      	adds	r3, r7, r1
 8002db0:	781b      	ldrb	r3, [r3, #0]
 8002db2:	b21b      	sxth	r3, r3
 8002db4:	4313      	orrs	r3, r2
 8002db6:	b21b      	sxth	r3, r3
 8002db8:	b29a      	uxth	r2, r3
 8002dba:	683b      	ldr	r3, [r7, #0]
 8002dbc:	801a      	strh	r2, [r3, #0]
	*r = (data[3] << 8) | data[2];
 8002dbe:	187b      	adds	r3, r7, r1
 8002dc0:	78db      	ldrb	r3, [r3, #3]
 8002dc2:	b21b      	sxth	r3, r3
 8002dc4:	021b      	lsls	r3, r3, #8
 8002dc6:	b21a      	sxth	r2, r3
 8002dc8:	187b      	adds	r3, r7, r1
 8002dca:	789b      	ldrb	r3, [r3, #2]
 8002dcc:	b21b      	sxth	r3, r3
 8002dce:	4313      	orrs	r3, r2
 8002dd0:	b21b      	sxth	r3, r3
 8002dd2:	b29a      	uxth	r2, r3
 8002dd4:	68fb      	ldr	r3, [r7, #12]
 8002dd6:	801a      	strh	r2, [r3, #0]
	*g = (data[5] << 8) | data[4];
 8002dd8:	187b      	adds	r3, r7, r1
 8002dda:	795b      	ldrb	r3, [r3, #5]
 8002ddc:	b21b      	sxth	r3, r3
 8002dde:	021b      	lsls	r3, r3, #8
 8002de0:	b21a      	sxth	r2, r3
 8002de2:	187b      	adds	r3, r7, r1
 8002de4:	791b      	ldrb	r3, [r3, #4]
 8002de6:	b21b      	sxth	r3, r3
 8002de8:	4313      	orrs	r3, r2
 8002dea:	b21b      	sxth	r3, r3
 8002dec:	b29a      	uxth	r2, r3
 8002dee:	68bb      	ldr	r3, [r7, #8]
 8002df0:	801a      	strh	r2, [r3, #0]
	*b = (data[7] << 8) | data[6];
 8002df2:	187b      	adds	r3, r7, r1
 8002df4:	79db      	ldrb	r3, [r3, #7]
 8002df6:	b21b      	sxth	r3, r3
 8002df8:	021b      	lsls	r3, r3, #8
 8002dfa:	b21a      	sxth	r2, r3
 8002dfc:	187b      	adds	r3, r7, r1
 8002dfe:	799b      	ldrb	r3, [r3, #6]
 8002e00:	b21b      	sxth	r3, r3
 8002e02:	4313      	orrs	r3, r2
 8002e04:	b21b      	sxth	r3, r3
 8002e06:	b29a      	uxth	r2, r3
 8002e08:	687b      	ldr	r3, [r7, #4]
 8002e0a:	801a      	strh	r2, [r3, #0]
}
 8002e0c:	46c0      	nop			@ (mov r8, r8)
 8002e0e:	46bd      	mov	sp, r7
 8002e10:	b007      	add	sp, #28
 8002e12:	bd90      	pop	{r4, r7, pc}

08002e14 <calibrate_init>:

void calibrate_init(int16_t Ax, int16_t Ay, int16_t Az, uint16_t startup_time){
 8002e14:	b5b0      	push	{r4, r5, r7, lr}
 8002e16:	b082      	sub	sp, #8
 8002e18:	af00      	add	r7, sp, #0
 8002e1a:	0005      	movs	r5, r0
 8002e1c:	000c      	movs	r4, r1
 8002e1e:	0010      	movs	r0, r2
 8002e20:	0019      	movs	r1, r3
 8002e22:	1dbb      	adds	r3, r7, #6
 8002e24:	1c2a      	adds	r2, r5, #0
 8002e26:	801a      	strh	r2, [r3, #0]
 8002e28:	1d3b      	adds	r3, r7, #4
 8002e2a:	1c22      	adds	r2, r4, #0
 8002e2c:	801a      	strh	r2, [r3, #0]
 8002e2e:	1cbb      	adds	r3, r7, #2
 8002e30:	1c02      	adds	r2, r0, #0
 8002e32:	801a      	strh	r2, [r3, #0]
 8002e34:	003b      	movs	r3, r7
 8002e36:	1c0a      	adds	r2, r1, #0
 8002e38:	801a      	strh	r2, [r3, #0]
    if (calibration_done) return;  // Already done
 8002e3a:	4b4f      	ldr	r3, [pc, #316]	@ (8002f78 <calibrate_init+0x164>)
 8002e3c:	781b      	ldrb	r3, [r3, #0]
 8002e3e:	2b00      	cmp	r3, #0
 8002e40:	d000      	beq.n	8002e44 <calibrate_init+0x30>
 8002e42:	e094      	b.n	8002f6e <calibrate_init+0x15a>

    // Accumulate the first 100 samples
    AccelX_sum += Ax;
 8002e44:	1dbb      	adds	r3, r7, #6
 8002e46:	2200      	movs	r2, #0
 8002e48:	5e9a      	ldrsh	r2, [r3, r2]
 8002e4a:	4b4c      	ldr	r3, [pc, #304]	@ (8002f7c <calibrate_init+0x168>)
 8002e4c:	681b      	ldr	r3, [r3, #0]
 8002e4e:	18d2      	adds	r2, r2, r3
 8002e50:	4b4a      	ldr	r3, [pc, #296]	@ (8002f7c <calibrate_init+0x168>)
 8002e52:	601a      	str	r2, [r3, #0]
    AccelY_sum += Ay;
 8002e54:	1d3b      	adds	r3, r7, #4
 8002e56:	2200      	movs	r2, #0
 8002e58:	5e9a      	ldrsh	r2, [r3, r2]
 8002e5a:	4b49      	ldr	r3, [pc, #292]	@ (8002f80 <calibrate_init+0x16c>)
 8002e5c:	681b      	ldr	r3, [r3, #0]
 8002e5e:	18d2      	adds	r2, r2, r3
 8002e60:	4b47      	ldr	r3, [pc, #284]	@ (8002f80 <calibrate_init+0x16c>)
 8002e62:	601a      	str	r2, [r3, #0]
    AccelZ_sum += Az;
 8002e64:	1cbb      	adds	r3, r7, #2
 8002e66:	2200      	movs	r2, #0
 8002e68:	5e9a      	ldrsh	r2, [r3, r2]
 8002e6a:	4b46      	ldr	r3, [pc, #280]	@ (8002f84 <calibrate_init+0x170>)
 8002e6c:	681b      	ldr	r3, [r3, #0]
 8002e6e:	18d2      	adds	r2, r2, r3
 8002e70:	4b44      	ldr	r3, [pc, #272]	@ (8002f84 <calibrate_init+0x170>)
 8002e72:	601a      	str	r2, [r3, #0]

    GyroX_sum += GyroX;
 8002e74:	4b44      	ldr	r3, [pc, #272]	@ (8002f88 <calibrate_init+0x174>)
 8002e76:	881b      	ldrh	r3, [r3, #0]
 8002e78:	b21b      	sxth	r3, r3
 8002e7a:	001a      	movs	r2, r3
 8002e7c:	4b43      	ldr	r3, [pc, #268]	@ (8002f8c <calibrate_init+0x178>)
 8002e7e:	681b      	ldr	r3, [r3, #0]
 8002e80:	18d2      	adds	r2, r2, r3
 8002e82:	4b42      	ldr	r3, [pc, #264]	@ (8002f8c <calibrate_init+0x178>)
 8002e84:	601a      	str	r2, [r3, #0]
    GyroY_sum += GyroY;
 8002e86:	4b42      	ldr	r3, [pc, #264]	@ (8002f90 <calibrate_init+0x17c>)
 8002e88:	881b      	ldrh	r3, [r3, #0]
 8002e8a:	b21b      	sxth	r3, r3
 8002e8c:	001a      	movs	r2, r3
 8002e8e:	4b41      	ldr	r3, [pc, #260]	@ (8002f94 <calibrate_init+0x180>)
 8002e90:	681b      	ldr	r3, [r3, #0]
 8002e92:	18d2      	adds	r2, r2, r3
 8002e94:	4b3f      	ldr	r3, [pc, #252]	@ (8002f94 <calibrate_init+0x180>)
 8002e96:	601a      	str	r2, [r3, #0]
    GyroZ_sum += GyroZ;
 8002e98:	4b3f      	ldr	r3, [pc, #252]	@ (8002f98 <calibrate_init+0x184>)
 8002e9a:	881b      	ldrh	r3, [r3, #0]
 8002e9c:	b21b      	sxth	r3, r3
 8002e9e:	001a      	movs	r2, r3
 8002ea0:	4b3e      	ldr	r3, [pc, #248]	@ (8002f9c <calibrate_init+0x188>)
 8002ea2:	681b      	ldr	r3, [r3, #0]
 8002ea4:	18d2      	adds	r2, r2, r3
 8002ea6:	4b3d      	ldr	r3, [pc, #244]	@ (8002f9c <calibrate_init+0x188>)
 8002ea8:	601a      	str	r2, [r3, #0]

    // After 100 samples ( 1 second if you run every 10 ms)
    if (startup_time >= 100)
 8002eaa:	003b      	movs	r3, r7
 8002eac:	881b      	ldrh	r3, [r3, #0]
 8002eae:	2b63      	cmp	r3, #99	@ 0x63
 8002eb0:	d95e      	bls.n	8002f70 <calibrate_init+0x15c>
    {
        AccelX_offset = (float)AccelX_sum / 100.0f;
 8002eb2:	4b32      	ldr	r3, [pc, #200]	@ (8002f7c <calibrate_init+0x168>)
 8002eb4:	681b      	ldr	r3, [r3, #0]
 8002eb6:	0018      	movs	r0, r3
 8002eb8:	f7fe faa2 	bl	8001400 <__aeabi_i2f>
 8002ebc:	1c03      	adds	r3, r0, #0
 8002ebe:	4938      	ldr	r1, [pc, #224]	@ (8002fa0 <calibrate_init+0x18c>)
 8002ec0:	1c18      	adds	r0, r3, #0
 8002ec2:	f7fd fcdb 	bl	800087c <__aeabi_fdiv>
 8002ec6:	1c03      	adds	r3, r0, #0
 8002ec8:	1c1a      	adds	r2, r3, #0
 8002eca:	4b36      	ldr	r3, [pc, #216]	@ (8002fa4 <calibrate_init+0x190>)
 8002ecc:	601a      	str	r2, [r3, #0]
        AccelY_offset = (float)AccelY_sum / 100.0f;
 8002ece:	4b2c      	ldr	r3, [pc, #176]	@ (8002f80 <calibrate_init+0x16c>)
 8002ed0:	681b      	ldr	r3, [r3, #0]
 8002ed2:	0018      	movs	r0, r3
 8002ed4:	f7fe fa94 	bl	8001400 <__aeabi_i2f>
 8002ed8:	1c03      	adds	r3, r0, #0
 8002eda:	4931      	ldr	r1, [pc, #196]	@ (8002fa0 <calibrate_init+0x18c>)
 8002edc:	1c18      	adds	r0, r3, #0
 8002ede:	f7fd fccd 	bl	800087c <__aeabi_fdiv>
 8002ee2:	1c03      	adds	r3, r0, #0
 8002ee4:	1c1a      	adds	r2, r3, #0
 8002ee6:	4b30      	ldr	r3, [pc, #192]	@ (8002fa8 <calibrate_init+0x194>)
 8002ee8:	601a      	str	r2, [r3, #0]
        AccelZ_offset = ((float)AccelZ_sum / 100.0f) - 16384.0f;
 8002eea:	4b26      	ldr	r3, [pc, #152]	@ (8002f84 <calibrate_init+0x170>)
 8002eec:	681b      	ldr	r3, [r3, #0]
 8002eee:	0018      	movs	r0, r3
 8002ef0:	f7fe fa86 	bl	8001400 <__aeabi_i2f>
 8002ef4:	1c03      	adds	r3, r0, #0
 8002ef6:	492a      	ldr	r1, [pc, #168]	@ (8002fa0 <calibrate_init+0x18c>)
 8002ef8:	1c18      	adds	r0, r3, #0
 8002efa:	f7fd fcbf 	bl	800087c <__aeabi_fdiv>
 8002efe:	1c03      	adds	r3, r0, #0
 8002f00:	218d      	movs	r1, #141	@ 0x8d
 8002f02:	05c9      	lsls	r1, r1, #23
 8002f04:	1c18      	adds	r0, r3, #0
 8002f06:	f7fd ffe1 	bl	8000ecc <__aeabi_fsub>
 8002f0a:	1c03      	adds	r3, r0, #0
 8002f0c:	1c1a      	adds	r2, r3, #0
 8002f0e:	4b27      	ldr	r3, [pc, #156]	@ (8002fac <calibrate_init+0x198>)
 8002f10:	601a      	str	r2, [r3, #0]

        GyroX_offset = (float)GyroX_sum / 100.0f;
 8002f12:	4b1e      	ldr	r3, [pc, #120]	@ (8002f8c <calibrate_init+0x178>)
 8002f14:	681b      	ldr	r3, [r3, #0]
 8002f16:	0018      	movs	r0, r3
 8002f18:	f7fe fa72 	bl	8001400 <__aeabi_i2f>
 8002f1c:	1c03      	adds	r3, r0, #0
 8002f1e:	4920      	ldr	r1, [pc, #128]	@ (8002fa0 <calibrate_init+0x18c>)
 8002f20:	1c18      	adds	r0, r3, #0
 8002f22:	f7fd fcab 	bl	800087c <__aeabi_fdiv>
 8002f26:	1c03      	adds	r3, r0, #0
 8002f28:	1c1a      	adds	r2, r3, #0
 8002f2a:	4b21      	ldr	r3, [pc, #132]	@ (8002fb0 <calibrate_init+0x19c>)
 8002f2c:	601a      	str	r2, [r3, #0]
        GyroY_offset = (float)GyroY_sum / 100.0f;
 8002f2e:	4b19      	ldr	r3, [pc, #100]	@ (8002f94 <calibrate_init+0x180>)
 8002f30:	681b      	ldr	r3, [r3, #0]
 8002f32:	0018      	movs	r0, r3
 8002f34:	f7fe fa64 	bl	8001400 <__aeabi_i2f>
 8002f38:	1c03      	adds	r3, r0, #0
 8002f3a:	4919      	ldr	r1, [pc, #100]	@ (8002fa0 <calibrate_init+0x18c>)
 8002f3c:	1c18      	adds	r0, r3, #0
 8002f3e:	f7fd fc9d 	bl	800087c <__aeabi_fdiv>
 8002f42:	1c03      	adds	r3, r0, #0
 8002f44:	1c1a      	adds	r2, r3, #0
 8002f46:	4b1b      	ldr	r3, [pc, #108]	@ (8002fb4 <calibrate_init+0x1a0>)
 8002f48:	601a      	str	r2, [r3, #0]
        GyroZ_offset = (float)GyroZ_sum / 100.0f;
 8002f4a:	4b14      	ldr	r3, [pc, #80]	@ (8002f9c <calibrate_init+0x188>)
 8002f4c:	681b      	ldr	r3, [r3, #0]
 8002f4e:	0018      	movs	r0, r3
 8002f50:	f7fe fa56 	bl	8001400 <__aeabi_i2f>
 8002f54:	1c03      	adds	r3, r0, #0
 8002f56:	4912      	ldr	r1, [pc, #72]	@ (8002fa0 <calibrate_init+0x18c>)
 8002f58:	1c18      	adds	r0, r3, #0
 8002f5a:	f7fd fc8f 	bl	800087c <__aeabi_fdiv>
 8002f5e:	1c03      	adds	r3, r0, #0
 8002f60:	1c1a      	adds	r2, r3, #0
 8002f62:	4b15      	ldr	r3, [pc, #84]	@ (8002fb8 <calibrate_init+0x1a4>)
 8002f64:	601a      	str	r2, [r3, #0]

        calibration_done = 1;
 8002f66:	4b04      	ldr	r3, [pc, #16]	@ (8002f78 <calibrate_init+0x164>)
 8002f68:	2201      	movs	r2, #1
 8002f6a:	701a      	strb	r2, [r3, #0]
 8002f6c:	e000      	b.n	8002f70 <calibrate_init+0x15c>
    if (calibration_done) return;  // Already done
 8002f6e:	46c0      	nop			@ (mov r8, r8)
    }
}
 8002f70:	46bd      	mov	sp, r7
 8002f72:	b002      	add	sp, #8
 8002f74:	bdb0      	pop	{r4, r5, r7, pc}
 8002f76:	46c0      	nop			@ (mov r8, r8)
 8002f78:	2000094c 	.word	0x2000094c
 8002f7c:	20000910 	.word	0x20000910
 8002f80:	20000914 	.word	0x20000914
 8002f84:	20000918 	.word	0x20000918
 8002f88:	200008e2 	.word	0x200008e2
 8002f8c:	20000928 	.word	0x20000928
 8002f90:	200008e4 	.word	0x200008e4
 8002f94:	2000092c 	.word	0x2000092c
 8002f98:	200008e6 	.word	0x200008e6
 8002f9c:	20000930 	.word	0x20000930
 8002fa0:	42c80000 	.word	0x42c80000
 8002fa4:	2000091c 	.word	0x2000091c
 8002fa8:	20000920 	.word	0x20000920
 8002fac:	20000924 	.word	0x20000924
 8002fb0:	20000934 	.word	0x20000934
 8002fb4:	20000938 	.word	0x20000938
 8002fb8:	2000093c 	.word	0x2000093c

08002fbc <compute_angles>:

void compute_angles(void)
{
 8002fbc:	b590      	push	{r4, r7, lr}
 8002fbe:	b08b      	sub	sp, #44	@ 0x2c
 8002fc0:	af00      	add	r7, sp, #0
    gAccelX = (AccelX - AccelX_offset) / 16384.0f;
 8002fc2:	4bee      	ldr	r3, [pc, #952]	@ (800337c <compute_angles+0x3c0>)
 8002fc4:	881b      	ldrh	r3, [r3, #0]
 8002fc6:	b21b      	sxth	r3, r3
 8002fc8:	0018      	movs	r0, r3
 8002fca:	f7fe fa19 	bl	8001400 <__aeabi_i2f>
 8002fce:	1c02      	adds	r2, r0, #0
 8002fd0:	4beb      	ldr	r3, [pc, #940]	@ (8003380 <compute_angles+0x3c4>)
 8002fd2:	681b      	ldr	r3, [r3, #0]
 8002fd4:	1c19      	adds	r1, r3, #0
 8002fd6:	1c10      	adds	r0, r2, #0
 8002fd8:	f7fd ff78 	bl	8000ecc <__aeabi_fsub>
 8002fdc:	1c03      	adds	r3, r0, #0
 8002fde:	218d      	movs	r1, #141	@ 0x8d
 8002fe0:	05c9      	lsls	r1, r1, #23
 8002fe2:	1c18      	adds	r0, r3, #0
 8002fe4:	f7fd fc4a 	bl	800087c <__aeabi_fdiv>
 8002fe8:	1c03      	adds	r3, r0, #0
 8002fea:	1c1a      	adds	r2, r3, #0
 8002fec:	4be5      	ldr	r3, [pc, #916]	@ (8003384 <compute_angles+0x3c8>)
 8002fee:	601a      	str	r2, [r3, #0]
    gAccelY = (AccelY - AccelY_offset) / 16384.0f;  // assuming 2g
 8002ff0:	4be5      	ldr	r3, [pc, #916]	@ (8003388 <compute_angles+0x3cc>)
 8002ff2:	881b      	ldrh	r3, [r3, #0]
 8002ff4:	b21b      	sxth	r3, r3
 8002ff6:	0018      	movs	r0, r3
 8002ff8:	f7fe fa02 	bl	8001400 <__aeabi_i2f>
 8002ffc:	1c02      	adds	r2, r0, #0
 8002ffe:	4be3      	ldr	r3, [pc, #908]	@ (800338c <compute_angles+0x3d0>)
 8003000:	681b      	ldr	r3, [r3, #0]
 8003002:	1c19      	adds	r1, r3, #0
 8003004:	1c10      	adds	r0, r2, #0
 8003006:	f7fd ff61 	bl	8000ecc <__aeabi_fsub>
 800300a:	1c03      	adds	r3, r0, #0
 800300c:	218d      	movs	r1, #141	@ 0x8d
 800300e:	05c9      	lsls	r1, r1, #23
 8003010:	1c18      	adds	r0, r3, #0
 8003012:	f7fd fc33 	bl	800087c <__aeabi_fdiv>
 8003016:	1c03      	adds	r3, r0, #0
 8003018:	1c1a      	adds	r2, r3, #0
 800301a:	4bdd      	ldr	r3, [pc, #884]	@ (8003390 <compute_angles+0x3d4>)
 800301c:	601a      	str	r2, [r3, #0]
    gAccelZ = (AccelZ - AccelZ_offset) / 16384.0f;  // assuming 2g
 800301e:	4bdd      	ldr	r3, [pc, #884]	@ (8003394 <compute_angles+0x3d8>)
 8003020:	881b      	ldrh	r3, [r3, #0]
 8003022:	b21b      	sxth	r3, r3
 8003024:	0018      	movs	r0, r3
 8003026:	f7fe f9eb 	bl	8001400 <__aeabi_i2f>
 800302a:	1c02      	adds	r2, r0, #0
 800302c:	4bda      	ldr	r3, [pc, #872]	@ (8003398 <compute_angles+0x3dc>)
 800302e:	681b      	ldr	r3, [r3, #0]
 8003030:	1c19      	adds	r1, r3, #0
 8003032:	1c10      	adds	r0, r2, #0
 8003034:	f7fd ff4a 	bl	8000ecc <__aeabi_fsub>
 8003038:	1c03      	adds	r3, r0, #0
 800303a:	218d      	movs	r1, #141	@ 0x8d
 800303c:	05c9      	lsls	r1, r1, #23
 800303e:	1c18      	adds	r0, r3, #0
 8003040:	f7fd fc1c 	bl	800087c <__aeabi_fdiv>
 8003044:	1c03      	adds	r3, r0, #0
 8003046:	1c1a      	adds	r2, r3, #0
 8003048:	4bd4      	ldr	r3, [pc, #848]	@ (800339c <compute_angles+0x3e0>)
 800304a:	601a      	str	r2, [r3, #0]

    calibX = (GyroX - GyroX_offset) / 16384.0f;
 800304c:	4bd4      	ldr	r3, [pc, #848]	@ (80033a0 <compute_angles+0x3e4>)
 800304e:	881b      	ldrh	r3, [r3, #0]
 8003050:	b21b      	sxth	r3, r3
 8003052:	0018      	movs	r0, r3
 8003054:	f7fe f9d4 	bl	8001400 <__aeabi_i2f>
 8003058:	1c02      	adds	r2, r0, #0
 800305a:	4bd2      	ldr	r3, [pc, #840]	@ (80033a4 <compute_angles+0x3e8>)
 800305c:	681b      	ldr	r3, [r3, #0]
 800305e:	1c19      	adds	r1, r3, #0
 8003060:	1c10      	adds	r0, r2, #0
 8003062:	f7fd ff33 	bl	8000ecc <__aeabi_fsub>
 8003066:	1c03      	adds	r3, r0, #0
 8003068:	218d      	movs	r1, #141	@ 0x8d
 800306a:	05c9      	lsls	r1, r1, #23
 800306c:	1c18      	adds	r0, r3, #0
 800306e:	f7fd fc05 	bl	800087c <__aeabi_fdiv>
 8003072:	1c03      	adds	r3, r0, #0
 8003074:	1c1a      	adds	r2, r3, #0
 8003076:	4bcc      	ldr	r3, [pc, #816]	@ (80033a8 <compute_angles+0x3ec>)
 8003078:	601a      	str	r2, [r3, #0]
    calibY = (GyroY - GyroY_offset) / 16384.0f;  // assuming 2g
 800307a:	4bcc      	ldr	r3, [pc, #816]	@ (80033ac <compute_angles+0x3f0>)
 800307c:	881b      	ldrh	r3, [r3, #0]
 800307e:	b21b      	sxth	r3, r3
 8003080:	0018      	movs	r0, r3
 8003082:	f7fe f9bd 	bl	8001400 <__aeabi_i2f>
 8003086:	1c02      	adds	r2, r0, #0
 8003088:	4bc9      	ldr	r3, [pc, #804]	@ (80033b0 <compute_angles+0x3f4>)
 800308a:	681b      	ldr	r3, [r3, #0]
 800308c:	1c19      	adds	r1, r3, #0
 800308e:	1c10      	adds	r0, r2, #0
 8003090:	f7fd ff1c 	bl	8000ecc <__aeabi_fsub>
 8003094:	1c03      	adds	r3, r0, #0
 8003096:	218d      	movs	r1, #141	@ 0x8d
 8003098:	05c9      	lsls	r1, r1, #23
 800309a:	1c18      	adds	r0, r3, #0
 800309c:	f7fd fbee 	bl	800087c <__aeabi_fdiv>
 80030a0:	1c03      	adds	r3, r0, #0
 80030a2:	1c1a      	adds	r2, r3, #0
 80030a4:	4bc3      	ldr	r3, [pc, #780]	@ (80033b4 <compute_angles+0x3f8>)
 80030a6:	601a      	str	r2, [r3, #0]
    calibZ = (GyroZ - GyroZ_offset) / 16384.0f;  // assuming 2g
 80030a8:	4bc3      	ldr	r3, [pc, #780]	@ (80033b8 <compute_angles+0x3fc>)
 80030aa:	881b      	ldrh	r3, [r3, #0]
 80030ac:	b21b      	sxth	r3, r3
 80030ae:	0018      	movs	r0, r3
 80030b0:	f7fe f9a6 	bl	8001400 <__aeabi_i2f>
 80030b4:	1c02      	adds	r2, r0, #0
 80030b6:	4bc1      	ldr	r3, [pc, #772]	@ (80033bc <compute_angles+0x400>)
 80030b8:	681b      	ldr	r3, [r3, #0]
 80030ba:	1c19      	adds	r1, r3, #0
 80030bc:	1c10      	adds	r0, r2, #0
 80030be:	f7fd ff05 	bl	8000ecc <__aeabi_fsub>
 80030c2:	1c03      	adds	r3, r0, #0
 80030c4:	218d      	movs	r1, #141	@ 0x8d
 80030c6:	05c9      	lsls	r1, r1, #23
 80030c8:	1c18      	adds	r0, r3, #0
 80030ca:	f7fd fbd7 	bl	800087c <__aeabi_fdiv>
 80030ce:	1c03      	adds	r3, r0, #0
 80030d0:	1c1a      	adds	r2, r3, #0
 80030d2:	4bbb      	ldr	r3, [pc, #748]	@ (80033c0 <compute_angles+0x404>)
 80030d4:	601a      	str	r2, [r3, #0]


    // --- Convert gyro to deg/s ---
    float gx = GyroX / GYRO_SENS;
 80030d6:	4bb2      	ldr	r3, [pc, #712]	@ (80033a0 <compute_angles+0x3e4>)
 80030d8:	881b      	ldrh	r3, [r3, #0]
 80030da:	b21b      	sxth	r3, r3
 80030dc:	0018      	movs	r0, r3
 80030de:	f7fe f98f 	bl	8001400 <__aeabi_i2f>
 80030e2:	1c03      	adds	r3, r0, #0
 80030e4:	49b7      	ldr	r1, [pc, #732]	@ (80033c4 <compute_angles+0x408>)
 80030e6:	1c18      	adds	r0, r3, #0
 80030e8:	f7fd fbc8 	bl	800087c <__aeabi_fdiv>
 80030ec:	1c03      	adds	r3, r0, #0
 80030ee:	623b      	str	r3, [r7, #32]
    float gy = GyroY / GYRO_SENS;
 80030f0:	4bae      	ldr	r3, [pc, #696]	@ (80033ac <compute_angles+0x3f0>)
 80030f2:	881b      	ldrh	r3, [r3, #0]
 80030f4:	b21b      	sxth	r3, r3
 80030f6:	0018      	movs	r0, r3
 80030f8:	f7fe f982 	bl	8001400 <__aeabi_i2f>
 80030fc:	1c03      	adds	r3, r0, #0
 80030fe:	49b1      	ldr	r1, [pc, #708]	@ (80033c4 <compute_angles+0x408>)
 8003100:	1c18      	adds	r0, r3, #0
 8003102:	f7fd fbbb 	bl	800087c <__aeabi_fdiv>
 8003106:	1c03      	adds	r3, r0, #0
 8003108:	61fb      	str	r3, [r7, #28]
    float gz_raw = GyroZ / GYRO_SENS;
 800310a:	4bab      	ldr	r3, [pc, #684]	@ (80033b8 <compute_angles+0x3fc>)
 800310c:	881b      	ldrh	r3, [r3, #0]
 800310e:	b21b      	sxth	r3, r3
 8003110:	0018      	movs	r0, r3
 8003112:	f7fe f975 	bl	8001400 <__aeabi_i2f>
 8003116:	1c03      	adds	r3, r0, #0
 8003118:	49aa      	ldr	r1, [pc, #680]	@ (80033c4 <compute_angles+0x408>)
 800311a:	1c18      	adds	r0, r3, #0
 800311c:	f7fd fbae 	bl	800087c <__aeabi_fdiv>
 8003120:	1c03      	adds	r3, r0, #0
 8003122:	61bb      	str	r3, [r7, #24]

    // --- First-run initialization ---
    if (!yaw_bias_init) {
 8003124:	4ba8      	ldr	r3, [pc, #672]	@ (80033c8 <compute_angles+0x40c>)
 8003126:	681b      	ldr	r3, [r3, #0]
 8003128:	2b00      	cmp	r3, #0
 800312a:	d105      	bne.n	8003138 <compute_angles+0x17c>
        yaw_bias = gz_raw;    // whatever drift exists at startup
 800312c:	4ba7      	ldr	r3, [pc, #668]	@ (80033cc <compute_angles+0x410>)
 800312e:	69ba      	ldr	r2, [r7, #24]
 8003130:	601a      	str	r2, [r3, #0]
        yaw_bias_init = 1;
 8003132:	4ba5      	ldr	r3, [pc, #660]	@ (80033c8 <compute_angles+0x40c>)
 8003134:	2201      	movs	r2, #1
 8003136:	601a      	str	r2, [r3, #0]
    }

    // --- Detect stationary condition ---
    acc_mag = sqrtf(gAccelX*gAccelX + gAccelY*gAccelY + gAccelZ*gAccelZ);
 8003138:	4b92      	ldr	r3, [pc, #584]	@ (8003384 <compute_angles+0x3c8>)
 800313a:	681a      	ldr	r2, [r3, #0]
 800313c:	4b91      	ldr	r3, [pc, #580]	@ (8003384 <compute_angles+0x3c8>)
 800313e:	681b      	ldr	r3, [r3, #0]
 8003140:	1c19      	adds	r1, r3, #0
 8003142:	1c10      	adds	r0, r2, #0
 8003144:	f7fd fd68 	bl	8000c18 <__aeabi_fmul>
 8003148:	1c03      	adds	r3, r0, #0
 800314a:	1c1c      	adds	r4, r3, #0
 800314c:	4b90      	ldr	r3, [pc, #576]	@ (8003390 <compute_angles+0x3d4>)
 800314e:	681a      	ldr	r2, [r3, #0]
 8003150:	4b8f      	ldr	r3, [pc, #572]	@ (8003390 <compute_angles+0x3d4>)
 8003152:	681b      	ldr	r3, [r3, #0]
 8003154:	1c19      	adds	r1, r3, #0
 8003156:	1c10      	adds	r0, r2, #0
 8003158:	f7fd fd5e 	bl	8000c18 <__aeabi_fmul>
 800315c:	1c03      	adds	r3, r0, #0
 800315e:	1c19      	adds	r1, r3, #0
 8003160:	1c20      	adds	r0, r4, #0
 8003162:	f7fd f999 	bl	8000498 <__aeabi_fadd>
 8003166:	1c03      	adds	r3, r0, #0
 8003168:	1c1c      	adds	r4, r3, #0
 800316a:	4b8c      	ldr	r3, [pc, #560]	@ (800339c <compute_angles+0x3e0>)
 800316c:	681a      	ldr	r2, [r3, #0]
 800316e:	4b8b      	ldr	r3, [pc, #556]	@ (800339c <compute_angles+0x3e0>)
 8003170:	681b      	ldr	r3, [r3, #0]
 8003172:	1c19      	adds	r1, r3, #0
 8003174:	1c10      	adds	r0, r2, #0
 8003176:	f7fd fd4f 	bl	8000c18 <__aeabi_fmul>
 800317a:	1c03      	adds	r3, r0, #0
 800317c:	1c19      	adds	r1, r3, #0
 800317e:	1c20      	adds	r0, r4, #0
 8003180:	f7fd f98a 	bl	8000498 <__aeabi_fadd>
 8003184:	1c03      	adds	r3, r0, #0
 8003186:	1c18      	adds	r0, r3, #0
 8003188:	f002 faec 	bl	8005764 <sqrtf>
 800318c:	1c02      	adds	r2, r0, #0
 800318e:	4b90      	ldr	r3, [pc, #576]	@ (80033d0 <compute_angles+0x414>)
 8003190:	601a      	str	r2, [r3, #0]

    int stationary_yaw = 0;
 8003192:	2300      	movs	r3, #0
 8003194:	627b      	str	r3, [r7, #36]	@ 0x24
    if (fabsf(acc_mag - 1.0f) < 0.003f &&   // accel magnitude ~1g TOLERANCE ADJUST
 8003196:	4b8e      	ldr	r3, [pc, #568]	@ (80033d0 <compute_angles+0x414>)
 8003198:	681b      	ldr	r3, [r3, #0]
 800319a:	21fe      	movs	r1, #254	@ 0xfe
 800319c:	0589      	lsls	r1, r1, #22
 800319e:	1c18      	adds	r0, r3, #0
 80031a0:	f7fd fe94 	bl	8000ecc <__aeabi_fsub>
 80031a4:	1c03      	adds	r3, r0, #0
 80031a6:	005b      	lsls	r3, r3, #1
 80031a8:	085b      	lsrs	r3, r3, #1
 80031aa:	498a      	ldr	r1, [pc, #552]	@ (80033d4 <compute_angles+0x418>)
 80031ac:	1c18      	adds	r0, r3, #0
 80031ae:	f7fd f933 	bl	8000418 <__aeabi_fcmplt>
 80031b2:	1e03      	subs	r3, r0, #0
 80031b4:	d01f      	beq.n	80031f6 <compute_angles+0x23a>
            fabsf(gx) < 2.0f &&               // no roll rate
 80031b6:	6a3b      	ldr	r3, [r7, #32]
 80031b8:	005b      	lsls	r3, r3, #1
 80031ba:	085b      	lsrs	r3, r3, #1
    if (fabsf(acc_mag - 1.0f) < 0.003f &&   // accel magnitude ~1g TOLERANCE ADJUST
 80031bc:	2180      	movs	r1, #128	@ 0x80
 80031be:	05c9      	lsls	r1, r1, #23
 80031c0:	1c18      	adds	r0, r3, #0
 80031c2:	f7fd f929 	bl	8000418 <__aeabi_fcmplt>
 80031c6:	1e03      	subs	r3, r0, #0
 80031c8:	d015      	beq.n	80031f6 <compute_angles+0x23a>
            fabsf(gy) < 2.0f &&               // no pitch rate
 80031ca:	69fb      	ldr	r3, [r7, #28]
 80031cc:	005b      	lsls	r3, r3, #1
 80031ce:	085b      	lsrs	r3, r3, #1
            fabsf(gx) < 2.0f &&               // no roll rate
 80031d0:	2180      	movs	r1, #128	@ 0x80
 80031d2:	05c9      	lsls	r1, r1, #23
 80031d4:	1c18      	adds	r0, r3, #0
 80031d6:	f7fd f91f 	bl	8000418 <__aeabi_fcmplt>
 80031da:	1e03      	subs	r3, r0, #0
 80031dc:	d00b      	beq.n	80031f6 <compute_angles+0x23a>
            fabsf(gz_raw) < 2.0f) {           // no yaw rate
 80031de:	69bb      	ldr	r3, [r7, #24]
 80031e0:	005b      	lsls	r3, r3, #1
 80031e2:	085b      	lsrs	r3, r3, #1
            fabsf(gy) < 2.0f &&               // no pitch rate
 80031e4:	2180      	movs	r1, #128	@ 0x80
 80031e6:	05c9      	lsls	r1, r1, #23
 80031e8:	1c18      	adds	r0, r3, #0
 80031ea:	f7fd f915 	bl	8000418 <__aeabi_fcmplt>
 80031ee:	1e03      	subs	r3, r0, #0
 80031f0:	d001      	beq.n	80031f6 <compute_angles+0x23a>
            stationary_yaw = 1;
 80031f2:	2301      	movs	r3, #1
 80031f4:	627b      	str	r3, [r7, #36]	@ 0x24
     }
    //test = acc_mag - 1.0f;

    // --- Update yaw bias ONLY when stationary ---
    if (stationary_yaw) {
 80031f6:	6a7b      	ldr	r3, [r7, #36]	@ 0x24
 80031f8:	2b00      	cmp	r3, #0
 80031fa:	d023      	beq.n	8003244 <compute_angles+0x288>
        const float tau = 3.0f;
 80031fc:	4b76      	ldr	r3, [pc, #472]	@ (80033d8 <compute_angles+0x41c>)
 80031fe:	617b      	str	r3, [r7, #20]
        float alpha = DT / (tau + DT);
 8003200:	4976      	ldr	r1, [pc, #472]	@ (80033dc <compute_angles+0x420>)
 8003202:	6978      	ldr	r0, [r7, #20]
 8003204:	f7fd f948 	bl	8000498 <__aeabi_fadd>
 8003208:	1c03      	adds	r3, r0, #0
 800320a:	1c19      	adds	r1, r3, #0
 800320c:	4873      	ldr	r0, [pc, #460]	@ (80033dc <compute_angles+0x420>)
 800320e:	f7fd fb35 	bl	800087c <__aeabi_fdiv>
 8003212:	1c03      	adds	r3, r0, #0
 8003214:	613b      	str	r3, [r7, #16]
        yaw_bias += alpha * (gz_raw - yaw_bias);
 8003216:	4b6d      	ldr	r3, [pc, #436]	@ (80033cc <compute_angles+0x410>)
 8003218:	681b      	ldr	r3, [r3, #0]
 800321a:	1c19      	adds	r1, r3, #0
 800321c:	69b8      	ldr	r0, [r7, #24]
 800321e:	f7fd fe55 	bl	8000ecc <__aeabi_fsub>
 8003222:	1c03      	adds	r3, r0, #0
 8003224:	6939      	ldr	r1, [r7, #16]
 8003226:	1c18      	adds	r0, r3, #0
 8003228:	f7fd fcf6 	bl	8000c18 <__aeabi_fmul>
 800322c:	1c03      	adds	r3, r0, #0
 800322e:	1c1a      	adds	r2, r3, #0
 8003230:	4b66      	ldr	r3, [pc, #408]	@ (80033cc <compute_angles+0x410>)
 8003232:	681b      	ldr	r3, [r3, #0]
 8003234:	1c19      	adds	r1, r3, #0
 8003236:	1c10      	adds	r0, r2, #0
 8003238:	f7fd f92e 	bl	8000498 <__aeabi_fadd>
 800323c:	1c03      	adds	r3, r0, #0
 800323e:	1c1a      	adds	r2, r3, #0
 8003240:	4b62      	ldr	r3, [pc, #392]	@ (80033cc <compute_angles+0x410>)
 8003242:	601a      	str	r2, [r3, #0]
    }

    // --- Bias-corrected gyro Z ---
    float gz = gz_raw - yaw_bias;
 8003244:	4b61      	ldr	r3, [pc, #388]	@ (80033cc <compute_angles+0x410>)
 8003246:	681b      	ldr	r3, [r3, #0]
 8003248:	1c19      	adds	r1, r3, #0
 800324a:	69b8      	ldr	r0, [r7, #24]
 800324c:	f7fd fe3e 	bl	8000ecc <__aeabi_fsub>
 8003250:	1c03      	adds	r3, r0, #0
 8003252:	60fb      	str	r3, [r7, #12]

    // --- Accelerometer tilt ---
    float accRoll  = atan2f(AccelY, AccelZ) * RAD_TO_DEG;
 8003254:	4b4c      	ldr	r3, [pc, #304]	@ (8003388 <compute_angles+0x3cc>)
 8003256:	881b      	ldrh	r3, [r3, #0]
 8003258:	b21b      	sxth	r3, r3
 800325a:	0018      	movs	r0, r3
 800325c:	f7fe f8d0 	bl	8001400 <__aeabi_i2f>
 8003260:	1c04      	adds	r4, r0, #0
 8003262:	4b4c      	ldr	r3, [pc, #304]	@ (8003394 <compute_angles+0x3d8>)
 8003264:	881b      	ldrh	r3, [r3, #0]
 8003266:	b21b      	sxth	r3, r3
 8003268:	0018      	movs	r0, r3
 800326a:	f7fe f8c9 	bl	8001400 <__aeabi_i2f>
 800326e:	1c03      	adds	r3, r0, #0
 8003270:	1c19      	adds	r1, r3, #0
 8003272:	1c20      	adds	r0, r4, #0
 8003274:	f002 fa72 	bl	800575c <atan2f>
 8003278:	1c03      	adds	r3, r0, #0
 800327a:	4959      	ldr	r1, [pc, #356]	@ (80033e0 <compute_angles+0x424>)
 800327c:	1c18      	adds	r0, r3, #0
 800327e:	f7fd fccb 	bl	8000c18 <__aeabi_fmul>
 8003282:	1c03      	adds	r3, r0, #0
 8003284:	60bb      	str	r3, [r7, #8]
    float accPitch = atan2f(-AccelX,
 8003286:	4b3d      	ldr	r3, [pc, #244]	@ (800337c <compute_angles+0x3c0>)
 8003288:	881b      	ldrh	r3, [r3, #0]
 800328a:	b21b      	sxth	r3, r3
 800328c:	425b      	negs	r3, r3
 800328e:	0018      	movs	r0, r3
 8003290:	f7fe f8b6 	bl	8001400 <__aeabi_i2f>
 8003294:	1c04      	adds	r4, r0, #0
                     sqrtf(AccelY*AccelY + AccelZ*AccelZ)) * RAD_TO_DEG;
 8003296:	4b3c      	ldr	r3, [pc, #240]	@ (8003388 <compute_angles+0x3cc>)
 8003298:	881b      	ldrh	r3, [r3, #0]
 800329a:	b21b      	sxth	r3, r3
 800329c:	001a      	movs	r2, r3
 800329e:	4b3a      	ldr	r3, [pc, #232]	@ (8003388 <compute_angles+0x3cc>)
 80032a0:	881b      	ldrh	r3, [r3, #0]
 80032a2:	b21b      	sxth	r3, r3
 80032a4:	435a      	muls	r2, r3
 80032a6:	4b3b      	ldr	r3, [pc, #236]	@ (8003394 <compute_angles+0x3d8>)
 80032a8:	881b      	ldrh	r3, [r3, #0]
 80032aa:	b21b      	sxth	r3, r3
 80032ac:	0019      	movs	r1, r3
 80032ae:	4b39      	ldr	r3, [pc, #228]	@ (8003394 <compute_angles+0x3d8>)
 80032b0:	881b      	ldrh	r3, [r3, #0]
 80032b2:	b21b      	sxth	r3, r3
 80032b4:	434b      	muls	r3, r1
 80032b6:	18d3      	adds	r3, r2, r3
    float accPitch = atan2f(-AccelX,
 80032b8:	0018      	movs	r0, r3
 80032ba:	f7fe f8a1 	bl	8001400 <__aeabi_i2f>
 80032be:	1c03      	adds	r3, r0, #0
 80032c0:	1c18      	adds	r0, r3, #0
 80032c2:	f002 fa4f 	bl	8005764 <sqrtf>
 80032c6:	1c03      	adds	r3, r0, #0
 80032c8:	1c19      	adds	r1, r3, #0
 80032ca:	1c20      	adds	r0, r4, #0
 80032cc:	f002 fa46 	bl	800575c <atan2f>
 80032d0:	1c03      	adds	r3, r0, #0
 80032d2:	4943      	ldr	r1, [pc, #268]	@ (80033e0 <compute_angles+0x424>)
 80032d4:	1c18      	adds	r0, r3, #0
 80032d6:	f7fd fc9f 	bl	8000c18 <__aeabi_fmul>
 80032da:	1c03      	adds	r3, r0, #0
 80032dc:	607b      	str	r3, [r7, #4]

    // --- Integrate gyro angles ---
    roll  += gx * DT;
 80032de:	493f      	ldr	r1, [pc, #252]	@ (80033dc <compute_angles+0x420>)
 80032e0:	6a38      	ldr	r0, [r7, #32]
 80032e2:	f7fd fc99 	bl	8000c18 <__aeabi_fmul>
 80032e6:	1c03      	adds	r3, r0, #0
 80032e8:	1c1a      	adds	r2, r3, #0
 80032ea:	4b3e      	ldr	r3, [pc, #248]	@ (80033e4 <compute_angles+0x428>)
 80032ec:	681b      	ldr	r3, [r3, #0]
 80032ee:	1c19      	adds	r1, r3, #0
 80032f0:	1c10      	adds	r0, r2, #0
 80032f2:	f7fd f8d1 	bl	8000498 <__aeabi_fadd>
 80032f6:	1c03      	adds	r3, r0, #0
 80032f8:	1c1a      	adds	r2, r3, #0
 80032fa:	4b3a      	ldr	r3, [pc, #232]	@ (80033e4 <compute_angles+0x428>)
 80032fc:	601a      	str	r2, [r3, #0]
    pitch += gy * DT;
 80032fe:	4937      	ldr	r1, [pc, #220]	@ (80033dc <compute_angles+0x420>)
 8003300:	69f8      	ldr	r0, [r7, #28]
 8003302:	f7fd fc89 	bl	8000c18 <__aeabi_fmul>
 8003306:	1c03      	adds	r3, r0, #0
 8003308:	1c1a      	adds	r2, r3, #0
 800330a:	4b37      	ldr	r3, [pc, #220]	@ (80033e8 <compute_angles+0x42c>)
 800330c:	681b      	ldr	r3, [r3, #0]
 800330e:	1c19      	adds	r1, r3, #0
 8003310:	1c10      	adds	r0, r2, #0
 8003312:	f7fd f8c1 	bl	8000498 <__aeabi_fadd>
 8003316:	1c03      	adds	r3, r0, #0
 8003318:	1c1a      	adds	r2, r3, #0
 800331a:	4b33      	ldr	r3, [pc, #204]	@ (80033e8 <compute_angles+0x42c>)
 800331c:	601a      	str	r2, [r3, #0]
    yaw   += gz * DT;
 800331e:	492f      	ldr	r1, [pc, #188]	@ (80033dc <compute_angles+0x420>)
 8003320:	68f8      	ldr	r0, [r7, #12]
 8003322:	f7fd fc79 	bl	8000c18 <__aeabi_fmul>
 8003326:	1c03      	adds	r3, r0, #0
 8003328:	1c1a      	adds	r2, r3, #0
 800332a:	4b30      	ldr	r3, [pc, #192]	@ (80033ec <compute_angles+0x430>)
 800332c:	681b      	ldr	r3, [r3, #0]
 800332e:	1c19      	adds	r1, r3, #0
 8003330:	1c10      	adds	r0, r2, #0
 8003332:	f7fd f8b1 	bl	8000498 <__aeabi_fadd>
 8003336:	1c03      	adds	r3, r0, #0
 8003338:	1c1a      	adds	r2, r3, #0
 800333a:	4b2c      	ldr	r3, [pc, #176]	@ (80033ec <compute_angles+0x430>)
 800333c:	601a      	str	r2, [r3, #0]

    // --- Complementary filter for roll/pitch ---
    roll  = 0.98f * roll  + 0.02f * accRoll;
 800333e:	4b29      	ldr	r3, [pc, #164]	@ (80033e4 <compute_angles+0x428>)
 8003340:	681b      	ldr	r3, [r3, #0]
 8003342:	492b      	ldr	r1, [pc, #172]	@ (80033f0 <compute_angles+0x434>)
 8003344:	1c18      	adds	r0, r3, #0
 8003346:	f7fd fc67 	bl	8000c18 <__aeabi_fmul>
 800334a:	1c03      	adds	r3, r0, #0
 800334c:	1c1c      	adds	r4, r3, #0
 800334e:	4929      	ldr	r1, [pc, #164]	@ (80033f4 <compute_angles+0x438>)
 8003350:	68b8      	ldr	r0, [r7, #8]
 8003352:	f7fd fc61 	bl	8000c18 <__aeabi_fmul>
 8003356:	1c03      	adds	r3, r0, #0
 8003358:	1c19      	adds	r1, r3, #0
 800335a:	1c20      	adds	r0, r4, #0
 800335c:	f7fd f89c 	bl	8000498 <__aeabi_fadd>
 8003360:	1c03      	adds	r3, r0, #0
 8003362:	1c1a      	adds	r2, r3, #0
 8003364:	4b1f      	ldr	r3, [pc, #124]	@ (80033e4 <compute_angles+0x428>)
 8003366:	601a      	str	r2, [r3, #0]
    pitch = 0.98f * pitch + 0.02f * accPitch;
 8003368:	4b1f      	ldr	r3, [pc, #124]	@ (80033e8 <compute_angles+0x42c>)
 800336a:	681b      	ldr	r3, [r3, #0]
 800336c:	4920      	ldr	r1, [pc, #128]	@ (80033f0 <compute_angles+0x434>)
 800336e:	1c18      	adds	r0, r3, #0
 8003370:	f7fd fc52 	bl	8000c18 <__aeabi_fmul>
 8003374:	1c03      	adds	r3, r0, #0
 8003376:	1c1c      	adds	r4, r3, #0
 8003378:	e03e      	b.n	80033f8 <compute_angles+0x43c>
 800337a:	46c0      	nop			@ (mov r8, r8)
 800337c:	200008dc 	.word	0x200008dc
 8003380:	2000091c 	.word	0x2000091c
 8003384:	200008e8 	.word	0x200008e8
 8003388:	200008de 	.word	0x200008de
 800338c:	20000920 	.word	0x20000920
 8003390:	200008ec 	.word	0x200008ec
 8003394:	200008e0 	.word	0x200008e0
 8003398:	20000924 	.word	0x20000924
 800339c:	200008f0 	.word	0x200008f0
 80033a0:	200008e2 	.word	0x200008e2
 80033a4:	20000934 	.word	0x20000934
 80033a8:	20000940 	.word	0x20000940
 80033ac:	200008e4 	.word	0x200008e4
 80033b0:	20000938 	.word	0x20000938
 80033b4:	20000944 	.word	0x20000944
 80033b8:	200008e6 	.word	0x200008e6
 80033bc:	2000093c 	.word	0x2000093c
 80033c0:	20000948 	.word	0x20000948
 80033c4:	43030000 	.word	0x43030000
 80033c8:	20000904 	.word	0x20000904
 80033cc:	20000900 	.word	0x20000900
 80033d0:	20000908 	.word	0x20000908
 80033d4:	3b449ba6 	.word	0x3b449ba6
 80033d8:	40400000 	.word	0x40400000
 80033dc:	3c23d70a 	.word	0x3c23d70a
 80033e0:	42652ee6 	.word	0x42652ee6
 80033e4:	200008f4 	.word	0x200008f4
 80033e8:	200008f8 	.word	0x200008f8
 80033ec:	200008fc 	.word	0x200008fc
 80033f0:	3f7ae148 	.word	0x3f7ae148
 80033f4:	3ca3d70a 	.word	0x3ca3d70a
 80033f8:	491b      	ldr	r1, [pc, #108]	@ (8003468 <compute_angles+0x4ac>)
 80033fa:	6878      	ldr	r0, [r7, #4]
 80033fc:	f7fd fc0c 	bl	8000c18 <__aeabi_fmul>
 8003400:	1c03      	adds	r3, r0, #0
 8003402:	1c19      	adds	r1, r3, #0
 8003404:	1c20      	adds	r0, r4, #0
 8003406:	f7fd f847 	bl	8000498 <__aeabi_fadd>
 800340a:	1c03      	adds	r3, r0, #0
 800340c:	1c1a      	adds	r2, r3, #0
 800340e:	4b17      	ldr	r3, [pc, #92]	@ (800346c <compute_angles+0x4b0>)
 8003410:	601a      	str	r2, [r3, #0]

    // --- Clamp yaw ---
    if (yaw > 180.0f) yaw -= 360.0f;
 8003412:	4b17      	ldr	r3, [pc, #92]	@ (8003470 <compute_angles+0x4b4>)
 8003414:	681b      	ldr	r3, [r3, #0]
 8003416:	4917      	ldr	r1, [pc, #92]	@ (8003474 <compute_angles+0x4b8>)
 8003418:	1c18      	adds	r0, r3, #0
 800341a:	f7fd f811 	bl	8000440 <__aeabi_fcmpgt>
 800341e:	1e03      	subs	r3, r0, #0
 8003420:	d00a      	beq.n	8003438 <compute_angles+0x47c>
 8003422:	4b13      	ldr	r3, [pc, #76]	@ (8003470 <compute_angles+0x4b4>)
 8003424:	681b      	ldr	r3, [r3, #0]
 8003426:	4914      	ldr	r1, [pc, #80]	@ (8003478 <compute_angles+0x4bc>)
 8003428:	1c18      	adds	r0, r3, #0
 800342a:	f7fd fd4f 	bl	8000ecc <__aeabi_fsub>
 800342e:	1c03      	adds	r3, r0, #0
 8003430:	1c1a      	adds	r2, r3, #0
 8003432:	4b0f      	ldr	r3, [pc, #60]	@ (8003470 <compute_angles+0x4b4>)
 8003434:	601a      	str	r2, [r3, #0]
    else if (yaw < -180.0f) yaw += 360.0f;
}
 8003436:	e012      	b.n	800345e <compute_angles+0x4a2>
    else if (yaw < -180.0f) yaw += 360.0f;
 8003438:	4b0d      	ldr	r3, [pc, #52]	@ (8003470 <compute_angles+0x4b4>)
 800343a:	681b      	ldr	r3, [r3, #0]
 800343c:	490f      	ldr	r1, [pc, #60]	@ (800347c <compute_angles+0x4c0>)
 800343e:	1c18      	adds	r0, r3, #0
 8003440:	f7fc ffea 	bl	8000418 <__aeabi_fcmplt>
 8003444:	1e03      	subs	r3, r0, #0
 8003446:	d100      	bne.n	800344a <compute_angles+0x48e>
}
 8003448:	e009      	b.n	800345e <compute_angles+0x4a2>
    else if (yaw < -180.0f) yaw += 360.0f;
 800344a:	4b09      	ldr	r3, [pc, #36]	@ (8003470 <compute_angles+0x4b4>)
 800344c:	681b      	ldr	r3, [r3, #0]
 800344e:	490a      	ldr	r1, [pc, #40]	@ (8003478 <compute_angles+0x4bc>)
 8003450:	1c18      	adds	r0, r3, #0
 8003452:	f7fd f821 	bl	8000498 <__aeabi_fadd>
 8003456:	1c03      	adds	r3, r0, #0
 8003458:	1c1a      	adds	r2, r3, #0
 800345a:	4b05      	ldr	r3, [pc, #20]	@ (8003470 <compute_angles+0x4b4>)
 800345c:	601a      	str	r2, [r3, #0]
}
 800345e:	46c0      	nop			@ (mov r8, r8)
 8003460:	46bd      	mov	sp, r7
 8003462:	b00b      	add	sp, #44	@ 0x2c
 8003464:	bd90      	pop	{r4, r7, pc}
 8003466:	46c0      	nop			@ (mov r8, r8)
 8003468:	3ca3d70a 	.word	0x3ca3d70a
 800346c:	200008f8 	.word	0x200008f8
 8003470:	200008fc 	.word	0x200008fc
 8003474:	43340000 	.word	0x43340000
 8003478:	43b40000 	.word	0x43b40000
 800347c:	c3340000 	.word	0xc3340000

08003480 <imu_routine>:

void imu_routine(void){ //function called when flag is raised
 8003480:	b580      	push	{r7, lr}
 8003482:	af00      	add	r7, sp, #0
	mpu6050_read_all();
 8003484:	f7ff fc18 	bl	8002cb8 <mpu6050_read_all>
	if(startup_time<250) startup_time += 1;
 8003488:	4b10      	ldr	r3, [pc, #64]	@ (80034cc <imu_routine+0x4c>)
 800348a:	781b      	ldrb	r3, [r3, #0]
 800348c:	2bf9      	cmp	r3, #249	@ 0xf9
 800348e:	d805      	bhi.n	800349c <imu_routine+0x1c>
 8003490:	4b0e      	ldr	r3, [pc, #56]	@ (80034cc <imu_routine+0x4c>)
 8003492:	781b      	ldrb	r3, [r3, #0]
 8003494:	3301      	adds	r3, #1
 8003496:	b2da      	uxtb	r2, r3
 8003498:	4b0c      	ldr	r3, [pc, #48]	@ (80034cc <imu_routine+0x4c>)
 800349a:	701a      	strb	r2, [r3, #0]
	if (startup_time <= 100){calibrate_init(AccelX,AccelY,AccelZ,startup_time);}
 800349c:	4b0b      	ldr	r3, [pc, #44]	@ (80034cc <imu_routine+0x4c>)
 800349e:	781b      	ldrb	r3, [r3, #0]
 80034a0:	2b64      	cmp	r3, #100	@ 0x64
 80034a2:	d80d      	bhi.n	80034c0 <imu_routine+0x40>
 80034a4:	4b0a      	ldr	r3, [pc, #40]	@ (80034d0 <imu_routine+0x50>)
 80034a6:	881b      	ldrh	r3, [r3, #0]
 80034a8:	b218      	sxth	r0, r3
 80034aa:	4b0a      	ldr	r3, [pc, #40]	@ (80034d4 <imu_routine+0x54>)
 80034ac:	881b      	ldrh	r3, [r3, #0]
 80034ae:	b219      	sxth	r1, r3
 80034b0:	4b09      	ldr	r3, [pc, #36]	@ (80034d8 <imu_routine+0x58>)
 80034b2:	881b      	ldrh	r3, [r3, #0]
 80034b4:	b21a      	sxth	r2, r3
 80034b6:	4b05      	ldr	r3, [pc, #20]	@ (80034cc <imu_routine+0x4c>)
 80034b8:	781b      	ldrb	r3, [r3, #0]
 80034ba:	f7ff fcab 	bl	8002e14 <calibrate_init>
	else {(compute_angles());}
}
 80034be:	e001      	b.n	80034c4 <imu_routine+0x44>
	else {(compute_angles());}
 80034c0:	f7ff fd7c 	bl	8002fbc <compute_angles>
}
 80034c4:	46c0      	nop			@ (mov r8, r8)
 80034c6:	46bd      	mov	sp, r7
 80034c8:	bd80      	pop	{r7, pc}
 80034ca:	46c0      	nop			@ (mov r8, r8)
 80034cc:	2000090c 	.word	0x2000090c
 80034d0:	200008dc 	.word	0x200008dc
 80034d4:	200008de 	.word	0x200008de
 80034d8:	200008e0 	.word	0x200008e0

080034dc <color_detect_routine>:

void color_detect_routine(void){ //function called when flag is raised
 80034dc:	b580      	push	{r7, lr}
 80034de:	af00      	add	r7, sp, #0
	TCS34725_ReadRGB((uint16_t*)&ColorR, (uint16_t*)&ColorG, (uint16_t*)&ColorB, (uint16_t*)&ColorC);
 80034e0:	4b64      	ldr	r3, [pc, #400]	@ (8003674 <color_detect_routine+0x198>)
 80034e2:	4a65      	ldr	r2, [pc, #404]	@ (8003678 <color_detect_routine+0x19c>)
 80034e4:	4965      	ldr	r1, [pc, #404]	@ (800367c <color_detect_routine+0x1a0>)
 80034e6:	4866      	ldr	r0, [pc, #408]	@ (8003680 <color_detect_routine+0x1a4>)
 80034e8:	f7ff fc48 	bl	8002d7c <TCS34725_ReadRGB>

	// normalize safely
	R = ColorR / 257;
 80034ec:	4b64      	ldr	r3, [pc, #400]	@ (8003680 <color_detect_routine+0x1a4>)
 80034ee:	881b      	ldrh	r3, [r3, #0]
 80034f0:	b29b      	uxth	r3, r3
 80034f2:	2202      	movs	r2, #2
 80034f4:	32ff      	adds	r2, #255	@ 0xff
 80034f6:	0011      	movs	r1, r2
 80034f8:	0018      	movs	r0, r3
 80034fa:	f7fc fe05 	bl	8000108 <__udivsi3>
 80034fe:	0003      	movs	r3, r0
 8003500:	b29b      	uxth	r3, r3
 8003502:	b2da      	uxtb	r2, r3
 8003504:	4b5f      	ldr	r3, [pc, #380]	@ (8003684 <color_detect_routine+0x1a8>)
 8003506:	701a      	strb	r2, [r3, #0]
	G = ColorG / 257;
 8003508:	4b5c      	ldr	r3, [pc, #368]	@ (800367c <color_detect_routine+0x1a0>)
 800350a:	881b      	ldrh	r3, [r3, #0]
 800350c:	b29b      	uxth	r3, r3
 800350e:	2202      	movs	r2, #2
 8003510:	32ff      	adds	r2, #255	@ 0xff
 8003512:	0011      	movs	r1, r2
 8003514:	0018      	movs	r0, r3
 8003516:	f7fc fdf7 	bl	8000108 <__udivsi3>
 800351a:	0003      	movs	r3, r0
 800351c:	b29b      	uxth	r3, r3
 800351e:	b2da      	uxtb	r2, r3
 8003520:	4b59      	ldr	r3, [pc, #356]	@ (8003688 <color_detect_routine+0x1ac>)
 8003522:	701a      	strb	r2, [r3, #0]
	B = ColorB / 257;
 8003524:	4b54      	ldr	r3, [pc, #336]	@ (8003678 <color_detect_routine+0x19c>)
 8003526:	881b      	ldrh	r3, [r3, #0]
 8003528:	b29b      	uxth	r3, r3
 800352a:	2202      	movs	r2, #2
 800352c:	32ff      	adds	r2, #255	@ 0xff
 800352e:	0011      	movs	r1, r2
 8003530:	0018      	movs	r0, r3
 8003532:	f7fc fde9 	bl	8000108 <__udivsi3>
 8003536:	0003      	movs	r3, r0
 8003538:	b29b      	uxth	r3, r3
 800353a:	b2da      	uxtb	r2, r3
 800353c:	4b53      	ldr	r3, [pc, #332]	@ (800368c <color_detect_routine+0x1b0>)
 800353e:	701a      	strb	r2, [r3, #0]
	C = ColorC / 257;
 8003540:	4b4c      	ldr	r3, [pc, #304]	@ (8003674 <color_detect_routine+0x198>)
 8003542:	881b      	ldrh	r3, [r3, #0]
 8003544:	b29b      	uxth	r3, r3
 8003546:	2202      	movs	r2, #2
 8003548:	32ff      	adds	r2, #255	@ 0xff
 800354a:	0011      	movs	r1, r2
 800354c:	0018      	movs	r0, r3
 800354e:	f7fc fddb 	bl	8000108 <__udivsi3>
 8003552:	0003      	movs	r3, r0
 8003554:	b29b      	uxth	r3, r3
 8003556:	b2da      	uxtb	r2, r3
 8003558:	4b4d      	ldr	r3, [pc, #308]	@ (8003690 <color_detect_routine+0x1b4>)
 800355a:	701a      	strb	r2, [r3, #0]

	maxVal = R;
 800355c:	4b49      	ldr	r3, [pc, #292]	@ (8003684 <color_detect_routine+0x1a8>)
 800355e:	781b      	ldrb	r3, [r3, #0]
 8003560:	b2da      	uxtb	r2, r3
 8003562:	4b4c      	ldr	r3, [pc, #304]	@ (8003694 <color_detect_routine+0x1b8>)
 8003564:	701a      	strb	r2, [r3, #0]
	if (G > maxVal) maxVal = G;
 8003566:	4b48      	ldr	r3, [pc, #288]	@ (8003688 <color_detect_routine+0x1ac>)
 8003568:	781b      	ldrb	r3, [r3, #0]
 800356a:	b2da      	uxtb	r2, r3
 800356c:	4b49      	ldr	r3, [pc, #292]	@ (8003694 <color_detect_routine+0x1b8>)
 800356e:	781b      	ldrb	r3, [r3, #0]
 8003570:	b2db      	uxtb	r3, r3
 8003572:	429a      	cmp	r2, r3
 8003574:	d904      	bls.n	8003580 <color_detect_routine+0xa4>
 8003576:	4b44      	ldr	r3, [pc, #272]	@ (8003688 <color_detect_routine+0x1ac>)
 8003578:	781b      	ldrb	r3, [r3, #0]
 800357a:	b2da      	uxtb	r2, r3
 800357c:	4b45      	ldr	r3, [pc, #276]	@ (8003694 <color_detect_routine+0x1b8>)
 800357e:	701a      	strb	r2, [r3, #0]
	if (B > maxVal) maxVal = B;
 8003580:	4b42      	ldr	r3, [pc, #264]	@ (800368c <color_detect_routine+0x1b0>)
 8003582:	781b      	ldrb	r3, [r3, #0]
 8003584:	b2da      	uxtb	r2, r3
 8003586:	4b43      	ldr	r3, [pc, #268]	@ (8003694 <color_detect_routine+0x1b8>)
 8003588:	781b      	ldrb	r3, [r3, #0]
 800358a:	b2db      	uxtb	r3, r3
 800358c:	429a      	cmp	r2, r3
 800358e:	d904      	bls.n	800359a <color_detect_routine+0xbe>
 8003590:	4b3e      	ldr	r3, [pc, #248]	@ (800368c <color_detect_routine+0x1b0>)
 8003592:	781b      	ldrb	r3, [r3, #0]
 8003594:	b2da      	uxtb	r2, r3
 8003596:	4b3f      	ldr	r3, [pc, #252]	@ (8003694 <color_detect_routine+0x1b8>)
 8003598:	701a      	strb	r2, [r3, #0]
	if (maxVal == 0) maxVal = 1;
 800359a:	4b3e      	ldr	r3, [pc, #248]	@ (8003694 <color_detect_routine+0x1b8>)
 800359c:	781b      	ldrb	r3, [r3, #0]
 800359e:	b2db      	uxtb	r3, r3
 80035a0:	2b00      	cmp	r3, #0
 80035a2:	d102      	bne.n	80035aa <color_detect_routine+0xce>
 80035a4:	4b3b      	ldr	r3, [pc, #236]	@ (8003694 <color_detect_routine+0x1b8>)
 80035a6:	2201      	movs	r2, #1
 80035a8:	701a      	strb	r2, [r3, #0]

	normR = (R * 255) / maxVal;
 80035aa:	4b36      	ldr	r3, [pc, #216]	@ (8003684 <color_detect_routine+0x1a8>)
 80035ac:	781b      	ldrb	r3, [r3, #0]
 80035ae:	b2db      	uxtb	r3, r3
 80035b0:	001a      	movs	r2, r3
 80035b2:	0013      	movs	r3, r2
 80035b4:	021b      	lsls	r3, r3, #8
 80035b6:	1a9a      	subs	r2, r3, r2
 80035b8:	4b36      	ldr	r3, [pc, #216]	@ (8003694 <color_detect_routine+0x1b8>)
 80035ba:	781b      	ldrb	r3, [r3, #0]
 80035bc:	b2db      	uxtb	r3, r3
 80035be:	0019      	movs	r1, r3
 80035c0:	0010      	movs	r0, r2
 80035c2:	f7fc fe2b 	bl	800021c <__divsi3>
 80035c6:	0003      	movs	r3, r0
 80035c8:	b2da      	uxtb	r2, r3
 80035ca:	4b33      	ldr	r3, [pc, #204]	@ (8003698 <color_detect_routine+0x1bc>)
 80035cc:	701a      	strb	r2, [r3, #0]
	normG = (G * 255) / maxVal;
 80035ce:	4b2e      	ldr	r3, [pc, #184]	@ (8003688 <color_detect_routine+0x1ac>)
 80035d0:	781b      	ldrb	r3, [r3, #0]
 80035d2:	b2db      	uxtb	r3, r3
 80035d4:	001a      	movs	r2, r3
 80035d6:	0013      	movs	r3, r2
 80035d8:	021b      	lsls	r3, r3, #8
 80035da:	1a9a      	subs	r2, r3, r2
 80035dc:	4b2d      	ldr	r3, [pc, #180]	@ (8003694 <color_detect_routine+0x1b8>)
 80035de:	781b      	ldrb	r3, [r3, #0]
 80035e0:	b2db      	uxtb	r3, r3
 80035e2:	0019      	movs	r1, r3
 80035e4:	0010      	movs	r0, r2
 80035e6:	f7fc fe19 	bl	800021c <__divsi3>
 80035ea:	0003      	movs	r3, r0
 80035ec:	b2da      	uxtb	r2, r3
 80035ee:	4b2b      	ldr	r3, [pc, #172]	@ (800369c <color_detect_routine+0x1c0>)
 80035f0:	701a      	strb	r2, [r3, #0]
	normB = (B * 255) / maxVal;
 80035f2:	4b26      	ldr	r3, [pc, #152]	@ (800368c <color_detect_routine+0x1b0>)
 80035f4:	781b      	ldrb	r3, [r3, #0]
 80035f6:	b2db      	uxtb	r3, r3
 80035f8:	001a      	movs	r2, r3
 80035fa:	0013      	movs	r3, r2
 80035fc:	021b      	lsls	r3, r3, #8
 80035fe:	1a9a      	subs	r2, r3, r2
 8003600:	4b24      	ldr	r3, [pc, #144]	@ (8003694 <color_detect_routine+0x1b8>)
 8003602:	781b      	ldrb	r3, [r3, #0]
 8003604:	b2db      	uxtb	r3, r3
 8003606:	0019      	movs	r1, r3
 8003608:	0010      	movs	r0, r2
 800360a:	f7fc fe07 	bl	800021c <__divsi3>
 800360e:	0003      	movs	r3, r0
 8003610:	b2da      	uxtb	r2, r3
 8003612:	4b23      	ldr	r3, [pc, #140]	@ (80036a0 <color_detect_routine+0x1c4>)
 8003614:	701a      	strb	r2, [r3, #0]

	if (normR >= normG && normR >= normB) current_color = 3; // Red
 8003616:	4b20      	ldr	r3, [pc, #128]	@ (8003698 <color_detect_routine+0x1bc>)
 8003618:	781b      	ldrb	r3, [r3, #0]
 800361a:	b2da      	uxtb	r2, r3
 800361c:	4b1f      	ldr	r3, [pc, #124]	@ (800369c <color_detect_routine+0x1c0>)
 800361e:	781b      	ldrb	r3, [r3, #0]
 8003620:	b2db      	uxtb	r3, r3
 8003622:	429a      	cmp	r2, r3
 8003624:	d30b      	bcc.n	800363e <color_detect_routine+0x162>
 8003626:	4b1c      	ldr	r3, [pc, #112]	@ (8003698 <color_detect_routine+0x1bc>)
 8003628:	781b      	ldrb	r3, [r3, #0]
 800362a:	b2da      	uxtb	r2, r3
 800362c:	4b1c      	ldr	r3, [pc, #112]	@ (80036a0 <color_detect_routine+0x1c4>)
 800362e:	781b      	ldrb	r3, [r3, #0]
 8003630:	b2db      	uxtb	r3, r3
 8003632:	429a      	cmp	r2, r3
 8003634:	d303      	bcc.n	800363e <color_detect_routine+0x162>
 8003636:	4b1b      	ldr	r3, [pc, #108]	@ (80036a4 <color_detect_routine+0x1c8>)
 8003638:	2203      	movs	r2, #3
 800363a:	701a      	strb	r2, [r3, #0]
 800363c:	e017      	b.n	800366e <color_detect_routine+0x192>
	else if (normG >= normR && normG >= normB) current_color = 1; // Green
 800363e:	4b17      	ldr	r3, [pc, #92]	@ (800369c <color_detect_routine+0x1c0>)
 8003640:	781b      	ldrb	r3, [r3, #0]
 8003642:	b2da      	uxtb	r2, r3
 8003644:	4b14      	ldr	r3, [pc, #80]	@ (8003698 <color_detect_routine+0x1bc>)
 8003646:	781b      	ldrb	r3, [r3, #0]
 8003648:	b2db      	uxtb	r3, r3
 800364a:	429a      	cmp	r2, r3
 800364c:	d30b      	bcc.n	8003666 <color_detect_routine+0x18a>
 800364e:	4b13      	ldr	r3, [pc, #76]	@ (800369c <color_detect_routine+0x1c0>)
 8003650:	781b      	ldrb	r3, [r3, #0]
 8003652:	b2da      	uxtb	r2, r3
 8003654:	4b12      	ldr	r3, [pc, #72]	@ (80036a0 <color_detect_routine+0x1c4>)
 8003656:	781b      	ldrb	r3, [r3, #0]
 8003658:	b2db      	uxtb	r3, r3
 800365a:	429a      	cmp	r2, r3
 800365c:	d303      	bcc.n	8003666 <color_detect_routine+0x18a>
 800365e:	4b11      	ldr	r3, [pc, #68]	@ (80036a4 <color_detect_routine+0x1c8>)
 8003660:	2201      	movs	r2, #1
 8003662:	701a      	strb	r2, [r3, #0]
 8003664:	e003      	b.n	800366e <color_detect_routine+0x192>
	else current_color = 2; // Blue
 8003666:	4b0f      	ldr	r3, [pc, #60]	@ (80036a4 <color_detect_routine+0x1c8>)
 8003668:	2202      	movs	r2, #2
 800366a:	701a      	strb	r2, [r3, #0]

}
 800366c:	46c0      	nop			@ (mov r8, r8)
 800366e:	46c0      	nop			@ (mov r8, r8)
 8003670:	46bd      	mov	sp, r7
 8003672:	bd80      	pop	{r7, pc}
 8003674:	20000954 	.word	0x20000954
 8003678:	20000952 	.word	0x20000952
 800367c:	20000950 	.word	0x20000950
 8003680:	2000094e 	.word	0x2000094e
 8003684:	20000956 	.word	0x20000956
 8003688:	20000957 	.word	0x20000957
 800368c:	20000958 	.word	0x20000958
 8003690:	20000959 	.word	0x20000959
 8003694:	2000095a 	.word	0x2000095a
 8003698:	2000095b 	.word	0x2000095b
 800369c:	2000095c 	.word	0x2000095c
 80036a0:	2000095d 	.word	0x2000095d
 80036a4:	2000095e 	.word	0x2000095e

080036a8 <seguir>:
uint8_t entering_station = 0;

volatile uint8_t counter_stations = 1; // fake ass mf
uint8_t linea = 1;

void seguir(void){
 80036a8:	b580      	push	{r7, lr}
 80036aa:	b082      	sub	sp, #8
 80036ac:	af00      	add	r7, sp, #0
    // --- 1. Normal line following ---
    if (Check_All_Sensors_Black() == false && station_done == false) {
 80036ae:	f000 f8c3 	bl	8003838 <Check_All_Sensors_Black>
 80036b2:	0003      	movs	r3, r0
 80036b4:	001a      	movs	r2, r3
 80036b6:	2301      	movs	r3, #1
 80036b8:	4053      	eors	r3, r2
 80036ba:	b2db      	uxtb	r3, r3
 80036bc:	2b00      	cmp	r3, #0
 80036be:	d012      	beq.n	80036e6 <seguir+0x3e>
 80036c0:	4b51      	ldr	r3, [pc, #324]	@ (8003808 <seguir+0x160>)
 80036c2:	781b      	ldrb	r3, [r3, #0]
 80036c4:	2201      	movs	r2, #1
 80036c6:	4053      	eors	r3, r2
 80036c8:	b2db      	uxtb	r3, r3
 80036ca:	2b00      	cmp	r3, #0
 80036cc:	d00b      	beq.n	80036e6 <seguir+0x3e>
        entering_station = 1;
 80036ce:	4b4f      	ldr	r3, [pc, #316]	@ (800380c <seguir+0x164>)
 80036d0:	2201      	movs	r2, #1
 80036d2:	701a      	strb	r2, [r3, #0]
      	LineFollow();
 80036d4:	f000 fa0e 	bl	8003af4 <LineFollow>
       	LED_action = 10;
 80036d8:	4b4d      	ldr	r3, [pc, #308]	@ (8003810 <seguir+0x168>)
 80036da:	220a      	movs	r2, #10
 80036dc:	701a      	strb	r2, [r3, #0]
       	near_obj=0;
 80036de:	4b4d      	ldr	r3, [pc, #308]	@ (8003814 <seguir+0x16c>)
 80036e0:	2200      	movs	r2, #0
 80036e2:	701a      	strb	r2, [r3, #0]
 80036e4:	e08b      	b.n	80037fe <seguir+0x156>
    }

    // --- 2. Entering station ---
    else if (Check_All_Sensors_Black() == true && station_done == false) {
 80036e6:	f000 f8a7 	bl	8003838 <Check_All_Sensors_Black>
 80036ea:	1e03      	subs	r3, r0, #0
 80036ec:	d01f      	beq.n	800372e <seguir+0x86>
 80036ee:	4b46      	ldr	r3, [pc, #280]	@ (8003808 <seguir+0x160>)
 80036f0:	781b      	ldrb	r3, [r3, #0]
 80036f2:	2201      	movs	r2, #1
 80036f4:	4053      	eors	r3, r2
 80036f6:	b2db      	uxtb	r3, r3
 80036f8:	2b00      	cmp	r3, #0
 80036fa:	d018      	beq.n	800372e <seguir+0x86>
        SmoothStop();
 80036fc:	f000 f8cc 	bl	8003898 <SmoothStop>
        LED_action = 14;
 8003700:	4b43      	ldr	r3, [pc, #268]	@ (8003810 <seguir+0x168>)
 8003702:	220e      	movs	r2, #14
 8003704:	701a      	strb	r2, [r3, #0]
        if (fabsf(V_current) < 0.02f) {
 8003706:	4b44      	ldr	r3, [pc, #272]	@ (8003818 <seguir+0x170>)
 8003708:	681b      	ldr	r3, [r3, #0]
 800370a:	005b      	lsls	r3, r3, #1
 800370c:	085b      	lsrs	r3, r3, #1
 800370e:	4943      	ldr	r1, [pc, #268]	@ (800381c <seguir+0x174>)
 8003710:	1c18      	adds	r0, r3, #0
 8003712:	f7fc fe81 	bl	8000418 <__aeabi_fcmplt>
 8003716:	1e03      	subs	r3, r0, #0
 8003718:	d100      	bne.n	800371c <seguir+0x74>
 800371a:	e070      	b.n	80037fe <seguir+0x156>
            Station_Color_Detect();
 800371c:	f000 f8f8 	bl	8003910 <Station_Color_Detect>
            leaving_station = false;
 8003720:	4b3f      	ldr	r3, [pc, #252]	@ (8003820 <seguir+0x178>)
 8003722:	2200      	movs	r2, #0
 8003724:	701a      	strb	r2, [r3, #0]
            exit_timer = 0;
 8003726:	4b3f      	ldr	r3, [pc, #252]	@ (8003824 <seguir+0x17c>)
 8003728:	2200      	movs	r2, #0
 800372a:	801a      	strh	r2, [r3, #0]
        if (fabsf(V_current) < 0.02f) {
 800372c:	e067      	b.n	80037fe <seguir+0x156>
        }
    }

    // --- 3. Leaving station (timed exit) ---
    else if (station_done == true && leaving_station == false) {
 800372e:	4b36      	ldr	r3, [pc, #216]	@ (8003808 <seguir+0x160>)
 8003730:	781b      	ldrb	r3, [r3, #0]
 8003732:	2b00      	cmp	r3, #0
 8003734:	d041      	beq.n	80037ba <seguir+0x112>
 8003736:	4b3a      	ldr	r3, [pc, #232]	@ (8003820 <seguir+0x178>)
 8003738:	781b      	ldrb	r3, [r3, #0]
 800373a:	2201      	movs	r2, #1
 800373c:	4053      	eors	r3, r2
 800373e:	b2db      	uxtb	r3, r3
 8003740:	2b00      	cmp	r3, #0
 8003742:	d03a      	beq.n	80037ba <seguir+0x112>
    	LED_action = 10;
 8003744:	4b32      	ldr	r3, [pc, #200]	@ (8003810 <seguir+0x168>)
 8003746:	220a      	movs	r2, #10
 8003748:	701a      	strb	r2, [r3, #0]
        current_color = 0;
 800374a:	4b37      	ldr	r3, [pc, #220]	@ (8003828 <seguir+0x180>)
 800374c:	2200      	movs	r2, #0
 800374e:	701a      	strb	r2, [r3, #0]
        colorin=0;
 8003750:	4b36      	ldr	r3, [pc, #216]	@ (800382c <seguir+0x184>)
 8003752:	2200      	movs	r2, #0
 8003754:	701a      	strb	r2, [r3, #0]
        const float slow_exit_speed = 0.07f;
 8003756:	4b36      	ldr	r3, [pc, #216]	@ (8003830 <seguir+0x188>)
 8003758:	607b      	str	r3, [r7, #4]
        const float V_target = slow_exit_speed;
 800375a:	687b      	ldr	r3, [r7, #4]
 800375c:	603b      	str	r3, [r7, #0]
        V_current = (V_current < V_target) ? (V_current + 0.005f) : V_target;
 800375e:	4b2e      	ldr	r3, [pc, #184]	@ (8003818 <seguir+0x170>)
 8003760:	681b      	ldr	r3, [r3, #0]
 8003762:	1c19      	adds	r1, r3, #0
 8003764:	6838      	ldr	r0, [r7, #0]
 8003766:	f7fc fe6b 	bl	8000440 <__aeabi_fcmpgt>
 800376a:	1e03      	subs	r3, r0, #0
 800376c:	d008      	beq.n	8003780 <seguir+0xd8>
 800376e:	4b2a      	ldr	r3, [pc, #168]	@ (8003818 <seguir+0x170>)
 8003770:	681b      	ldr	r3, [r3, #0]
 8003772:	4930      	ldr	r1, [pc, #192]	@ (8003834 <seguir+0x18c>)
 8003774:	1c18      	adds	r0, r3, #0
 8003776:	f7fc fe8f 	bl	8000498 <__aeabi_fadd>
 800377a:	1c03      	adds	r3, r0, #0
 800377c:	1c1a      	adds	r2, r3, #0
 800377e:	e000      	b.n	8003782 <seguir+0xda>
 8003780:	683a      	ldr	r2, [r7, #0]
 8003782:	4b25      	ldr	r3, [pc, #148]	@ (8003818 <seguir+0x170>)
 8003784:	601a      	str	r2, [r3, #0]

        VW_DifferentialDrive(V_current,0);
 8003786:	4b24      	ldr	r3, [pc, #144]	@ (8003818 <seguir+0x170>)
 8003788:	681b      	ldr	r3, [r3, #0]
 800378a:	2200      	movs	r2, #0
 800378c:	1c11      	adds	r1, r2, #0
 800378e:	1c18      	adds	r0, r3, #0
 8003790:	f001 fb66 	bl	8004e60 <VW_DifferentialDrive>

        // increment timer every 10 ms
        exit_timer++;
 8003794:	4b23      	ldr	r3, [pc, #140]	@ (8003824 <seguir+0x17c>)
 8003796:	881b      	ldrh	r3, [r3, #0]
 8003798:	3301      	adds	r3, #1
 800379a:	b29a      	uxth	r2, r3
 800379c:	4b21      	ldr	r3, [pc, #132]	@ (8003824 <seguir+0x17c>)
 800379e:	801a      	strh	r2, [r3, #0]
        if (exit_timer >= 300) {  // 2.5 seconds
 80037a0:	4b20      	ldr	r3, [pc, #128]	@ (8003824 <seguir+0x17c>)
 80037a2:	881a      	ldrh	r2, [r3, #0]
 80037a4:	2396      	movs	r3, #150	@ 0x96
 80037a6:	005b      	lsls	r3, r3, #1
 80037a8:	429a      	cmp	r2, r3
 80037aa:	d327      	bcc.n	80037fc <seguir+0x154>
            leaving_station = true;
 80037ac:	4b1c      	ldr	r3, [pc, #112]	@ (8003820 <seguir+0x178>)
 80037ae:	2201      	movs	r2, #1
 80037b0:	701a      	strb	r2, [r3, #0]
            exit_timer = 0;  // reset for next phase
 80037b2:	4b1c      	ldr	r3, [pc, #112]	@ (8003824 <seguir+0x17c>)
 80037b4:	2200      	movs	r2, #0
 80037b6:	801a      	strh	r2, [r3, #0]
    else if (station_done == true && leaving_station == false) {
 80037b8:	e020      	b.n	80037fc <seguir+0x154>
        }
    }

    // --- 4. After leaving station, resume normal line following ---
    else if (station_done == true && leaving_station == true) {
 80037ba:	4b13      	ldr	r3, [pc, #76]	@ (8003808 <seguir+0x160>)
 80037bc:	781b      	ldrb	r3, [r3, #0]
 80037be:	2b00      	cmp	r3, #0
 80037c0:	d01d      	beq.n	80037fe <seguir+0x156>
 80037c2:	4b17      	ldr	r3, [pc, #92]	@ (8003820 <seguir+0x178>)
 80037c4:	781b      	ldrb	r3, [r3, #0]
 80037c6:	2b00      	cmp	r3, #0
 80037c8:	d019      	beq.n	80037fe <seguir+0x156>
        V_current = 0.0f;
 80037ca:	4b13      	ldr	r3, [pc, #76]	@ (8003818 <seguir+0x170>)
 80037cc:	2200      	movs	r2, #0
 80037ce:	601a      	str	r2, [r3, #0]
        exit_timer++;
 80037d0:	4b14      	ldr	r3, [pc, #80]	@ (8003824 <seguir+0x17c>)
 80037d2:	881b      	ldrh	r3, [r3, #0]
 80037d4:	3301      	adds	r3, #1
 80037d6:	b29a      	uxth	r2, r3
 80037d8:	4b12      	ldr	r3, [pc, #72]	@ (8003824 <seguir+0x17c>)
 80037da:	801a      	strh	r2, [r3, #0]

        if (exit_timer >= 100) {  // 1 second "stabilization" period
 80037dc:	4b11      	ldr	r3, [pc, #68]	@ (8003824 <seguir+0x17c>)
 80037de:	881b      	ldrh	r3, [r3, #0]
 80037e0:	2b63      	cmp	r3, #99	@ 0x63
 80037e2:	d90c      	bls.n	80037fe <seguir+0x156>
        	LineFollow();
 80037e4:	f000 f986 	bl	8003af4 <LineFollow>
            station_done = false;     // back to normal mode
 80037e8:	4b07      	ldr	r3, [pc, #28]	@ (8003808 <seguir+0x160>)
 80037ea:	2200      	movs	r2, #0
 80037ec:	701a      	strb	r2, [r3, #0]
            leaving_station = false;  // fully reset
 80037ee:	4b0c      	ldr	r3, [pc, #48]	@ (8003820 <seguir+0x178>)
 80037f0:	2200      	movs	r2, #0
 80037f2:	701a      	strb	r2, [r3, #0]
            exit_timer = 0;           // ready for next station
 80037f4:	4b0b      	ldr	r3, [pc, #44]	@ (8003824 <seguir+0x17c>)
 80037f6:	2200      	movs	r2, #0
 80037f8:	801a      	strh	r2, [r3, #0]
        }
    }

}
 80037fa:	e000      	b.n	80037fe <seguir+0x156>
    else if (station_done == true && leaving_station == false) {
 80037fc:	46c0      	nop			@ (mov r8, r8)
}
 80037fe:	46c0      	nop			@ (mov r8, r8)
 8003800:	46bd      	mov	sp, r7
 8003802:	b002      	add	sp, #8
 8003804:	bd80      	pop	{r7, pc}
 8003806:	46c0      	nop			@ (mov r8, r8)
 8003808:	20000013 	.word	0x20000013
 800380c:	2000097a 	.word	0x2000097a
 8003810:	200000ec 	.word	0x200000ec
 8003814:	200000b9 	.word	0x200000b9
 8003818:	20000964 	.word	0x20000964
 800381c:	3ca3d70a 	.word	0x3ca3d70a
 8003820:	20000976 	.word	0x20000976
 8003824:	20000978 	.word	0x20000978
 8003828:	2000095e 	.word	0x2000095e
 800382c:	20000012 	.word	0x20000012
 8003830:	3d8f5c29 	.word	0x3d8f5c29
 8003834:	3ba3d70a 	.word	0x3ba3d70a

08003838 <Check_All_Sensors_Black>:



bool Check_All_Sensors_Black(void){
 8003838:	b580      	push	{r7, lr}
 800383a:	b084      	sub	sp, #16
 800383c:	af00      	add	r7, sp, #0
	uint8_t all_black = 0;
 800383e:	230f      	movs	r3, #15
 8003840:	18fb      	adds	r3, r7, r3
 8003842:	2200      	movs	r2, #0
 8003844:	701a      	strb	r2, [r3, #0]
    int black_count = 0;
 8003846:	2300      	movs	r3, #0
 8003848:	60bb      	str	r3, [r7, #8]
	for (int i = 0; i < 6; i++) {
 800384a:	2300      	movs	r3, #0
 800384c:	607b      	str	r3, [r7, #4]
 800384e:	e00c      	b.n	800386a <Check_All_Sensors_Black+0x32>
		if (sensor[i]) black_count++;
 8003850:	4a10      	ldr	r2, [pc, #64]	@ (8003894 <Check_All_Sensors_Black+0x5c>)
 8003852:	687b      	ldr	r3, [r7, #4]
 8003854:	18d3      	adds	r3, r2, r3
 8003856:	781b      	ldrb	r3, [r3, #0]
 8003858:	b2db      	uxtb	r3, r3
 800385a:	2b00      	cmp	r3, #0
 800385c:	d002      	beq.n	8003864 <Check_All_Sensors_Black+0x2c>
 800385e:	68bb      	ldr	r3, [r7, #8]
 8003860:	3301      	adds	r3, #1
 8003862:	60bb      	str	r3, [r7, #8]
	for (int i = 0; i < 6; i++) {
 8003864:	687b      	ldr	r3, [r7, #4]
 8003866:	3301      	adds	r3, #1
 8003868:	607b      	str	r3, [r7, #4]
 800386a:	687b      	ldr	r3, [r7, #4]
 800386c:	2b05      	cmp	r3, #5
 800386e:	ddef      	ble.n	8003850 <Check_All_Sensors_Black+0x18>
	}
	if (black_count >= 5){
 8003870:	68bb      	ldr	r3, [r7, #8]
 8003872:	2b04      	cmp	r3, #4
 8003874:	dd03      	ble.n	800387e <Check_All_Sensors_Black+0x46>
		all_black = 1;
 8003876:	230f      	movs	r3, #15
 8003878:	18fb      	adds	r3, r7, r3
 800387a:	2201      	movs	r2, #1
 800387c:	701a      	strb	r2, [r3, #0]
	}
	return all_black;
 800387e:	230f      	movs	r3, #15
 8003880:	18fb      	adds	r3, r7, r3
 8003882:	781b      	ldrb	r3, [r3, #0]
 8003884:	1e5a      	subs	r2, r3, #1
 8003886:	4193      	sbcs	r3, r2
 8003888:	b2db      	uxtb	r3, r3
}
 800388a:	0018      	movs	r0, r3
 800388c:	46bd      	mov	sp, r7
 800388e:	b004      	add	sp, #16
 8003890:	bd80      	pop	{r7, pc}
 8003892:	46c0      	nop			@ (mov r8, r8)
 8003894:	20000970 	.word	0x20000970

08003898 <SmoothStop>:

void SmoothStop(void) {
 8003898:	b580      	push	{r7, lr}
 800389a:	b084      	sub	sp, #16
 800389c:	af00      	add	r7, sp, #0
    const float DECEL_RATE = 0.30f;  // m/s  tune this for braking smoothness
 800389e:	4b19      	ldr	r3, [pc, #100]	@ (8003904 <SmoothStop+0x6c>)
 80038a0:	60fb      	str	r3, [r7, #12]
    const float TS = 0.01f;          // 10ms loop
 80038a2:	4b19      	ldr	r3, [pc, #100]	@ (8003908 <SmoothStop+0x70>)
 80038a4:	60bb      	str	r3, [r7, #8]
    const float MAX_DELTA_V = DECEL_RATE * TS;
 80038a6:	68b9      	ldr	r1, [r7, #8]
 80038a8:	68f8      	ldr	r0, [r7, #12]
 80038aa:	f7fd f9b5 	bl	8000c18 <__aeabi_fmul>
 80038ae:	1c03      	adds	r3, r0, #0
 80038b0:	607b      	str	r3, [r7, #4]

    if (V_current > 0.0f) {
 80038b2:	4b16      	ldr	r3, [pc, #88]	@ (800390c <SmoothStop+0x74>)
 80038b4:	681b      	ldr	r3, [r3, #0]
 80038b6:	2100      	movs	r1, #0
 80038b8:	1c18      	adds	r0, r3, #0
 80038ba:	f7fc fdc1 	bl	8000440 <__aeabi_fcmpgt>
 80038be:	1e03      	subs	r3, r0, #0
 80038c0:	d014      	beq.n	80038ec <SmoothStop+0x54>
        V_current -= MAX_DELTA_V;
 80038c2:	4b12      	ldr	r3, [pc, #72]	@ (800390c <SmoothStop+0x74>)
 80038c4:	681b      	ldr	r3, [r3, #0]
 80038c6:	6879      	ldr	r1, [r7, #4]
 80038c8:	1c18      	adds	r0, r3, #0
 80038ca:	f7fd faff 	bl	8000ecc <__aeabi_fsub>
 80038ce:	1c03      	adds	r3, r0, #0
 80038d0:	1c1a      	adds	r2, r3, #0
 80038d2:	4b0e      	ldr	r3, [pc, #56]	@ (800390c <SmoothStop+0x74>)
 80038d4:	601a      	str	r2, [r3, #0]
        if (V_current < 0.0f) V_current = 0.0f;
 80038d6:	4b0d      	ldr	r3, [pc, #52]	@ (800390c <SmoothStop+0x74>)
 80038d8:	681b      	ldr	r3, [r3, #0]
 80038da:	2100      	movs	r1, #0
 80038dc:	1c18      	adds	r0, r3, #0
 80038de:	f7fc fd9b 	bl	8000418 <__aeabi_fcmplt>
 80038e2:	1e03      	subs	r3, r0, #0
 80038e4:	d002      	beq.n	80038ec <SmoothStop+0x54>
 80038e6:	4b09      	ldr	r3, [pc, #36]	@ (800390c <SmoothStop+0x74>)
 80038e8:	2200      	movs	r2, #0
 80038ea:	601a      	str	r2, [r3, #0]
    }

    VW_DifferentialDrive(V_current,0);
 80038ec:	4b07      	ldr	r3, [pc, #28]	@ (800390c <SmoothStop+0x74>)
 80038ee:	681b      	ldr	r3, [r3, #0]
 80038f0:	2200      	movs	r2, #0
 80038f2:	1c11      	adds	r1, r2, #0
 80038f4:	1c18      	adds	r0, r3, #0
 80038f6:	f001 fab3 	bl	8004e60 <VW_DifferentialDrive>
}
 80038fa:	46c0      	nop			@ (mov r8, r8)
 80038fc:	46bd      	mov	sp, r7
 80038fe:	b004      	add	sp, #16
 8003900:	bd80      	pop	{r7, pc}
 8003902:	46c0      	nop			@ (mov r8, r8)
 8003904:	3e99999a 	.word	0x3e99999a
 8003908:	3c23d70a 	.word	0x3c23d70a
 800390c:	20000964 	.word	0x20000964

08003910 <Station_Color_Detect>:
void Station_Color_Detect(void) {
 8003910:	b580      	push	{r7, lr}
 8003912:	af00      	add	r7, sp, #0
	if (entering_station == 1) {
 8003914:	4b36      	ldr	r3, [pc, #216]	@ (80039f0 <Station_Color_Detect+0xe0>)
 8003916:	781b      	ldrb	r3, [r3, #0]
 8003918:	2b01      	cmp	r3, #1
 800391a:	d116      	bne.n	800394a <Station_Color_Detect+0x3a>
		//color_read_flag = 1;

		///// TRAMPA POR FALSO CONTACTO DEL SENSOR DE COLOR ///////////
			counter_stations += 1;
 800391c:	4b35      	ldr	r3, [pc, #212]	@ (80039f4 <Station_Color_Detect+0xe4>)
 800391e:	781b      	ldrb	r3, [r3, #0]
 8003920:	b2db      	uxtb	r3, r3
 8003922:	3301      	adds	r3, #1
 8003924:	b2da      	uxtb	r2, r3
 8003926:	4b33      	ldr	r3, [pc, #204]	@ (80039f4 <Station_Color_Detect+0xe4>)
 8003928:	701a      	strb	r2, [r3, #0]
			if (counter_stations == 4){
 800392a:	4b32      	ldr	r3, [pc, #200]	@ (80039f4 <Station_Color_Detect+0xe4>)
 800392c:	781b      	ldrb	r3, [r3, #0]
 800392e:	b2db      	uxtb	r3, r3
 8003930:	2b04      	cmp	r3, #4
 8003932:	d102      	bne.n	800393a <Station_Color_Detect+0x2a>
				(counter_stations = 1);//1green//2blue/3red
 8003934:	4b2f      	ldr	r3, [pc, #188]	@ (80039f4 <Station_Color_Detect+0xe4>)
 8003936:	2201      	movs	r2, #1
 8003938:	701a      	strb	r2, [r3, #0]
			}
			current_color = counter_stations;
 800393a:	4b2e      	ldr	r3, [pc, #184]	@ (80039f4 <Station_Color_Detect+0xe4>)
 800393c:	781b      	ldrb	r3, [r3, #0]
 800393e:	b2da      	uxtb	r2, r3
 8003940:	4b2d      	ldr	r3, [pc, #180]	@ (80039f8 <Station_Color_Detect+0xe8>)
 8003942:	701a      	strb	r2, [r3, #0]

		///////////////////////&///////////////////////////////////////
		///////////////////////&//////////////////////////////////////*/
		entering_station = 0;
 8003944:	4b2a      	ldr	r3, [pc, #168]	@ (80039f0 <Station_Color_Detect+0xe0>)
 8003946:	2200      	movs	r2, #0
 8003948:	701a      	strb	r2, [r3, #0]
    }

	if (current_color == 3 && coded_route_recieved % 5 == 0){ //RED
 800394a:	4b2b      	ldr	r3, [pc, #172]	@ (80039f8 <Station_Color_Detect+0xe8>)
 800394c:	781b      	ldrb	r3, [r3, #0]
 800394e:	b2db      	uxtb	r3, r3
 8003950:	2b03      	cmp	r3, #3
 8003952:	d113      	bne.n	800397c <Station_Color_Detect+0x6c>
 8003954:	4b29      	ldr	r3, [pc, #164]	@ (80039fc <Station_Color_Detect+0xec>)
 8003956:	781b      	ldrb	r3, [r3, #0]
 8003958:	b2db      	uxtb	r3, r3
 800395a:	2105      	movs	r1, #5
 800395c:	0018      	movs	r0, r3
 800395e:	f7fc fc59 	bl	8000214 <__aeabi_uidivmod>
 8003962:	000b      	movs	r3, r1
 8003964:	b2db      	uxtb	r3, r3
 8003966:	2b00      	cmp	r3, #0
 8003968:	d108      	bne.n	800397c <Station_Color_Detect+0x6c>
		colorin = 2;
 800396a:	4b25      	ldr	r3, [pc, #148]	@ (8003a00 <Station_Color_Detect+0xf0>)
 800396c:	2202      	movs	r2, #2
 800396e:	701a      	strb	r2, [r3, #0]
    	LED_action = 8;
 8003970:	4b24      	ldr	r3, [pc, #144]	@ (8003a04 <Station_Color_Detect+0xf4>)
 8003972:	2208      	movs	r2, #8
 8003974:	701a      	strb	r2, [r3, #0]
		station_wait_thing();
 8003976:	f000 f849 	bl	8003a0c <station_wait_thing>
 800397a:	e035      	b.n	80039e8 <Station_Color_Detect+0xd8>
	}
	else if (current_color == 1 && coded_route_recieved % 7 == 0){ //GREEN
 800397c:	4b1e      	ldr	r3, [pc, #120]	@ (80039f8 <Station_Color_Detect+0xe8>)
 800397e:	781b      	ldrb	r3, [r3, #0]
 8003980:	b2db      	uxtb	r3, r3
 8003982:	2b01      	cmp	r3, #1
 8003984:	d113      	bne.n	80039ae <Station_Color_Detect+0x9e>
 8003986:	4b1d      	ldr	r3, [pc, #116]	@ (80039fc <Station_Color_Detect+0xec>)
 8003988:	781b      	ldrb	r3, [r3, #0]
 800398a:	b2db      	uxtb	r3, r3
 800398c:	2107      	movs	r1, #7
 800398e:	0018      	movs	r0, r3
 8003990:	f7fc fc40 	bl	8000214 <__aeabi_uidivmod>
 8003994:	000b      	movs	r3, r1
 8003996:	b2db      	uxtb	r3, r3
 8003998:	2b00      	cmp	r3, #0
 800399a:	d108      	bne.n	80039ae <Station_Color_Detect+0x9e>
		colorin = 3;
 800399c:	4b18      	ldr	r3, [pc, #96]	@ (8003a00 <Station_Color_Detect+0xf0>)
 800399e:	2203      	movs	r2, #3
 80039a0:	701a      	strb	r2, [r3, #0]
    	LED_action = 7;
 80039a2:	4b18      	ldr	r3, [pc, #96]	@ (8003a04 <Station_Color_Detect+0xf4>)
 80039a4:	2207      	movs	r2, #7
 80039a6:	701a      	strb	r2, [r3, #0]
		station_wait_thing();
 80039a8:	f000 f830 	bl	8003a0c <station_wait_thing>
 80039ac:	e01c      	b.n	80039e8 <Station_Color_Detect+0xd8>
	}
	else if (current_color == 2 && coded_route_recieved % 3 == 0){ //BLUE
 80039ae:	4b12      	ldr	r3, [pc, #72]	@ (80039f8 <Station_Color_Detect+0xe8>)
 80039b0:	781b      	ldrb	r3, [r3, #0]
 80039b2:	b2db      	uxtb	r3, r3
 80039b4:	2b02      	cmp	r3, #2
 80039b6:	d113      	bne.n	80039e0 <Station_Color_Detect+0xd0>
 80039b8:	4b10      	ldr	r3, [pc, #64]	@ (80039fc <Station_Color_Detect+0xec>)
 80039ba:	781b      	ldrb	r3, [r3, #0]
 80039bc:	b2db      	uxtb	r3, r3
 80039be:	2103      	movs	r1, #3
 80039c0:	0018      	movs	r0, r3
 80039c2:	f7fc fc27 	bl	8000214 <__aeabi_uidivmod>
 80039c6:	000b      	movs	r3, r1
 80039c8:	b2db      	uxtb	r3, r3
 80039ca:	2b00      	cmp	r3, #0
 80039cc:	d108      	bne.n	80039e0 <Station_Color_Detect+0xd0>
		colorin = 1;
 80039ce:	4b0c      	ldr	r3, [pc, #48]	@ (8003a00 <Station_Color_Detect+0xf0>)
 80039d0:	2201      	movs	r2, #1
 80039d2:	701a      	strb	r2, [r3, #0]
    	LED_action = 9;
 80039d4:	4b0b      	ldr	r3, [pc, #44]	@ (8003a04 <Station_Color_Detect+0xf4>)
 80039d6:	2209      	movs	r2, #9
 80039d8:	701a      	strb	r2, [r3, #0]
		station_wait_thing();
 80039da:	f000 f817 	bl	8003a0c <station_wait_thing>
 80039de:	e003      	b.n	80039e8 <Station_Color_Detect+0xd8>
	}
	else{
		station_done = true;
 80039e0:	4b09      	ldr	r3, [pc, #36]	@ (8003a08 <Station_Color_Detect+0xf8>)
 80039e2:	2201      	movs	r2, #1
 80039e4:	701a      	strb	r2, [r3, #0]
	}
}
 80039e6:	46c0      	nop			@ (mov r8, r8)
 80039e8:	46c0      	nop			@ (mov r8, r8)
 80039ea:	46bd      	mov	sp, r7
 80039ec:	bd80      	pop	{r7, pc}
 80039ee:	46c0      	nop			@ (mov r8, r8)
 80039f0:	2000097a 	.word	0x2000097a
 80039f4:	20000014 	.word	0x20000014
 80039f8:	2000095e 	.word	0x2000095e
 80039fc:	200000aa 	.word	0x200000aa
 8003a00:	20000012 	.word	0x20000012
 8003a04:	200000ec 	.word	0x200000ec
 8003a08:	20000013 	.word	0x20000013

08003a0c <station_wait_thing>:

void station_wait_thing(void){
 8003a0c:	b580      	push	{r7, lr}
 8003a0e:	af00      	add	r7, sp, #0
	static uint16_t wait_ticks = 0;

	if (coded_recieved_bool1 % 2 == 0){ //0 = User // else = timer
 8003a10:	4b22      	ldr	r3, [pc, #136]	@ (8003a9c <station_wait_thing+0x90>)
 8003a12:	781b      	ldrb	r3, [r3, #0]
 8003a14:	b2db      	uxtb	r3, r3
 8003a16:	2201      	movs	r2, #1
 8003a18:	4013      	ands	r3, r2
 8003a1a:	b2db      	uxtb	r3, r3
 8003a1c:	2b00      	cmp	r3, #0
 8003a1e:	d119      	bne.n	8003a54 <station_wait_thing+0x48>
			if(coded_recieved_bool1 % 3 == 0){ //0 - GO_command // else = wait still
 8003a20:	4b1e      	ldr	r3, [pc, #120]	@ (8003a9c <station_wait_thing+0x90>)
 8003a22:	781b      	ldrb	r3, [r3, #0]
 8003a24:	b2db      	uxtb	r3, r3
 8003a26:	2103      	movs	r1, #3
 8003a28:	0018      	movs	r0, r3
 8003a2a:	f7fc fbf3 	bl	8000214 <__aeabi_uidivmod>
 8003a2e:	000b      	movs	r3, r1
 8003a30:	b2db      	uxtb	r3, r3
 8003a32:	2b00      	cmp	r3, #0
 8003a34:	d106      	bne.n	8003a44 <station_wait_thing+0x38>
				wait_ticks = 0;
 8003a36:	4b1a      	ldr	r3, [pc, #104]	@ (8003aa0 <station_wait_thing+0x94>)
 8003a38:	2200      	movs	r2, #0
 8003a3a:	801a      	strh	r2, [r3, #0]
				station_done = true;
 8003a3c:	4b19      	ldr	r3, [pc, #100]	@ (8003aa4 <station_wait_thing+0x98>)
 8003a3e:	2201      	movs	r2, #1
 8003a40:	701a      	strb	r2, [r3, #0]
		if (wait_ticks >= (station_wait_time*10)){
			station_done = true;
			wait_ticks = 0;
		}
	}
}
 8003a42:	e028      	b.n	8003a96 <station_wait_thing+0x8a>
			else if(coded_recieved_bool1 % 3 != 0){ //0 - GO_command // else = wait still
 8003a44:	4b15      	ldr	r3, [pc, #84]	@ (8003a9c <station_wait_thing+0x90>)
 8003a46:	781b      	ldrb	r3, [r3, #0]
 8003a48:	b2db      	uxtb	r3, r3
 8003a4a:	2103      	movs	r1, #3
 8003a4c:	0018      	movs	r0, r3
 8003a4e:	f7fc fbe1 	bl	8000214 <__aeabi_uidivmod>
}
 8003a52:	e020      	b.n	8003a96 <station_wait_thing+0x8a>
	else if (coded_recieved_bool1 % 2 != 0){
 8003a54:	4b11      	ldr	r3, [pc, #68]	@ (8003a9c <station_wait_thing+0x90>)
 8003a56:	781b      	ldrb	r3, [r3, #0]
 8003a58:	b2db      	uxtb	r3, r3
 8003a5a:	2201      	movs	r2, #1
 8003a5c:	4013      	ands	r3, r2
 8003a5e:	b2db      	uxtb	r3, r3
 8003a60:	2b00      	cmp	r3, #0
 8003a62:	d018      	beq.n	8003a96 <station_wait_thing+0x8a>
		wait_ticks += 1;
 8003a64:	4b0e      	ldr	r3, [pc, #56]	@ (8003aa0 <station_wait_thing+0x94>)
 8003a66:	881b      	ldrh	r3, [r3, #0]
 8003a68:	3301      	adds	r3, #1
 8003a6a:	b29a      	uxth	r2, r3
 8003a6c:	4b0c      	ldr	r3, [pc, #48]	@ (8003aa0 <station_wait_thing+0x94>)
 8003a6e:	801a      	strh	r2, [r3, #0]
		if (wait_ticks >= (station_wait_time*10)){
 8003a70:	4b0b      	ldr	r3, [pc, #44]	@ (8003aa0 <station_wait_thing+0x94>)
 8003a72:	881b      	ldrh	r3, [r3, #0]
 8003a74:	0019      	movs	r1, r3
 8003a76:	4b0c      	ldr	r3, [pc, #48]	@ (8003aa8 <station_wait_thing+0x9c>)
 8003a78:	781b      	ldrb	r3, [r3, #0]
 8003a7a:	b2db      	uxtb	r3, r3
 8003a7c:	001a      	movs	r2, r3
 8003a7e:	0013      	movs	r3, r2
 8003a80:	009b      	lsls	r3, r3, #2
 8003a82:	189b      	adds	r3, r3, r2
 8003a84:	005b      	lsls	r3, r3, #1
 8003a86:	4299      	cmp	r1, r3
 8003a88:	db05      	blt.n	8003a96 <station_wait_thing+0x8a>
			station_done = true;
 8003a8a:	4b06      	ldr	r3, [pc, #24]	@ (8003aa4 <station_wait_thing+0x98>)
 8003a8c:	2201      	movs	r2, #1
 8003a8e:	701a      	strb	r2, [r3, #0]
			wait_ticks = 0;
 8003a90:	4b03      	ldr	r3, [pc, #12]	@ (8003aa0 <station_wait_thing+0x94>)
 8003a92:	2200      	movs	r2, #0
 8003a94:	801a      	strh	r2, [r3, #0]
}
 8003a96:	46c0      	nop			@ (mov r8, r8)
 8003a98:	46bd      	mov	sp, r7
 8003a9a:	bd80      	pop	{r7, pc}
 8003a9c:	200000a9 	.word	0x200000a9
 8003aa0:	2000097c 	.word	0x2000097c
 8003aa4:	20000013 	.word	0x20000013
 8003aa8:	20000011 	.word	0x20000011

08003aac <IR_Sensors_Init>:

//INIT SENSORS AND LINE FOLLOW
void IR_Sensors_Init(void) {
 8003aac:	b580      	push	{r7, lr}
 8003aae:	af00      	add	r7, sp, #0
    // === 1. Enable GPIOC clock ===
    RCC->AHBENR |= RCC_AHBENR_GPIOCEN;
 8003ab0:	4b0d      	ldr	r3, [pc, #52]	@ (8003ae8 <IR_Sensors_Init+0x3c>)
 8003ab2:	695a      	ldr	r2, [r3, #20]
 8003ab4:	4b0c      	ldr	r3, [pc, #48]	@ (8003ae8 <IR_Sensors_Init+0x3c>)
 8003ab6:	2180      	movs	r1, #128	@ 0x80
 8003ab8:	0309      	lsls	r1, r1, #12
 8003aba:	430a      	orrs	r2, r1
 8003abc:	615a      	str	r2, [r3, #20]

    // === 2. Configure PC0PC5 as input (00: Input mode) ===
    GPIOC->MODER &= ~(0x0000FFFF);  // Clear MODER bits for PC0PC5 (2 bits per pin)
 8003abe:	4b0b      	ldr	r3, [pc, #44]	@ (8003aec <IR_Sensors_Init+0x40>)
 8003ac0:	681a      	ldr	r2, [r3, #0]
 8003ac2:	4b0a      	ldr	r3, [pc, #40]	@ (8003aec <IR_Sensors_Init+0x40>)
 8003ac4:	0c12      	lsrs	r2, r2, #16
 8003ac6:	0412      	lsls	r2, r2, #16
 8003ac8:	601a      	str	r2, [r3, #0]

    // === 3. (Optional) Enable internal pull-ups ===
    // Assuming your IR sensors pull the line LOW (0) when detecting black.
    // If they output HIGH on black, use PULL-DOWN instead.
    GPIOC->PUPDR &= ~(0x0000FFFF);  // Clear PUPDR for PC0PC5
 8003aca:	4b08      	ldr	r3, [pc, #32]	@ (8003aec <IR_Sensors_Init+0x40>)
 8003acc:	68da      	ldr	r2, [r3, #12]
 8003ace:	4b07      	ldr	r3, [pc, #28]	@ (8003aec <IR_Sensors_Init+0x40>)
 8003ad0:	0c12      	lsrs	r2, r2, #16
 8003ad2:	0412      	lsls	r2, r2, #16
 8003ad4:	60da      	str	r2, [r3, #12]
    GPIOC->PUPDR |=  (0x00005555);  // Set pull-up (01 per pin)
 8003ad6:	4b05      	ldr	r3, [pc, #20]	@ (8003aec <IR_Sensors_Init+0x40>)
 8003ad8:	68da      	ldr	r2, [r3, #12]
 8003ada:	4b04      	ldr	r3, [pc, #16]	@ (8003aec <IR_Sensors_Init+0x40>)
 8003adc:	4904      	ldr	r1, [pc, #16]	@ (8003af0 <IR_Sensors_Init+0x44>)
 8003ade:	430a      	orrs	r2, r1
 8003ae0:	60da      	str	r2, [r3, #12]
}
 8003ae2:	46c0      	nop			@ (mov r8, r8)
 8003ae4:	46bd      	mov	sp, r7
 8003ae6:	bd80      	pop	{r7, pc}
 8003ae8:	40021000 	.word	0x40021000
 8003aec:	48000800 	.word	0x48000800
 8003af0:	00005555 	.word	0x00005555

08003af4 <LineFollow>:

void LineFollow(void) {
 8003af4:	b590      	push	{r4, r7, lr}
 8003af6:	b095      	sub	sp, #84	@ 0x54
 8003af8:	af00      	add	r7, sp, #0
    const float sensor_weight[6] = {-3, -2, -1, 1, 2, 3};
 8003afa:	1d3b      	adds	r3, r7, #4
 8003afc:	4a80      	ldr	r2, [pc, #512]	@ (8003d00 <LineFollow+0x20c>)
 8003afe:	ca13      	ldmia	r2!, {r0, r1, r4}
 8003b00:	c313      	stmia	r3!, {r0, r1, r4}
 8003b02:	ca13      	ldmia	r2!, {r0, r1, r4}
 8003b04:	c313      	stmia	r3!, {r0, r1, r4}

    // Read IR sensors (your custom mapping)
    sensor[0] = (GPIOC->IDR & (1 << 2)) ? 1 : 0;
 8003b06:	4b7f      	ldr	r3, [pc, #508]	@ (8003d04 <LineFollow+0x210>)
 8003b08:	691b      	ldr	r3, [r3, #16]
 8003b0a:	2204      	movs	r2, #4
 8003b0c:	4013      	ands	r3, r2
 8003b0e:	1e5a      	subs	r2, r3, #1
 8003b10:	4193      	sbcs	r3, r2
 8003b12:	b2db      	uxtb	r3, r3
 8003b14:	001a      	movs	r2, r3
 8003b16:	4b7c      	ldr	r3, [pc, #496]	@ (8003d08 <LineFollow+0x214>)
 8003b18:	701a      	strb	r2, [r3, #0]
    sensor[1] = (GPIOC->IDR & (1 << 3)) ? 1 : 0;
 8003b1a:	4b7a      	ldr	r3, [pc, #488]	@ (8003d04 <LineFollow+0x210>)
 8003b1c:	691b      	ldr	r3, [r3, #16]
 8003b1e:	2208      	movs	r2, #8
 8003b20:	4013      	ands	r3, r2
 8003b22:	1e5a      	subs	r2, r3, #1
 8003b24:	4193      	sbcs	r3, r2
 8003b26:	b2db      	uxtb	r3, r3
 8003b28:	001a      	movs	r2, r3
 8003b2a:	4b77      	ldr	r3, [pc, #476]	@ (8003d08 <LineFollow+0x214>)
 8003b2c:	705a      	strb	r2, [r3, #1]
    sensor[2] = (GPIOC->IDR & (1 << 4)) ? 1 : 0;
 8003b2e:	4b75      	ldr	r3, [pc, #468]	@ (8003d04 <LineFollow+0x210>)
 8003b30:	691b      	ldr	r3, [r3, #16]
 8003b32:	2210      	movs	r2, #16
 8003b34:	4013      	ands	r3, r2
 8003b36:	1e5a      	subs	r2, r3, #1
 8003b38:	4193      	sbcs	r3, r2
 8003b3a:	b2db      	uxtb	r3, r3
 8003b3c:	001a      	movs	r2, r3
 8003b3e:	4b72      	ldr	r3, [pc, #456]	@ (8003d08 <LineFollow+0x214>)
 8003b40:	709a      	strb	r2, [r3, #2]
    sensor[3] = (GPIOC->IDR & (1 << 0)) ? 1 : 0;
 8003b42:	4b70      	ldr	r3, [pc, #448]	@ (8003d04 <LineFollow+0x210>)
 8003b44:	691b      	ldr	r3, [r3, #16]
 8003b46:	2201      	movs	r2, #1
 8003b48:	4013      	ands	r3, r2
 8003b4a:	1e5a      	subs	r2, r3, #1
 8003b4c:	4193      	sbcs	r3, r2
 8003b4e:	b2db      	uxtb	r3, r3
 8003b50:	001a      	movs	r2, r3
 8003b52:	4b6d      	ldr	r3, [pc, #436]	@ (8003d08 <LineFollow+0x214>)
 8003b54:	70da      	strb	r2, [r3, #3]
    sensor[4] = (GPIOC->IDR & (1 << 1)) ? 1 : 0;
 8003b56:	4b6b      	ldr	r3, [pc, #428]	@ (8003d04 <LineFollow+0x210>)
 8003b58:	691b      	ldr	r3, [r3, #16]
 8003b5a:	2202      	movs	r2, #2
 8003b5c:	4013      	ands	r3, r2
 8003b5e:	1e5a      	subs	r2, r3, #1
 8003b60:	4193      	sbcs	r3, r2
 8003b62:	b2db      	uxtb	r3, r3
 8003b64:	001a      	movs	r2, r3
 8003b66:	4b68      	ldr	r3, [pc, #416]	@ (8003d08 <LineFollow+0x214>)
 8003b68:	711a      	strb	r2, [r3, #4]
    sensor[5] = (GPIOC->IDR & (1 << 5)) ? 1 : 0;
 8003b6a:	4b66      	ldr	r3, [pc, #408]	@ (8003d04 <LineFollow+0x210>)
 8003b6c:	691b      	ldr	r3, [r3, #16]
 8003b6e:	2220      	movs	r2, #32
 8003b70:	4013      	ands	r3, r2
 8003b72:	1e5a      	subs	r2, r3, #1
 8003b74:	4193      	sbcs	r3, r2
 8003b76:	b2db      	uxtb	r3, r3
 8003b78:	001a      	movs	r2, r3
 8003b7a:	4b63      	ldr	r3, [pc, #396]	@ (8003d08 <LineFollow+0x214>)
 8003b7c:	715a      	strb	r2, [r3, #5]

    // --- 1. Compute line position error ---
    float position_error = 0.0f;
 8003b7e:	2300      	movs	r3, #0
 8003b80:	64fb      	str	r3, [r7, #76]	@ 0x4c
    int active = 0;
 8003b82:	2300      	movs	r3, #0
 8003b84:	64bb      	str	r3, [r7, #72]	@ 0x48
    for (int i = 0; i < 6; i++) {
 8003b86:	2300      	movs	r3, #0
 8003b88:	647b      	str	r3, [r7, #68]	@ 0x44
 8003b8a:	e016      	b.n	8003bba <LineFollow+0xc6>
        if (sensor[i]) {
 8003b8c:	4a5e      	ldr	r2, [pc, #376]	@ (8003d08 <LineFollow+0x214>)
 8003b8e:	6c7b      	ldr	r3, [r7, #68]	@ 0x44
 8003b90:	18d3      	adds	r3, r2, r3
 8003b92:	781b      	ldrb	r3, [r3, #0]
 8003b94:	b2db      	uxtb	r3, r3
 8003b96:	2b00      	cmp	r3, #0
 8003b98:	d00c      	beq.n	8003bb4 <LineFollow+0xc0>
            position_error += sensor_weight[i];
 8003b9a:	1d3b      	adds	r3, r7, #4
 8003b9c:	6c7a      	ldr	r2, [r7, #68]	@ 0x44
 8003b9e:	0092      	lsls	r2, r2, #2
 8003ba0:	58d3      	ldr	r3, [r2, r3]
 8003ba2:	1c19      	adds	r1, r3, #0
 8003ba4:	6cf8      	ldr	r0, [r7, #76]	@ 0x4c
 8003ba6:	f7fc fc77 	bl	8000498 <__aeabi_fadd>
 8003baa:	1c03      	adds	r3, r0, #0
 8003bac:	64fb      	str	r3, [r7, #76]	@ 0x4c
            active++;
 8003bae:	6cbb      	ldr	r3, [r7, #72]	@ 0x48
 8003bb0:	3301      	adds	r3, #1
 8003bb2:	64bb      	str	r3, [r7, #72]	@ 0x48
    for (int i = 0; i < 6; i++) {
 8003bb4:	6c7b      	ldr	r3, [r7, #68]	@ 0x44
 8003bb6:	3301      	adds	r3, #1
 8003bb8:	647b      	str	r3, [r7, #68]	@ 0x44
 8003bba:	6c7b      	ldr	r3, [r7, #68]	@ 0x44
 8003bbc:	2b05      	cmp	r3, #5
 8003bbe:	dde5      	ble.n	8003b8c <LineFollow+0x98>
        }
    }

    if (active > 0) {
 8003bc0:	6cbb      	ldr	r3, [r7, #72]	@ 0x48
 8003bc2:	2b00      	cmp	r3, #0
 8003bc4:	dd0d      	ble.n	8003be2 <LineFollow+0xee>
        position_error /= active;
 8003bc6:	6cb8      	ldr	r0, [r7, #72]	@ 0x48
 8003bc8:	f7fd fc1a 	bl	8001400 <__aeabi_i2f>
 8003bcc:	1c03      	adds	r3, r0, #0
 8003bce:	1c19      	adds	r1, r3, #0
 8003bd0:	6cf8      	ldr	r0, [r7, #76]	@ 0x4c
 8003bd2:	f7fc fe53 	bl	800087c <__aeabi_fdiv>
 8003bd6:	1c03      	adds	r3, r0, #0
 8003bd8:	64fb      	str	r3, [r7, #76]	@ 0x4c
        last_position_error = position_error;
 8003bda:	4b4c      	ldr	r3, [pc, #304]	@ (8003d0c <LineFollow+0x218>)
 8003bdc:	6cfa      	ldr	r2, [r7, #76]	@ 0x4c
 8003bde:	601a      	str	r2, [r3, #0]
 8003be0:	e002      	b.n	8003be8 <LineFollow+0xf4>
    } else {
        position_error = last_position_error;
 8003be2:	4b4a      	ldr	r3, [pc, #296]	@ (8003d0c <LineFollow+0x218>)
 8003be4:	681b      	ldr	r3, [r3, #0]
 8003be6:	64fb      	str	r3, [r7, #76]	@ 0x4c
    }

    // --- 2. Angular velocity (line correction) ---
    const float K_line = 0.35f; // tune experimentally
 8003be8:	4b49      	ldr	r3, [pc, #292]	@ (8003d10 <LineFollow+0x21c>)
 8003bea:	643b      	str	r3, [r7, #64]	@ 0x40
    float W_target = K_line * position_error;
 8003bec:	6cf9      	ldr	r1, [r7, #76]	@ 0x4c
 8003bee:	6c38      	ldr	r0, [r7, #64]	@ 0x40
 8003bf0:	f7fd f812 	bl	8000c18 <__aeabi_fmul>
 8003bf4:	1c03      	adds	r3, r0, #0
 8003bf6:	63fb      	str	r3, [r7, #60]	@ 0x3c

    // --- 3. Acceleration-limited linear velocity ---
    const float ACCEL_RATE = 0.2f;  // m/s
 8003bf8:	4b46      	ldr	r3, [pc, #280]	@ (8003d14 <LineFollow+0x220>)
 8003bfa:	63bb      	str	r3, [r7, #56]	@ 0x38
    const float TS = 0.01f;         // 10ms loop
 8003bfc:	4b46      	ldr	r3, [pc, #280]	@ (8003d18 <LineFollow+0x224>)
 8003bfe:	637b      	str	r3, [r7, #52]	@ 0x34
    const float MAX_DELTA_V = ACCEL_RATE * TS;
 8003c00:	6b79      	ldr	r1, [r7, #52]	@ 0x34
 8003c02:	6bb8      	ldr	r0, [r7, #56]	@ 0x38
 8003c04:	f7fd f808 	bl	8000c18 <__aeabi_fmul>
 8003c08:	1c03      	adds	r3, r0, #0
 8003c0a:	633b      	str	r3, [r7, #48]	@ 0x30

    float V_target = 0.25f;
 8003c0c:	23fa      	movs	r3, #250	@ 0xfa
 8003c0e:	059b      	lsls	r3, r3, #22
 8003c10:	62fb      	str	r3, [r7, #44]	@ 0x2c
    float dV = V_target - V_current;
 8003c12:	4b42      	ldr	r3, [pc, #264]	@ (8003d1c <LineFollow+0x228>)
 8003c14:	681b      	ldr	r3, [r3, #0]
 8003c16:	1c19      	adds	r1, r3, #0
 8003c18:	6af8      	ldr	r0, [r7, #44]	@ 0x2c
 8003c1a:	f7fd f957 	bl	8000ecc <__aeabi_fsub>
 8003c1e:	1c03      	adds	r3, r0, #0
 8003c20:	62bb      	str	r3, [r7, #40]	@ 0x28
    if (dV > MAX_DELTA_V) V_current += MAX_DELTA_V;
 8003c22:	6b39      	ldr	r1, [r7, #48]	@ 0x30
 8003c24:	6ab8      	ldr	r0, [r7, #40]	@ 0x28
 8003c26:	f7fc fc0b 	bl	8000440 <__aeabi_fcmpgt>
 8003c2a:	1e03      	subs	r3, r0, #0
 8003c2c:	d00a      	beq.n	8003c44 <LineFollow+0x150>
 8003c2e:	4b3b      	ldr	r3, [pc, #236]	@ (8003d1c <LineFollow+0x228>)
 8003c30:	681b      	ldr	r3, [r3, #0]
 8003c32:	6b39      	ldr	r1, [r7, #48]	@ 0x30
 8003c34:	1c18      	adds	r0, r3, #0
 8003c36:	f7fc fc2f 	bl	8000498 <__aeabi_fadd>
 8003c3a:	1c03      	adds	r3, r0, #0
 8003c3c:	1c1a      	adds	r2, r3, #0
 8003c3e:	4b37      	ldr	r3, [pc, #220]	@ (8003d1c <LineFollow+0x228>)
 8003c40:	601a      	str	r2, [r3, #0]
 8003c42:	e017      	b.n	8003c74 <LineFollow+0x180>
    else if (dV < -MAX_DELTA_V) V_current -= MAX_DELTA_V;
 8003c44:	6b3b      	ldr	r3, [r7, #48]	@ 0x30
 8003c46:	2280      	movs	r2, #128	@ 0x80
 8003c48:	0612      	lsls	r2, r2, #24
 8003c4a:	4053      	eors	r3, r2
 8003c4c:	1c19      	adds	r1, r3, #0
 8003c4e:	6ab8      	ldr	r0, [r7, #40]	@ 0x28
 8003c50:	f7fc fbe2 	bl	8000418 <__aeabi_fcmplt>
 8003c54:	1e03      	subs	r3, r0, #0
 8003c56:	d00a      	beq.n	8003c6e <LineFollow+0x17a>
 8003c58:	4b30      	ldr	r3, [pc, #192]	@ (8003d1c <LineFollow+0x228>)
 8003c5a:	681b      	ldr	r3, [r3, #0]
 8003c5c:	6b39      	ldr	r1, [r7, #48]	@ 0x30
 8003c5e:	1c18      	adds	r0, r3, #0
 8003c60:	f7fd f934 	bl	8000ecc <__aeabi_fsub>
 8003c64:	1c03      	adds	r3, r0, #0
 8003c66:	1c1a      	adds	r2, r3, #0
 8003c68:	4b2c      	ldr	r3, [pc, #176]	@ (8003d1c <LineFollow+0x228>)
 8003c6a:	601a      	str	r2, [r3, #0]
 8003c6c:	e002      	b.n	8003c74 <LineFollow+0x180>
    else V_current = V_target;
 8003c6e:	4b2b      	ldr	r3, [pc, #172]	@ (8003d1c <LineFollow+0x228>)
 8003c70:	6afa      	ldr	r2, [r7, #44]	@ 0x2c
 8003c72:	601a      	str	r2, [r3, #0]

    // --- 4. Acceleration-limited angular correction ---
    const float ANG_ACCEL_RATE = 1.25f;  // rad/s  <<< TUNE THIS VALUE
 8003c74:	4b2a      	ldr	r3, [pc, #168]	@ (8003d20 <LineFollow+0x22c>)
 8003c76:	627b      	str	r3, [r7, #36]	@ 0x24
    const float MAX_DELTA_W = ANG_ACCEL_RATE * TS;
 8003c78:	6b79      	ldr	r1, [r7, #52]	@ 0x34
 8003c7a:	6a78      	ldr	r0, [r7, #36]	@ 0x24
 8003c7c:	f7fc ffcc 	bl	8000c18 <__aeabi_fmul>
 8003c80:	1c03      	adds	r3, r0, #0
 8003c82:	623b      	str	r3, [r7, #32]

    float dW = W_target - W_current;
 8003c84:	4b27      	ldr	r3, [pc, #156]	@ (8003d24 <LineFollow+0x230>)
 8003c86:	681b      	ldr	r3, [r3, #0]
 8003c88:	1c19      	adds	r1, r3, #0
 8003c8a:	6bf8      	ldr	r0, [r7, #60]	@ 0x3c
 8003c8c:	f7fd f91e 	bl	8000ecc <__aeabi_fsub>
 8003c90:	1c03      	adds	r3, r0, #0
 8003c92:	61fb      	str	r3, [r7, #28]
    if (dW > MAX_DELTA_W) W_current += MAX_DELTA_W;
 8003c94:	6a39      	ldr	r1, [r7, #32]
 8003c96:	69f8      	ldr	r0, [r7, #28]
 8003c98:	f7fc fbd2 	bl	8000440 <__aeabi_fcmpgt>
 8003c9c:	1e03      	subs	r3, r0, #0
 8003c9e:	d00a      	beq.n	8003cb6 <LineFollow+0x1c2>
 8003ca0:	4b20      	ldr	r3, [pc, #128]	@ (8003d24 <LineFollow+0x230>)
 8003ca2:	681b      	ldr	r3, [r3, #0]
 8003ca4:	6a39      	ldr	r1, [r7, #32]
 8003ca6:	1c18      	adds	r0, r3, #0
 8003ca8:	f7fc fbf6 	bl	8000498 <__aeabi_fadd>
 8003cac:	1c03      	adds	r3, r0, #0
 8003cae:	1c1a      	adds	r2, r3, #0
 8003cb0:	4b1c      	ldr	r3, [pc, #112]	@ (8003d24 <LineFollow+0x230>)
 8003cb2:	601a      	str	r2, [r3, #0]
 8003cb4:	e017      	b.n	8003ce6 <LineFollow+0x1f2>
    else if (dW < -MAX_DELTA_W) W_current -= MAX_DELTA_W;
 8003cb6:	6a3b      	ldr	r3, [r7, #32]
 8003cb8:	2280      	movs	r2, #128	@ 0x80
 8003cba:	0612      	lsls	r2, r2, #24
 8003cbc:	4053      	eors	r3, r2
 8003cbe:	1c19      	adds	r1, r3, #0
 8003cc0:	69f8      	ldr	r0, [r7, #28]
 8003cc2:	f7fc fba9 	bl	8000418 <__aeabi_fcmplt>
 8003cc6:	1e03      	subs	r3, r0, #0
 8003cc8:	d00a      	beq.n	8003ce0 <LineFollow+0x1ec>
 8003cca:	4b16      	ldr	r3, [pc, #88]	@ (8003d24 <LineFollow+0x230>)
 8003ccc:	681b      	ldr	r3, [r3, #0]
 8003cce:	6a39      	ldr	r1, [r7, #32]
 8003cd0:	1c18      	adds	r0, r3, #0
 8003cd2:	f7fd f8fb 	bl	8000ecc <__aeabi_fsub>
 8003cd6:	1c03      	adds	r3, r0, #0
 8003cd8:	1c1a      	adds	r2, r3, #0
 8003cda:	4b12      	ldr	r3, [pc, #72]	@ (8003d24 <LineFollow+0x230>)
 8003cdc:	601a      	str	r2, [r3, #0]
 8003cde:	e002      	b.n	8003ce6 <LineFollow+0x1f2>
    else W_current = W_target;
 8003ce0:	4b10      	ldr	r3, [pc, #64]	@ (8003d24 <LineFollow+0x230>)
 8003ce2:	6bfa      	ldr	r2, [r7, #60]	@ 0x3c
 8003ce4:	601a      	str	r2, [r3, #0]

    VW_DifferentialDrive(V_current,W_current);
 8003ce6:	4b0d      	ldr	r3, [pc, #52]	@ (8003d1c <LineFollow+0x228>)
 8003ce8:	681a      	ldr	r2, [r3, #0]
 8003cea:	4b0e      	ldr	r3, [pc, #56]	@ (8003d24 <LineFollow+0x230>)
 8003cec:	681b      	ldr	r3, [r3, #0]
 8003cee:	1c19      	adds	r1, r3, #0
 8003cf0:	1c10      	adds	r0, r2, #0
 8003cf2:	f001 f8b5 	bl	8004e60 <VW_DifferentialDrive>
}
 8003cf6:	46c0      	nop			@ (mov r8, r8)
 8003cf8:	46bd      	mov	sp, r7
 8003cfa:	b015      	add	sp, #84	@ 0x54
 8003cfc:	bd90      	pop	{r4, r7, pc}
 8003cfe:	46c0      	nop			@ (mov r8, r8)
 8003d00:	080067ac 	.word	0x080067ac
 8003d04:	48000800 	.word	0x48000800
 8003d08:	20000970 	.word	0x20000970
 8003d0c:	2000096c 	.word	0x2000096c
 8003d10:	3eb33333 	.word	0x3eb33333
 8003d14:	3e4ccccd 	.word	0x3e4ccccd
 8003d18:	3c23d70a 	.word	0x3c23d70a
 8003d1c:	20000964 	.word	0x20000964
 8003d20:	3fa00000 	.word	0x3fa00000
 8003d24:	20000968 	.word	0x20000968

08003d28 <__NVIC_EnableIRQ>:
{
 8003d28:	b580      	push	{r7, lr}
 8003d2a:	b082      	sub	sp, #8
 8003d2c:	af00      	add	r7, sp, #0
 8003d2e:	0002      	movs	r2, r0
 8003d30:	1dfb      	adds	r3, r7, #7
 8003d32:	701a      	strb	r2, [r3, #0]
  if ((int32_t)(IRQn) >= 0)
 8003d34:	1dfb      	adds	r3, r7, #7
 8003d36:	781b      	ldrb	r3, [r3, #0]
 8003d38:	2b7f      	cmp	r3, #127	@ 0x7f
 8003d3a:	d809      	bhi.n	8003d50 <__NVIC_EnableIRQ+0x28>
    NVIC->ISER[0U] = (uint32_t)(1UL << (((uint32_t)IRQn) & 0x1FUL));
 8003d3c:	1dfb      	adds	r3, r7, #7
 8003d3e:	781b      	ldrb	r3, [r3, #0]
 8003d40:	001a      	movs	r2, r3
 8003d42:	231f      	movs	r3, #31
 8003d44:	401a      	ands	r2, r3
 8003d46:	4b04      	ldr	r3, [pc, #16]	@ (8003d58 <__NVIC_EnableIRQ+0x30>)
 8003d48:	2101      	movs	r1, #1
 8003d4a:	4091      	lsls	r1, r2
 8003d4c:	000a      	movs	r2, r1
 8003d4e:	601a      	str	r2, [r3, #0]
}
 8003d50:	46c0      	nop			@ (mov r8, r8)
 8003d52:	46bd      	mov	sp, r7
 8003d54:	b002      	add	sp, #8
 8003d56:	bd80      	pop	{r7, pc}
 8003d58:	e000e100 	.word	0xe000e100

08003d5c <__NVIC_SetPriority>:
  \param [in]      IRQn  Interrupt number.
  \param [in]  priority  Priority to set.
  \note    The priority cannot be set for every processor exception.
 */
__STATIC_INLINE void __NVIC_SetPriority(IRQn_Type IRQn, uint32_t priority)
{
 8003d5c:	b590      	push	{r4, r7, lr}
 8003d5e:	b083      	sub	sp, #12
 8003d60:	af00      	add	r7, sp, #0
 8003d62:	0002      	movs	r2, r0
 8003d64:	6039      	str	r1, [r7, #0]
 8003d66:	1dfb      	adds	r3, r7, #7
 8003d68:	701a      	strb	r2, [r3, #0]
  if ((int32_t)(IRQn) >= 0)
 8003d6a:	1dfb      	adds	r3, r7, #7
 8003d6c:	781b      	ldrb	r3, [r3, #0]
 8003d6e:	2b7f      	cmp	r3, #127	@ 0x7f
 8003d70:	d828      	bhi.n	8003dc4 <__NVIC_SetPriority+0x68>
  {
    NVIC->IP[_IP_IDX(IRQn)]  = ((uint32_t)(NVIC->IP[_IP_IDX(IRQn)]  & ~(0xFFUL << _BIT_SHIFT(IRQn))) |
 8003d72:	4a2f      	ldr	r2, [pc, #188]	@ (8003e30 <__NVIC_SetPriority+0xd4>)
 8003d74:	1dfb      	adds	r3, r7, #7
 8003d76:	781b      	ldrb	r3, [r3, #0]
 8003d78:	b25b      	sxtb	r3, r3
 8003d7a:	089b      	lsrs	r3, r3, #2
 8003d7c:	33c0      	adds	r3, #192	@ 0xc0
 8003d7e:	009b      	lsls	r3, r3, #2
 8003d80:	589b      	ldr	r3, [r3, r2]
 8003d82:	1dfa      	adds	r2, r7, #7
 8003d84:	7812      	ldrb	r2, [r2, #0]
 8003d86:	0011      	movs	r1, r2
 8003d88:	2203      	movs	r2, #3
 8003d8a:	400a      	ands	r2, r1
 8003d8c:	00d2      	lsls	r2, r2, #3
 8003d8e:	21ff      	movs	r1, #255	@ 0xff
 8003d90:	4091      	lsls	r1, r2
 8003d92:	000a      	movs	r2, r1
 8003d94:	43d2      	mvns	r2, r2
 8003d96:	401a      	ands	r2, r3
 8003d98:	0011      	movs	r1, r2
       (((priority << (8U - __NVIC_PRIO_BITS)) & (uint32_t)0xFFUL) << _BIT_SHIFT(IRQn)));
 8003d9a:	683b      	ldr	r3, [r7, #0]
 8003d9c:	019b      	lsls	r3, r3, #6
 8003d9e:	22ff      	movs	r2, #255	@ 0xff
 8003da0:	401a      	ands	r2, r3
 8003da2:	1dfb      	adds	r3, r7, #7
 8003da4:	781b      	ldrb	r3, [r3, #0]
 8003da6:	0018      	movs	r0, r3
 8003da8:	2303      	movs	r3, #3
 8003daa:	4003      	ands	r3, r0
 8003dac:	00db      	lsls	r3, r3, #3
 8003dae:	409a      	lsls	r2, r3
    NVIC->IP[_IP_IDX(IRQn)]  = ((uint32_t)(NVIC->IP[_IP_IDX(IRQn)]  & ~(0xFFUL << _BIT_SHIFT(IRQn))) |
 8003db0:	481f      	ldr	r0, [pc, #124]	@ (8003e30 <__NVIC_SetPriority+0xd4>)
 8003db2:	1dfb      	adds	r3, r7, #7
 8003db4:	781b      	ldrb	r3, [r3, #0]
 8003db6:	b25b      	sxtb	r3, r3
 8003db8:	089b      	lsrs	r3, r3, #2
 8003dba:	430a      	orrs	r2, r1
 8003dbc:	33c0      	adds	r3, #192	@ 0xc0
 8003dbe:	009b      	lsls	r3, r3, #2
 8003dc0:	501a      	str	r2, [r3, r0]
  else
  {
    SCB->SHP[_SHP_IDX(IRQn)] = ((uint32_t)(SCB->SHP[_SHP_IDX(IRQn)] & ~(0xFFUL << _BIT_SHIFT(IRQn))) |
       (((priority << (8U - __NVIC_PRIO_BITS)) & (uint32_t)0xFFUL) << _BIT_SHIFT(IRQn)));
  }
}
 8003dc2:	e031      	b.n	8003e28 <__NVIC_SetPriority+0xcc>
    SCB->SHP[_SHP_IDX(IRQn)] = ((uint32_t)(SCB->SHP[_SHP_IDX(IRQn)] & ~(0xFFUL << _BIT_SHIFT(IRQn))) |
 8003dc4:	4a1b      	ldr	r2, [pc, #108]	@ (8003e34 <__NVIC_SetPriority+0xd8>)
 8003dc6:	1dfb      	adds	r3, r7, #7
 8003dc8:	781b      	ldrb	r3, [r3, #0]
 8003dca:	0019      	movs	r1, r3
 8003dcc:	230f      	movs	r3, #15
 8003dce:	400b      	ands	r3, r1
 8003dd0:	3b08      	subs	r3, #8
 8003dd2:	089b      	lsrs	r3, r3, #2
 8003dd4:	3306      	adds	r3, #6
 8003dd6:	009b      	lsls	r3, r3, #2
 8003dd8:	18d3      	adds	r3, r2, r3
 8003dda:	3304      	adds	r3, #4
 8003ddc:	681b      	ldr	r3, [r3, #0]
 8003dde:	1dfa      	adds	r2, r7, #7
 8003de0:	7812      	ldrb	r2, [r2, #0]
 8003de2:	0011      	movs	r1, r2
 8003de4:	2203      	movs	r2, #3
 8003de6:	400a      	ands	r2, r1
 8003de8:	00d2      	lsls	r2, r2, #3
 8003dea:	21ff      	movs	r1, #255	@ 0xff
 8003dec:	4091      	lsls	r1, r2
 8003dee:	000a      	movs	r2, r1
 8003df0:	43d2      	mvns	r2, r2
 8003df2:	401a      	ands	r2, r3
 8003df4:	0011      	movs	r1, r2
       (((priority << (8U - __NVIC_PRIO_BITS)) & (uint32_t)0xFFUL) << _BIT_SHIFT(IRQn)));
 8003df6:	683b      	ldr	r3, [r7, #0]
 8003df8:	019b      	lsls	r3, r3, #6
 8003dfa:	22ff      	movs	r2, #255	@ 0xff
 8003dfc:	401a      	ands	r2, r3
 8003dfe:	1dfb      	adds	r3, r7, #7
 8003e00:	781b      	ldrb	r3, [r3, #0]
 8003e02:	0018      	movs	r0, r3
 8003e04:	2303      	movs	r3, #3
 8003e06:	4003      	ands	r3, r0
 8003e08:	00db      	lsls	r3, r3, #3
 8003e0a:	409a      	lsls	r2, r3
    SCB->SHP[_SHP_IDX(IRQn)] = ((uint32_t)(SCB->SHP[_SHP_IDX(IRQn)] & ~(0xFFUL << _BIT_SHIFT(IRQn))) |
 8003e0c:	4809      	ldr	r0, [pc, #36]	@ (8003e34 <__NVIC_SetPriority+0xd8>)
 8003e0e:	1dfb      	adds	r3, r7, #7
 8003e10:	781b      	ldrb	r3, [r3, #0]
 8003e12:	001c      	movs	r4, r3
 8003e14:	230f      	movs	r3, #15
 8003e16:	4023      	ands	r3, r4
 8003e18:	3b08      	subs	r3, #8
 8003e1a:	089b      	lsrs	r3, r3, #2
 8003e1c:	430a      	orrs	r2, r1
 8003e1e:	3306      	adds	r3, #6
 8003e20:	009b      	lsls	r3, r3, #2
 8003e22:	18c3      	adds	r3, r0, r3
 8003e24:	3304      	adds	r3, #4
 8003e26:	601a      	str	r2, [r3, #0]
}
 8003e28:	46c0      	nop			@ (mov r8, r8)
 8003e2a:	46bd      	mov	sp, r7
 8003e2c:	b003      	add	sp, #12
 8003e2e:	bd90      	pop	{r4, r7, pc}
 8003e30:	e000e100 	.word	0xe000e100
 8003e34:	e000ed00 	.word	0xe000ed00

08003e38 <main>:

void SelectManualLEDCommand(void);		//Manual mode joystick LED aplication


int main(void)
{
 8003e38:	b580      	push	{r7, lr}
 8003e3a:	af00      	add	r7, sp, #0

	RCC->AHBENR |= RCC_AHBENR_GPIOBEN;
 8003e3c:	4b26      	ldr	r3, [pc, #152]	@ (8003ed8 <main+0xa0>)
 8003e3e:	695a      	ldr	r2, [r3, #20]
 8003e40:	4b25      	ldr	r3, [pc, #148]	@ (8003ed8 <main+0xa0>)
 8003e42:	2180      	movs	r1, #128	@ 0x80
 8003e44:	02c9      	lsls	r1, r1, #11
 8003e46:	430a      	orrs	r2, r1
 8003e48:	615a      	str	r2, [r3, #20]
	RCC->APB2ENR |= RCC_APB2ENR_SYSCFGCOMPEN;
 8003e4a:	4b23      	ldr	r3, [pc, #140]	@ (8003ed8 <main+0xa0>)
 8003e4c:	699a      	ldr	r2, [r3, #24]
 8003e4e:	4b22      	ldr	r3, [pc, #136]	@ (8003ed8 <main+0xa0>)
 8003e50:	2101      	movs	r1, #1
 8003e52:	430a      	orrs	r2, r1
 8003e54:	619a      	str	r2, [r3, #24]
	RCC->APB1ENR |= RCC_APB1ENR_TIM3EN;
 8003e56:	4b20      	ldr	r3, [pc, #128]	@ (8003ed8 <main+0xa0>)
 8003e58:	69da      	ldr	r2, [r3, #28]
 8003e5a:	4b1f      	ldr	r3, [pc, #124]	@ (8003ed8 <main+0xa0>)
 8003e5c:	2102      	movs	r1, #2
 8003e5e:	430a      	orrs	r2, r1
 8003e60:	61da      	str	r2, [r3, #28]
	NVIC->ISER[0] |= (1 << EXTI4_15_IRQn);
 8003e62:	4b1e      	ldr	r3, [pc, #120]	@ (8003edc <main+0xa4>)
 8003e64:	681a      	ldr	r2, [r3, #0]
 8003e66:	4b1d      	ldr	r3, [pc, #116]	@ (8003edc <main+0xa4>)
 8003e68:	2180      	movs	r1, #128	@ 0x80
 8003e6a:	430a      	orrs	r2, r1
 8003e6c:	601a      	str	r2, [r3, #0]

	i2c1_init(); //COLOR AND IMU
 8003e6e:	f7fe fdff 	bl	8002a70 <i2c1_init>

	USART2_Init(); //BLUETOOTH INIT CHECK
 8003e72:	f7fe f96b 	bl	800214c <USART2_Init>
	USART1_Init(); //ESP32 COM INIT CHECK
 8003e76:	f7fe fc4d 	bl	8002714 <USART1_Init>

	TIM14_Init(); //ROUTINE TIMER
 8003e7a:	f000 f835 	bl	8003ee8 <TIM14_Init>
	pwm_init(); //MOTOR CHANNELS CHECK
 8003e7e:	f000 fc03 	bl	8004688 <pwm_init>
	IR_Sensors_Init(); //LINE FOLLOWER
 8003e82:	f7ff fe13 	bl	8003aac <IR_Sensors_Init>
	init_GPIO_EXTI_encoders(); //ENCODERS CHECK
 8003e86:	f7fe fac9 	bl	800241c <init_GPIO_EXTI_encoders>

	TIM3_init(); //ULTRASONIC TIMING CHECK
 8003e8a:	f001 f871 	bl	8004f70 <TIM3_init>
	init_GPIO_EXTI_ultrasonic(); //ULTRASONIC INIT CHECK
 8003e8e:	f001 f8b9 	bl	8005004 <init_GPIO_EXTI_ultrasonic>
  \details Enables IRQ interrupts by clearing the I-bit in the CPSR.
           Can only be executed in Privileged modes.
 */
__STATIC_FORCEINLINE void __enable_irq(void)
{
  __ASM volatile ("cpsie i" : : : "memory");
 8003e92:	b662      	cpsie	i
}
 8003e94:	46c0      	nop			@ (mov r8, r8)

	__enable_irq(); //ENABLE INTERRUPTIONS CHECK
	mpu6050_init();
 8003e96:	f7fe fef1 	bl	8002c7c <mpu6050_init>
	//TCS34725_Init();

	Odometry_Init();
 8003e9a:	f000 fca9 	bl	80047f0 <Odometry_Init>
	init_emergency_buttons();
 8003e9e:	f000 fac5 	bl	800442c <init_emergency_buttons>
	PC7_Button_Init();
 8003ea2:	f000 fb0b 	bl	80044bc <PC7_Button_Init>

	AMR_Init();          // reset odometry, set internals, etc.
 8003ea6:	f7fd fc91 	bl	80017cc <AMR_Init>

    /* Loop forever */

  	while (1){
        check_emergency_buttons();
 8003eaa:	f000 fadd 	bl	8004468 <check_emergency_buttons>
  		if (imu_read_flag) {
 8003eae:	4b0c      	ldr	r3, [pc, #48]	@ (8003ee0 <main+0xa8>)
 8003eb0:	781b      	ldrb	r3, [r3, #0]
 8003eb2:	b2db      	uxtb	r3, r3
 8003eb4:	2b00      	cmp	r3, #0
 8003eb6:	d004      	beq.n	8003ec2 <main+0x8a>
			imu_read_flag = 0;
 8003eb8:	4b09      	ldr	r3, [pc, #36]	@ (8003ee0 <main+0xa8>)
 8003eba:	2200      	movs	r2, #0
 8003ebc:	701a      	strb	r2, [r3, #0]
			imu_routine();
 8003ebe:	f7ff fadf 	bl	8003480 <imu_routine>
  		}
		if (color_read_flag) {
 8003ec2:	4b08      	ldr	r3, [pc, #32]	@ (8003ee4 <main+0xac>)
 8003ec4:	781b      	ldrb	r3, [r3, #0]
 8003ec6:	b2db      	uxtb	r3, r3
 8003ec8:	2b00      	cmp	r3, #0
 8003eca:	d0ee      	beq.n	8003eaa <main+0x72>
			color_read_flag = 0;
 8003ecc:	4b05      	ldr	r3, [pc, #20]	@ (8003ee4 <main+0xac>)
 8003ece:	2200      	movs	r2, #0
 8003ed0:	701a      	strb	r2, [r3, #0]
			color_detect_routine();
 8003ed2:	f7ff fb03 	bl	80034dc <color_detect_routine>
        check_emergency_buttons();
 8003ed6:	e7e8      	b.n	8003eaa <main+0x72>
 8003ed8:	40021000 	.word	0x40021000
 8003edc:	e000e100 	.word	0xe000e100
 8003ee0:	2000095f 	.word	0x2000095f
 8003ee4:	20000960 	.word	0x20000960

08003ee8 <TIM14_Init>:
}




void TIM14_Init(void) { //10ms Timer Setup
 8003ee8:	b580      	push	{r7, lr}
 8003eea:	af00      	add	r7, sp, #0
	RCC->APB1ENR |= RCC_APB1ENR_TIM14EN;
 8003eec:	4b11      	ldr	r3, [pc, #68]	@ (8003f34 <TIM14_Init+0x4c>)
 8003eee:	69da      	ldr	r2, [r3, #28]
 8003ef0:	4b10      	ldr	r3, [pc, #64]	@ (8003f34 <TIM14_Init+0x4c>)
 8003ef2:	2180      	movs	r1, #128	@ 0x80
 8003ef4:	0049      	lsls	r1, r1, #1
 8003ef6:	430a      	orrs	r2, r1
 8003ef8:	61da      	str	r2, [r3, #28]
    TIM14->PSC = 8 - 1;      // 8MHz/8 = 1MHz
 8003efa:	4b0f      	ldr	r3, [pc, #60]	@ (8003f38 <TIM14_Init+0x50>)
 8003efc:	2207      	movs	r2, #7
 8003efe:	629a      	str	r2, [r3, #40]	@ 0x28
    TIM14->ARR = 10000 - 1;  // 10ms period
 8003f00:	4b0d      	ldr	r3, [pc, #52]	@ (8003f38 <TIM14_Init+0x50>)
 8003f02:	4a0e      	ldr	r2, [pc, #56]	@ (8003f3c <TIM14_Init+0x54>)
 8003f04:	62da      	str	r2, [r3, #44]	@ 0x2c
    TIM14->DIER |= TIM_DIER_UIE;
 8003f06:	4b0c      	ldr	r3, [pc, #48]	@ (8003f38 <TIM14_Init+0x50>)
 8003f08:	68da      	ldr	r2, [r3, #12]
 8003f0a:	4b0b      	ldr	r3, [pc, #44]	@ (8003f38 <TIM14_Init+0x50>)
 8003f0c:	2101      	movs	r1, #1
 8003f0e:	430a      	orrs	r2, r1
 8003f10:	60da      	str	r2, [r3, #12]
    TIM14->CR1 |= TIM_CR1_CEN;
 8003f12:	4b09      	ldr	r3, [pc, #36]	@ (8003f38 <TIM14_Init+0x50>)
 8003f14:	681a      	ldr	r2, [r3, #0]
 8003f16:	4b08      	ldr	r3, [pc, #32]	@ (8003f38 <TIM14_Init+0x50>)
 8003f18:	2101      	movs	r1, #1
 8003f1a:	430a      	orrs	r2, r1
 8003f1c:	601a      	str	r2, [r3, #0]
	NVIC_SetPriority(TIM14_IRQn, 1);  // Lower value = higher priority
 8003f1e:	2101      	movs	r1, #1
 8003f20:	2013      	movs	r0, #19
 8003f22:	f7ff ff1b 	bl	8003d5c <__NVIC_SetPriority>
    NVIC_EnableIRQ(TIM14_IRQn);
 8003f26:	2013      	movs	r0, #19
 8003f28:	f7ff fefe 	bl	8003d28 <__NVIC_EnableIRQ>
}
 8003f2c:	46c0      	nop			@ (mov r8, r8)
 8003f2e:	46bd      	mov	sp, r7
 8003f30:	bd80      	pop	{r7, pc}
 8003f32:	46c0      	nop			@ (mov r8, r8)
 8003f34:	40021000 	.word	0x40021000
 8003f38:	40002000 	.word	0x40002000
 8003f3c:	0000270f 	.word	0x0000270f

08003f40 <TIM14_IRQHandler>:
void TIM14_IRQHandler(void) { //10 ms timer
 8003f40:	b580      	push	{r7, lr}
 8003f42:	b082      	sub	sp, #8
 8003f44:	af00      	add	r7, sp, #0
    if(TIM14->SR & TIM_SR_UIF) {
 8003f46:	4b7f      	ldr	r3, [pc, #508]	@ (8004144 <TIM14_IRQHandler+0x204>)
 8003f48:	691b      	ldr	r3, [r3, #16]
 8003f4a:	2201      	movs	r2, #1
 8003f4c:	4013      	ands	r3, r2
 8003f4e:	d100      	bne.n	8003f52 <TIM14_IRQHandler+0x12>
 8003f50:	e0f3      	b.n	800413a <TIM14_IRQHandler+0x1fa>
        TIM14->SR &= ~TIM_SR_UIF;  // Clear interrupt flag
 8003f52:	4b7c      	ldr	r3, [pc, #496]	@ (8004144 <TIM14_IRQHandler+0x204>)
 8003f54:	691a      	ldr	r2, [r3, #16]
 8003f56:	4b7b      	ldr	r3, [pc, #492]	@ (8004144 <TIM14_IRQHandler+0x204>)
 8003f58:	2101      	movs	r1, #1
 8003f5a:	438a      	bics	r2, r1
 8003f5c:	611a      	str	r2, [r3, #16]
        t += 10;
 8003f5e:	4b7a      	ldr	r3, [pc, #488]	@ (8004148 <TIM14_IRQHandler+0x208>)
 8003f60:	681b      	ldr	r3, [r3, #0]
 8003f62:	330a      	adds	r3, #10
 8003f64:	001a      	movs	r2, r3
 8003f66:	4b78      	ldr	r3, [pc, #480]	@ (8004148 <TIM14_IRQHandler+0x208>)
 8003f68:	601a      	str	r2, [r3, #0]

        //CONTINUOS SENSOR READS
        imu_read_flag = 1;
 8003f6a:	4b78      	ldr	r3, [pc, #480]	@ (800414c <TIM14_IRQHandler+0x20c>)
 8003f6c:	2201      	movs	r2, #1
 8003f6e:	701a      	strb	r2, [r3, #0]
        check_emergency_buttons();
 8003f70:	f000 fa7a 	bl	8004468 <check_emergency_buttons>
        velocidad_encoder();
 8003f74:	f7fe fb14 	bl	80025a0 <velocidad_encoder>
		hcsr04_read();
 8003f78:	f000 ffe4 	bl	8004f44 <hcsr04_read>
		Odometry_Update();
 8003f7c:	f000 fc8e 	bl	800489c <Odometry_Update>

        if (rx_buffer[0]!=255){PC7_Button_Check();}
 8003f80:	4b73      	ldr	r3, [pc, #460]	@ (8004150 <TIM14_IRQHandler+0x210>)
 8003f82:	781b      	ldrb	r3, [r3, #0]
 8003f84:	b2db      	uxtb	r3, r3
 8003f86:	2bff      	cmp	r3, #255	@ 0xff
 8003f88:	d001      	beq.n	8003f8e <TIM14_IRQHandler+0x4e>
 8003f8a:	f000 fabd 	bl	8004508 <PC7_Button_Check>

        switch(menu_button){
 8003f8e:	4b71      	ldr	r3, [pc, #452]	@ (8004154 <TIM14_IRQHandler+0x214>)
 8003f90:	781b      	ldrb	r3, [r3, #0]
 8003f92:	b2db      	uxtb	r3, r3
 8003f94:	2b16      	cmp	r3, #22
 8003f96:	d900      	bls.n	8003f9a <TIM14_IRQHandler+0x5a>
 8003f98:	e0b1      	b.n	80040fe <TIM14_IRQHandler+0x1be>
 8003f9a:	009a      	lsls	r2, r3, #2
 8003f9c:	4b6e      	ldr	r3, [pc, #440]	@ (8004158 <TIM14_IRQHandler+0x218>)
 8003f9e:	18d3      	adds	r3, r2, r3
 8003fa0:	681b      	ldr	r3, [r3, #0]
 8003fa2:	469f      	mov	pc, r3
        case 0: // OFF - Just Connected
        	reset_references();
 8003fa4:	f000 fb20 	bl	80045e8 <reset_references>
        	break;
 8003fa8:	e0a9      	b.n	80040fe <TIM14_IRQHandler+0x1be>
        case 1: //MANUAL MODE: idle
        	reset_references();
 8003faa:	f000 fb1d 	bl	80045e8 <reset_references>
        	LED_action = 14;
 8003fae:	4b6b      	ldr	r3, [pc, #428]	@ (800415c <TIM14_IRQHandler+0x21c>)
 8003fb0:	220e      	movs	r2, #14
 8003fb2:	701a      	strb	r2, [r3, #0]
        	break;
 8003fb4:	e0a3      	b.n	80040fe <TIM14_IRQHandler+0x1be>
        case 2: //MANUAL MODE: running
        	ManualDrive();
 8003fb6:	f000 f8e7 	bl	8004188 <ManualDrive>
        	break;
 8003fba:	e0a0      	b.n	80040fe <TIM14_IRQHandler+0x1be>
        case 3: //LINE FOLLOW: idle configuration
        	reset_references();
 8003fbc:	f000 fb14 	bl	80045e8 <reset_references>
        	LED_action = 7;
 8003fc0:	4b66      	ldr	r3, [pc, #408]	@ (800415c <TIM14_IRQHandler+0x21c>)
 8003fc2:	2207      	movs	r2, #7
 8003fc4:	701a      	strb	r2, [r3, #0]
        	break;
 8003fc6:	e09a      	b.n	80040fe <TIM14_IRQHandler+0x1be>
        case 4: // LINE FOLLOW MODE
        {
            if((distance_cm[2]>30.0f) && (distance_cm[0]>15.0f) && (distance_cm[3]>15.0f)){
 8003fc8:	4b65      	ldr	r3, [pc, #404]	@ (8004160 <TIM14_IRQHandler+0x220>)
 8003fca:	689b      	ldr	r3, [r3, #8]
 8003fcc:	4965      	ldr	r1, [pc, #404]	@ (8004164 <TIM14_IRQHandler+0x224>)
 8003fce:	1c18      	adds	r0, r3, #0
 8003fd0:	f7fc fa36 	bl	8000440 <__aeabi_fcmpgt>
 8003fd4:	1e03      	subs	r3, r0, #0
 8003fd6:	d017      	beq.n	8004008 <TIM14_IRQHandler+0xc8>
 8003fd8:	4b61      	ldr	r3, [pc, #388]	@ (8004160 <TIM14_IRQHandler+0x220>)
 8003fda:	681b      	ldr	r3, [r3, #0]
 8003fdc:	4962      	ldr	r1, [pc, #392]	@ (8004168 <TIM14_IRQHandler+0x228>)
 8003fde:	1c18      	adds	r0, r3, #0
 8003fe0:	f7fc fa2e 	bl	8000440 <__aeabi_fcmpgt>
 8003fe4:	1e03      	subs	r3, r0, #0
 8003fe6:	d00f      	beq.n	8004008 <TIM14_IRQHandler+0xc8>
 8003fe8:	4b5d      	ldr	r3, [pc, #372]	@ (8004160 <TIM14_IRQHandler+0x220>)
 8003fea:	68db      	ldr	r3, [r3, #12]
 8003fec:	495e      	ldr	r1, [pc, #376]	@ (8004168 <TIM14_IRQHandler+0x228>)
 8003fee:	1c18      	adds	r0, r3, #0
 8003ff0:	f7fc fa26 	bl	8000440 <__aeabi_fcmpgt>
 8003ff4:	1e03      	subs	r3, r0, #0
 8003ff6:	d007      	beq.n	8004008 <TIM14_IRQHandler+0xc8>
				if(linea){
 8003ff8:	4b5c      	ldr	r3, [pc, #368]	@ (800416c <TIM14_IRQHandler+0x22c>)
 8003ffa:	781b      	ldrb	r3, [r3, #0]
 8003ffc:	2b00      	cmp	r3, #0
 8003ffe:	d100      	bne.n	8004002 <TIM14_IRQHandler+0xc2>
 8004000:	e07c      	b.n	80040fc <TIM14_IRQHandler+0x1bc>
					seguir();}
 8004002:	f7ff fb51 	bl	80036a8 <seguir>
            break;
 8004006:	e079      	b.n	80040fc <TIM14_IRQHandler+0x1bc>
            }
            else{
                VW_DifferentialDrive(0.0f,0.0f);
 8004008:	2200      	movs	r2, #0
 800400a:	2300      	movs	r3, #0
 800400c:	1c11      	adds	r1, r2, #0
 800400e:	1c18      	adds	r0, r3, #0
 8004010:	f000 ff26 	bl	8004e60 <VW_DifferentialDrive>
            	near_obj=1 ;
 8004014:	4b56      	ldr	r3, [pc, #344]	@ (8004170 <TIM14_IRQHandler+0x230>)
 8004016:	2201      	movs	r2, #1
 8004018:	701a      	strb	r2, [r3, #0]
				V_current = 0;
 800401a:	4b56      	ldr	r3, [pc, #344]	@ (8004174 <TIM14_IRQHandler+0x234>)
 800401c:	2200      	movs	r2, #0
 800401e:	601a      	str	r2, [r3, #0]
				LED_action = 11;
 8004020:	4b4e      	ldr	r3, [pc, #312]	@ (800415c <TIM14_IRQHandler+0x21c>)
 8004022:	220b      	movs	r2, #11
 8004024:	701a      	strb	r2, [r3, #0]
				W_current = 0;
 8004026:	4b54      	ldr	r3, [pc, #336]	@ (8004178 <TIM14_IRQHandler+0x238>)
 8004028:	2200      	movs	r2, #0
 800402a:	601a      	str	r2, [r3, #0]
			break;
 800402c:	e067      	b.n	80040fe <TIM14_IRQHandler+0x1be>
            }
        }
		case 5: //AMR: idle configuration
			reset_references();
 800402e:	f000 fadb 	bl	80045e8 <reset_references>
			if(valid_indexes > 0){
 8004032:	4b52      	ldr	r3, [pc, #328]	@ (800417c <TIM14_IRQHandler+0x23c>)
 8004034:	881b      	ldrh	r3, [r3, #0]
 8004036:	b29b      	uxth	r3, r3
 8004038:	2b00      	cmp	r3, #0
 800403a:	d003      	beq.n	8004044 <TIM14_IRQHandler+0x104>
				LED_action = 21;
 800403c:	4b47      	ldr	r3, [pc, #284]	@ (800415c <TIM14_IRQHandler+0x21c>)
 800403e:	2215      	movs	r2, #21
 8004040:	701a      	strb	r2, [r3, #0]
			}
			else{
				LED_action = 19;
			}
			break;
 8004042:	e05c      	b.n	80040fe <TIM14_IRQHandler+0x1be>
				LED_action = 19;
 8004044:	4b45      	ldr	r3, [pc, #276]	@ (800415c <TIM14_IRQHandler+0x21c>)
 8004046:	2213      	movs	r2, #19
 8004048:	701a      	strb	r2, [r3, #0]
			break;
 800404a:	e058      	b.n	80040fe <TIM14_IRQHandler+0x1be>
        case 6: //AMR: RUNNING
            if((distance_cm[2]>30.0f) && (distance_cm[0]>15.0f) && (distance_cm[3]>15.0f)){
 800404c:	4b44      	ldr	r3, [pc, #272]	@ (8004160 <TIM14_IRQHandler+0x220>)
 800404e:	689b      	ldr	r3, [r3, #8]
 8004050:	4944      	ldr	r1, [pc, #272]	@ (8004164 <TIM14_IRQHandler+0x224>)
 8004052:	1c18      	adds	r0, r3, #0
 8004054:	f7fc f9f4 	bl	8000440 <__aeabi_fcmpgt>
 8004058:	1e03      	subs	r3, r0, #0
 800405a:	d01e      	beq.n	800409a <TIM14_IRQHandler+0x15a>
 800405c:	4b40      	ldr	r3, [pc, #256]	@ (8004160 <TIM14_IRQHandler+0x220>)
 800405e:	681b      	ldr	r3, [r3, #0]
 8004060:	4941      	ldr	r1, [pc, #260]	@ (8004168 <TIM14_IRQHandler+0x228>)
 8004062:	1c18      	adds	r0, r3, #0
 8004064:	f7fc f9ec 	bl	8000440 <__aeabi_fcmpgt>
 8004068:	1e03      	subs	r3, r0, #0
 800406a:	d016      	beq.n	800409a <TIM14_IRQHandler+0x15a>
 800406c:	4b3c      	ldr	r3, [pc, #240]	@ (8004160 <TIM14_IRQHandler+0x220>)
 800406e:	68db      	ldr	r3, [r3, #12]
 8004070:	493d      	ldr	r1, [pc, #244]	@ (8004168 <TIM14_IRQHandler+0x228>)
 8004072:	1c18      	adds	r0, r3, #0
 8004074:	f7fc f9e4 	bl	8000440 <__aeabi_fcmpgt>
 8004078:	1e03      	subs	r3, r0, #0
 800407a:	d00e      	beq.n	800409a <TIM14_IRQHandler+0x15a>
				LED_action = 0;
 800407c:	4b37      	ldr	r3, [pc, #220]	@ (800415c <TIM14_IRQHandler+0x21c>)
 800407e:	2200      	movs	r2, #0
 8004080:	701a      	strb	r2, [r3, #0]
				if (!amr_initialized) {
 8004082:	4b3f      	ldr	r3, [pc, #252]	@ (8004180 <TIM14_IRQHandler+0x240>)
 8004084:	781b      	ldrb	r3, [r3, #0]
 8004086:	2b00      	cmp	r3, #0
 8004088:	d104      	bne.n	8004094 <TIM14_IRQHandler+0x154>
					AMR_Start();
 800408a:	f7fd fb79 	bl	8001780 <AMR_Start>
					amr_initialized = 1;
 800408e:	4b3c      	ldr	r3, [pc, #240]	@ (8004180 <TIM14_IRQHandler+0x240>)
 8004090:	2201      	movs	r2, #1
 8004092:	701a      	strb	r2, [r3, #0]
				}
				AMR_Update();
 8004094:	f7fd fbc2 	bl	800181c <AMR_Update>

			break;
 8004098:	e031      	b.n	80040fe <TIM14_IRQHandler+0x1be>
			}
			else{
				VW_DifferentialDrive(0.0f,0.0f);
 800409a:	2200      	movs	r2, #0
 800409c:	2300      	movs	r3, #0
 800409e:	1c11      	adds	r1, r2, #0
 80040a0:	1c18      	adds	r0, r3, #0
 80040a2:	f000 fedd 	bl	8004e60 <VW_DifferentialDrive>
				near_obj=1 ;
 80040a6:	4b32      	ldr	r3, [pc, #200]	@ (8004170 <TIM14_IRQHandler+0x230>)
 80040a8:	2201      	movs	r2, #1
 80040aa:	701a      	strb	r2, [r3, #0]
				V_current = 0;
 80040ac:	4b31      	ldr	r3, [pc, #196]	@ (8004174 <TIM14_IRQHandler+0x234>)
 80040ae:	2200      	movs	r2, #0
 80040b0:	601a      	str	r2, [r3, #0]
				LED_action = 11;
 80040b2:	4b2a      	ldr	r3, [pc, #168]	@ (800415c <TIM14_IRQHandler+0x21c>)
 80040b4:	220b      	movs	r2, #11
 80040b6:	701a      	strb	r2, [r3, #0]
				W_current = 0;
 80040b8:	4b2f      	ldr	r3, [pc, #188]	@ (8004178 <TIM14_IRQHandler+0x238>)
 80040ba:	2200      	movs	r2, #0
 80040bc:	601a      	str	r2, [r3, #0]
			break;
 80040be:	e01e      	b.n	80040fe <TIM14_IRQHandler+0x1be>
			}
        case 7: //SETTINGS
        	LED_action = 12;
 80040c0:	4b26      	ldr	r3, [pc, #152]	@ (800415c <TIM14_IRQHandler+0x21c>)
 80040c2:	220c      	movs	r2, #12
 80040c4:	701a      	strb	r2, [r3, #0]
        	reset_references();
 80040c6:	f000 fa8f 	bl	80045e8 <reset_references>
        	break;
 80040ca:	e018      	b.n	80040fe <TIM14_IRQHandler+0x1be>
        case 8: // ESTOP?
        	reset_references();
 80040cc:	f000 fa8c 	bl	80045e8 <reset_references>
        	LED_action = 13;
 80040d0:	4b22      	ldr	r3, [pc, #136]	@ (800415c <TIM14_IRQHandler+0x21c>)
 80040d2:	220d      	movs	r2, #13
 80040d4:	701a      	strb	r2, [r3, #0]
        	break;
 80040d6:	e012      	b.n	80040fe <TIM14_IRQHandler+0x1be>

        case 20: /// RGB TEST
			reset_references();
 80040d8:	f000 fa86 	bl	80045e8 <reset_references>
        	LED_action = 15;
 80040dc:	4b1f      	ldr	r3, [pc, #124]	@ (800415c <TIM14_IRQHandler+0x21c>)
 80040de:	220f      	movs	r2, #15
 80040e0:	701a      	strb	r2, [r3, #0]
			break;
 80040e2:	e00c      	b.n	80040fe <TIM14_IRQHandler+0x1be>

		case 21: /// song1
			reset_references();
 80040e4:	f000 fa80 	bl	80045e8 <reset_references>
			LED_action = 31;
 80040e8:	4b1c      	ldr	r3, [pc, #112]	@ (800415c <TIM14_IRQHandler+0x21c>)
 80040ea:	221f      	movs	r2, #31
 80040ec:	701a      	strb	r2, [r3, #0]
			break;
 80040ee:	e006      	b.n	80040fe <TIM14_IRQHandler+0x1be>

		case 22: /// song1
			reset_references();
 80040f0:	f000 fa7a 	bl	80045e8 <reset_references>
			LED_action = 30;
 80040f4:	4b19      	ldr	r3, [pc, #100]	@ (800415c <TIM14_IRQHandler+0x21c>)
 80040f6:	221e      	movs	r2, #30
 80040f8:	701a      	strb	r2, [r3, #0]
			break;
 80040fa:	e000      	b.n	80040fe <TIM14_IRQHandler+0x1be>
            break;
 80040fc:	46c0      	nop			@ (mov r8, r8)
		}


		static uint8_t last_led_action = 0xFF;
		uint8_t cur = LED_action; // Mandar comand a ESP32 solo cuando cambia
 80040fe:	1dfb      	adds	r3, r7, #7
 8004100:	4a16      	ldr	r2, [pc, #88]	@ (800415c <TIM14_IRQHandler+0x21c>)
 8004102:	7812      	ldrb	r2, [r2, #0]
 8004104:	701a      	strb	r2, [r3, #0]
		if (cur != last_led_action) {
 8004106:	4b1f      	ldr	r3, [pc, #124]	@ (8004184 <TIM14_IRQHandler+0x244>)
 8004108:	781b      	ldrb	r3, [r3, #0]
 800410a:	1dfa      	adds	r2, r7, #7
 800410c:	7812      	ldrb	r2, [r2, #0]
 800410e:	429a      	cmp	r2, r3
 8004110:	d008      	beq.n	8004124 <TIM14_IRQHandler+0x1e4>
			USART1_send(cur);
 8004112:	1dfb      	adds	r3, r7, #7
 8004114:	781b      	ldrb	r3, [r3, #0]
 8004116:	0018      	movs	r0, r3
 8004118:	f7fe fb54 	bl	80027c4 <USART1_send>
			last_led_action = cur;
 800411c:	4b19      	ldr	r3, [pc, #100]	@ (8004184 <TIM14_IRQHandler+0x244>)
 800411e:	1dfa      	adds	r2, r7, #7
 8004120:	7812      	ldrb	r2, [r2, #0]
 8004122:	701a      	strb	r2, [r3, #0]
		}

		if (t >= 70) { //MANDAR DATOS DE BLUETOOTH CADA 200ms
 8004124:	4b08      	ldr	r3, [pc, #32]	@ (8004148 <TIM14_IRQHandler+0x208>)
 8004126:	681b      	ldr	r3, [r3, #0]
 8004128:	2b45      	cmp	r3, #69	@ 0x45
 800412a:	d906      	bls.n	800413a <TIM14_IRQHandler+0x1fa>
			BT_process_data();
 800412c:	f000 f8a6 	bl	800427c <BT_process_data>
			BT_SendTelemetry();
 8004130:	f7fe f8f0 	bl	8002314 <BT_SendTelemetry>
			t = 0;
 8004134:	4b04      	ldr	r3, [pc, #16]	@ (8004148 <TIM14_IRQHandler+0x208>)
 8004136:	2200      	movs	r2, #0
 8004138:	601a      	str	r2, [r3, #0]
		}
    }
}
 800413a:	46c0      	nop			@ (mov r8, r8)
 800413c:	46bd      	mov	sp, r7
 800413e:	b002      	add	sp, #8
 8004140:	bd80      	pop	{r7, pc}
 8004142:	46c0      	nop			@ (mov r8, r8)
 8004144:	40002000 	.word	0x40002000
 8004148:	20000980 	.word	0x20000980
 800414c:	2000095f 	.word	0x2000095f
 8004150:	200000ac 	.word	0x200000ac
 8004154:	200000a8 	.word	0x200000a8
 8004158:	0800685c 	.word	0x0800685c
 800415c:	200000ec 	.word	0x200000ec
 8004160:	20000a24 	.word	0x20000a24
 8004164:	41f00000 	.word	0x41f00000
 8004168:	41700000 	.word	0x41700000
 800416c:	20000015 	.word	0x20000015
 8004170:	200000b9 	.word	0x200000b9
 8004174:	20000964 	.word	0x20000964
 8004178:	20000968 	.word	0x20000968
 800417c:	200000f2 	.word	0x200000f2
 8004180:	2000099c 	.word	0x2000099c
 8004184:	20000016 	.word	0x20000016

08004188 <ManualDrive>:



void ManualDrive(void){
 8004188:	b580      	push	{r7, lr}
 800418a:	af00      	add	r7, sp, #0
	//Logic calculation based on 250x250 map, where 125x125 is defined as center
	//Assume a +-30 deadzone for generous inputs

	 x = raw_x - 125; //Set initial coords to (0,0)
 800418c:	4b32      	ldr	r3, [pc, #200]	@ (8004258 <ManualDrive+0xd0>)
 800418e:	881b      	ldrh	r3, [r3, #0]
 8004190:	b21b      	sxth	r3, r3
 8004192:	b29b      	uxth	r3, r3
 8004194:	3b7d      	subs	r3, #125	@ 0x7d
 8004196:	b29b      	uxth	r3, r3
 8004198:	b21a      	sxth	r2, r3
 800419a:	4b30      	ldr	r3, [pc, #192]	@ (800425c <ManualDrive+0xd4>)
 800419c:	801a      	strh	r2, [r3, #0]
     y = 125- raw_y;
 800419e:	4b30      	ldr	r3, [pc, #192]	@ (8004260 <ManualDrive+0xd8>)
 80041a0:	881b      	ldrh	r3, [r3, #0]
 80041a2:	b21b      	sxth	r3, r3
 80041a4:	b29b      	uxth	r3, r3
 80041a6:	227d      	movs	r2, #125	@ 0x7d
 80041a8:	1ad3      	subs	r3, r2, r3
 80041aa:	b29b      	uxth	r3, r3
 80041ac:	b21a      	sxth	r2, r3
 80041ae:	4b2d      	ldr	r3, [pc, #180]	@ (8004264 <ManualDrive+0xdc>)
 80041b0:	801a      	strh	r2, [r3, #0]
     if (abs(x) < 30){ x = 0;}
 80041b2:	4b2a      	ldr	r3, [pc, #168]	@ (800425c <ManualDrive+0xd4>)
 80041b4:	881b      	ldrh	r3, [r3, #0]
 80041b6:	b21b      	sxth	r3, r3
 80041b8:	17da      	asrs	r2, r3, #31
 80041ba:	189b      	adds	r3, r3, r2
 80041bc:	4053      	eors	r3, r2
 80041be:	b29b      	uxth	r3, r3
 80041c0:	2b1d      	cmp	r3, #29
 80041c2:	d802      	bhi.n	80041ca <ManualDrive+0x42>
 80041c4:	4b25      	ldr	r3, [pc, #148]	@ (800425c <ManualDrive+0xd4>)
 80041c6:	2200      	movs	r2, #0
 80041c8:	801a      	strh	r2, [r3, #0]
     if (abs(y) < 30){ y = 0;}
 80041ca:	4b26      	ldr	r3, [pc, #152]	@ (8004264 <ManualDrive+0xdc>)
 80041cc:	881b      	ldrh	r3, [r3, #0]
 80041ce:	b21b      	sxth	r3, r3
 80041d0:	17da      	asrs	r2, r3, #31
 80041d2:	189b      	adds	r3, r3, r2
 80041d4:	4053      	eors	r3, r2
 80041d6:	b29b      	uxth	r3, r3
 80041d8:	2b1d      	cmp	r3, #29
 80041da:	d802      	bhi.n	80041e2 <ManualDrive+0x5a>
 80041dc:	4b21      	ldr	r3, [pc, #132]	@ (8004264 <ManualDrive+0xdc>)
 80041de:	2200      	movs	r2, #0
 80041e0:	801a      	strh	r2, [r3, #0]
     //Normalize
     V_req = y*0.8f/125.0f; //Max speed will be set to 0.8m/s for plot convenience
 80041e2:	4b20      	ldr	r3, [pc, #128]	@ (8004264 <ManualDrive+0xdc>)
 80041e4:	881b      	ldrh	r3, [r3, #0]
 80041e6:	b21b      	sxth	r3, r3
 80041e8:	0018      	movs	r0, r3
 80041ea:	f7fd f909 	bl	8001400 <__aeabi_i2f>
 80041ee:	1c03      	adds	r3, r0, #0
 80041f0:	491d      	ldr	r1, [pc, #116]	@ (8004268 <ManualDrive+0xe0>)
 80041f2:	1c18      	adds	r0, r3, #0
 80041f4:	f7fc fd10 	bl	8000c18 <__aeabi_fmul>
 80041f8:	1c03      	adds	r3, r0, #0
 80041fa:	491c      	ldr	r1, [pc, #112]	@ (800426c <ManualDrive+0xe4>)
 80041fc:	1c18      	adds	r0, r3, #0
 80041fe:	f7fc fb3d 	bl	800087c <__aeabi_fdiv>
 8004202:	1c03      	adds	r3, r0, #0
 8004204:	1c1a      	adds	r2, r3, #0
 8004206:	4b1a      	ldr	r3, [pc, #104]	@ (8004270 <ManualDrive+0xe8>)
 8004208:	601a      	str	r2, [r3, #0]
     W_req = x*0.8f*2.5f/125.0f; // Angular speed
 800420a:	4b14      	ldr	r3, [pc, #80]	@ (800425c <ManualDrive+0xd4>)
 800420c:	881b      	ldrh	r3, [r3, #0]
 800420e:	b21b      	sxth	r3, r3
 8004210:	0018      	movs	r0, r3
 8004212:	f7fd f8f5 	bl	8001400 <__aeabi_i2f>
 8004216:	1c03      	adds	r3, r0, #0
 8004218:	4913      	ldr	r1, [pc, #76]	@ (8004268 <ManualDrive+0xe0>)
 800421a:	1c18      	adds	r0, r3, #0
 800421c:	f7fc fcfc 	bl	8000c18 <__aeabi_fmul>
 8004220:	1c03      	adds	r3, r0, #0
 8004222:	4914      	ldr	r1, [pc, #80]	@ (8004274 <ManualDrive+0xec>)
 8004224:	1c18      	adds	r0, r3, #0
 8004226:	f7fc fcf7 	bl	8000c18 <__aeabi_fmul>
 800422a:	1c03      	adds	r3, r0, #0
 800422c:	490f      	ldr	r1, [pc, #60]	@ (800426c <ManualDrive+0xe4>)
 800422e:	1c18      	adds	r0, r3, #0
 8004230:	f7fc fb24 	bl	800087c <__aeabi_fdiv>
 8004234:	1c03      	adds	r3, r0, #0
 8004236:	1c1a      	adds	r2, r3, #0
 8004238:	4b0f      	ldr	r3, [pc, #60]	@ (8004278 <ManualDrive+0xf0>)
 800423a:	601a      	str	r2, [r3, #0]

     VW_DifferentialDrive(V_req,W_req);
 800423c:	4b0c      	ldr	r3, [pc, #48]	@ (8004270 <ManualDrive+0xe8>)
 800423e:	681a      	ldr	r2, [r3, #0]
 8004240:	4b0d      	ldr	r3, [pc, #52]	@ (8004278 <ManualDrive+0xf0>)
 8004242:	681b      	ldr	r3, [r3, #0]
 8004244:	1c19      	adds	r1, r3, #0
 8004246:	1c10      	adds	r0, r2, #0
 8004248:	f000 fe0a 	bl	8004e60 <VW_DifferentialDrive>
     SelectManualLEDCommand();
 800424c:	f000 f972 	bl	8004534 <SelectManualLEDCommand>
}
 8004250:	46c0      	nop			@ (mov r8, r8)
 8004252:	46bd      	mov	sp, r7
 8004254:	bd80      	pop	{r7, pc}
 8004256:	46c0      	nop			@ (mov r8, r8)
 8004258:	2000000c 	.word	0x2000000c
 800425c:	20000998 	.word	0x20000998
 8004260:	2000000e 	.word	0x2000000e
 8004264:	2000099a 	.word	0x2000099a
 8004268:	3f4ccccd 	.word	0x3f4ccccd
 800426c:	42fa0000 	.word	0x42fa0000
 8004270:	200009fc 	.word	0x200009fc
 8004274:	40200000 	.word	0x40200000
 8004278:	20000a00 	.word	0x20000a00

0800427c <BT_process_data>:


void BT_process_data(void) {
 800427c:	b580      	push	{r7, lr}
 800427e:	af00      	add	r7, sp, #0
    // Convert from RPM to rad/s
    w_ll = rpm_1_filtered * 2.0f * 3.14159265359f / 60.0f;
 8004280:	4b54      	ldr	r3, [pc, #336]	@ (80043d4 <BT_process_data+0x158>)
 8004282:	681b      	ldr	r3, [r3, #0]
 8004284:	1c19      	adds	r1, r3, #0
 8004286:	1c18      	adds	r0, r3, #0
 8004288:	f7fc f906 	bl	8000498 <__aeabi_fadd>
 800428c:	1c03      	adds	r3, r0, #0
 800428e:	4952      	ldr	r1, [pc, #328]	@ (80043d8 <BT_process_data+0x15c>)
 8004290:	1c18      	adds	r0, r3, #0
 8004292:	f7fc fcc1 	bl	8000c18 <__aeabi_fmul>
 8004296:	1c03      	adds	r3, r0, #0
 8004298:	4950      	ldr	r1, [pc, #320]	@ (80043dc <BT_process_data+0x160>)
 800429a:	1c18      	adds	r0, r3, #0
 800429c:	f7fc faee 	bl	800087c <__aeabi_fdiv>
 80042a0:	1c03      	adds	r3, r0, #0
 80042a2:	1c1a      	adds	r2, r3, #0
 80042a4:	4b4e      	ldr	r3, [pc, #312]	@ (80043e0 <BT_process_data+0x164>)
 80042a6:	601a      	str	r2, [r3, #0]
    w_rr = rpm_2_filtered * 2.0f * 3.14159265359f / 60.0f;
 80042a8:	4b4e      	ldr	r3, [pc, #312]	@ (80043e4 <BT_process_data+0x168>)
 80042aa:	681b      	ldr	r3, [r3, #0]
 80042ac:	1c19      	adds	r1, r3, #0
 80042ae:	1c18      	adds	r0, r3, #0
 80042b0:	f7fc f8f2 	bl	8000498 <__aeabi_fadd>
 80042b4:	1c03      	adds	r3, r0, #0
 80042b6:	4948      	ldr	r1, [pc, #288]	@ (80043d8 <BT_process_data+0x15c>)
 80042b8:	1c18      	adds	r0, r3, #0
 80042ba:	f7fc fcad 	bl	8000c18 <__aeabi_fmul>
 80042be:	1c03      	adds	r3, r0, #0
 80042c0:	4946      	ldr	r1, [pc, #280]	@ (80043dc <BT_process_data+0x160>)
 80042c2:	1c18      	adds	r0, r3, #0
 80042c4:	f7fc fada 	bl	800087c <__aeabi_fdiv>
 80042c8:	1c03      	adds	r3, r0, #0
 80042ca:	1c1a      	adds	r2, r3, #0
 80042cc:	4b46      	ldr	r3, [pc, #280]	@ (80043e8 <BT_process_data+0x16c>)
 80042ce:	601a      	str	r2, [r3, #0]

    // Compute linear and angular velocity
    VV = (WHEEL_RADIUS * (w_rr + w_ll)) / 2.0f;
 80042d0:	4b45      	ldr	r3, [pc, #276]	@ (80043e8 <BT_process_data+0x16c>)
 80042d2:	681a      	ldr	r2, [r3, #0]
 80042d4:	4b42      	ldr	r3, [pc, #264]	@ (80043e0 <BT_process_data+0x164>)
 80042d6:	681b      	ldr	r3, [r3, #0]
 80042d8:	1c19      	adds	r1, r3, #0
 80042da:	1c10      	adds	r0, r2, #0
 80042dc:	f7fc f8dc 	bl	8000498 <__aeabi_fadd>
 80042e0:	1c03      	adds	r3, r0, #0
 80042e2:	4942      	ldr	r1, [pc, #264]	@ (80043ec <BT_process_data+0x170>)
 80042e4:	1c18      	adds	r0, r3, #0
 80042e6:	f7fc fc97 	bl	8000c18 <__aeabi_fmul>
 80042ea:	1c03      	adds	r3, r0, #0
 80042ec:	2180      	movs	r1, #128	@ 0x80
 80042ee:	05c9      	lsls	r1, r1, #23
 80042f0:	1c18      	adds	r0, r3, #0
 80042f2:	f7fc fac3 	bl	800087c <__aeabi_fdiv>
 80042f6:	1c03      	adds	r3, r0, #0
 80042f8:	1c1a      	adds	r2, r3, #0
 80042fa:	4b3d      	ldr	r3, [pc, #244]	@ (80043f0 <BT_process_data+0x174>)
 80042fc:	601a      	str	r2, [r3, #0]
    WW = (WHEEL_RADIUS * (w_rr - w_ll)) / WHEEL_DISTANCE;
 80042fe:	4b3a      	ldr	r3, [pc, #232]	@ (80043e8 <BT_process_data+0x16c>)
 8004300:	681a      	ldr	r2, [r3, #0]
 8004302:	4b37      	ldr	r3, [pc, #220]	@ (80043e0 <BT_process_data+0x164>)
 8004304:	681b      	ldr	r3, [r3, #0]
 8004306:	1c19      	adds	r1, r3, #0
 8004308:	1c10      	adds	r0, r2, #0
 800430a:	f7fc fddf 	bl	8000ecc <__aeabi_fsub>
 800430e:	1c03      	adds	r3, r0, #0
 8004310:	4936      	ldr	r1, [pc, #216]	@ (80043ec <BT_process_data+0x170>)
 8004312:	1c18      	adds	r0, r3, #0
 8004314:	f7fc fc80 	bl	8000c18 <__aeabi_fmul>
 8004318:	1c03      	adds	r3, r0, #0
 800431a:	4936      	ldr	r1, [pc, #216]	@ (80043f4 <BT_process_data+0x178>)
 800431c:	1c18      	adds	r0, r3, #0
 800431e:	f7fc faad 	bl	800087c <__aeabi_fdiv>
 8004322:	1c03      	adds	r3, r0, #0
 8004324:	1c1a      	adds	r2, r3, #0
 8004326:	4b34      	ldr	r3, [pc, #208]	@ (80043f8 <BT_process_data+0x17c>)
 8004328:	601a      	str	r2, [r3, #0]

    linear_velocity = (uint8_t)((fabsf(VV)*10) + 0.5f);
 800432a:	4b31      	ldr	r3, [pc, #196]	@ (80043f0 <BT_process_data+0x174>)
 800432c:	681b      	ldr	r3, [r3, #0]
 800432e:	005b      	lsls	r3, r3, #1
 8004330:	085b      	lsrs	r3, r3, #1
 8004332:	4932      	ldr	r1, [pc, #200]	@ (80043fc <BT_process_data+0x180>)
 8004334:	1c18      	adds	r0, r3, #0
 8004336:	f7fc fc6f 	bl	8000c18 <__aeabi_fmul>
 800433a:	1c03      	adds	r3, r0, #0
 800433c:	21fc      	movs	r1, #252	@ 0xfc
 800433e:	0589      	lsls	r1, r1, #22
 8004340:	1c18      	adds	r0, r3, #0
 8004342:	f7fc f8a9 	bl	8000498 <__aeabi_fadd>
 8004346:	1c03      	adds	r3, r0, #0
 8004348:	1c18      	adds	r0, r3, #0
 800434a:	f7fc f88d 	bl	8000468 <__aeabi_f2uiz>
 800434e:	0003      	movs	r3, r0
 8004350:	b2da      	uxtb	r2, r3
 8004352:	4b2b      	ldr	r3, [pc, #172]	@ (8004400 <BT_process_data+0x184>)
 8004354:	701a      	strb	r2, [r3, #0]
    angular_velocity = (uint8_t)((fabsf(WW)*10) + 0.5f);
 8004356:	4b28      	ldr	r3, [pc, #160]	@ (80043f8 <BT_process_data+0x17c>)
 8004358:	681b      	ldr	r3, [r3, #0]
 800435a:	005b      	lsls	r3, r3, #1
 800435c:	085b      	lsrs	r3, r3, #1
 800435e:	4927      	ldr	r1, [pc, #156]	@ (80043fc <BT_process_data+0x180>)
 8004360:	1c18      	adds	r0, r3, #0
 8004362:	f7fc fc59 	bl	8000c18 <__aeabi_fmul>
 8004366:	1c03      	adds	r3, r0, #0
 8004368:	21fc      	movs	r1, #252	@ 0xfc
 800436a:	0589      	lsls	r1, r1, #22
 800436c:	1c18      	adds	r0, r3, #0
 800436e:	f7fc f893 	bl	8000498 <__aeabi_fadd>
 8004372:	1c03      	adds	r3, r0, #0
 8004374:	1c18      	adds	r0, r3, #0
 8004376:	f7fc f877 	bl	8000468 <__aeabi_f2uiz>
 800437a:	0003      	movs	r3, r0
 800437c:	b2da      	uxtb	r2, r3
 800437e:	4b21      	ldr	r3, [pc, #132]	@ (8004404 <BT_process_data+0x188>)
 8004380:	701a      	strb	r2, [r3, #0]

    tmp_data = temperature10;
 8004382:	4b21      	ldr	r3, [pc, #132]	@ (8004408 <BT_process_data+0x18c>)
 8004384:	881b      	ldrh	r3, [r3, #0]
 8004386:	b29b      	uxth	r3, r3
 8004388:	b2da      	uxtb	r2, r3
 800438a:	4b20      	ldr	r3, [pc, #128]	@ (800440c <BT_process_data+0x190>)
 800438c:	701a      	strb	r2, [r3, #0]
    //voltage_sent = voltage10;
    voltage_sent = 118;
 800438e:	4b20      	ldr	r3, [pc, #128]	@ (8004410 <BT_process_data+0x194>)
 8004390:	2276      	movs	r2, #118	@ 0x76
 8004392:	701a      	strb	r2, [r3, #0]

    posx_small = (uint8_t)(pos_x_mm & 0xFF);        // byte bajo  (LSB)
 8004394:	4b1f      	ldr	r3, [pc, #124]	@ (8004414 <BT_process_data+0x198>)
 8004396:	2200      	movs	r2, #0
 8004398:	5e9b      	ldrsh	r3, [r3, r2]
 800439a:	b2da      	uxtb	r2, r3
 800439c:	4b1e      	ldr	r3, [pc, #120]	@ (8004418 <BT_process_data+0x19c>)
 800439e:	701a      	strb	r2, [r3, #0]
    posx_big   = (uint8_t)((pos_x_mm >> 8) & 0xFF); // byte alto  (MSB)
 80043a0:	4b1c      	ldr	r3, [pc, #112]	@ (8004414 <BT_process_data+0x198>)
 80043a2:	2200      	movs	r2, #0
 80043a4:	5e9b      	ldrsh	r3, [r3, r2]
 80043a6:	121b      	asrs	r3, r3, #8
 80043a8:	b21b      	sxth	r3, r3
 80043aa:	b2da      	uxtb	r2, r3
 80043ac:	4b1b      	ldr	r3, [pc, #108]	@ (800441c <BT_process_data+0x1a0>)
 80043ae:	701a      	strb	r2, [r3, #0]

    posy_small = (uint8_t)(pos_y_mm & 0xFF);
 80043b0:	4b1b      	ldr	r3, [pc, #108]	@ (8004420 <BT_process_data+0x1a4>)
 80043b2:	2200      	movs	r2, #0
 80043b4:	5e9b      	ldrsh	r3, [r3, r2]
 80043b6:	b2da      	uxtb	r2, r3
 80043b8:	4b1a      	ldr	r3, [pc, #104]	@ (8004424 <BT_process_data+0x1a8>)
 80043ba:	701a      	strb	r2, [r3, #0]
    posy_big   = (uint8_t)((pos_y_mm >> 8) & 0xFF);
 80043bc:	4b18      	ldr	r3, [pc, #96]	@ (8004420 <BT_process_data+0x1a4>)
 80043be:	2200      	movs	r2, #0
 80043c0:	5e9b      	ldrsh	r3, [r3, r2]
 80043c2:	121b      	asrs	r3, r3, #8
 80043c4:	b21b      	sxth	r3, r3
 80043c6:	b2da      	uxtb	r2, r3
 80043c8:	4b17      	ldr	r3, [pc, #92]	@ (8004428 <BT_process_data+0x1ac>)
 80043ca:	701a      	strb	r2, [r3, #0]

}
 80043cc:	46c0      	nop			@ (mov r8, r8)
 80043ce:	46bd      	mov	sp, r7
 80043d0:	bd80      	pop	{r7, pc}
 80043d2:	46c0      	nop			@ (mov r8, r8)
 80043d4:	200000dc 	.word	0x200000dc
 80043d8:	40490fdb 	.word	0x40490fdb
 80043dc:	42700000 	.word	0x42700000
 80043e0:	20000988 	.word	0x20000988
 80043e4:	200000e0 	.word	0x200000e0
 80043e8:	2000098c 	.word	0x2000098c
 80043ec:	3dd1eb85 	.word	0x3dd1eb85
 80043f0:	20000990 	.word	0x20000990
 80043f4:	3eb95810 	.word	0x3eb95810
 80043f8:	20000994 	.word	0x20000994
 80043fc:	41200000 	.word	0x41200000
 8004400:	200000b6 	.word	0x200000b6
 8004404:	200000b7 	.word	0x200000b7
 8004408:	200000ee 	.word	0x200000ee
 800440c:	200000b8 	.word	0x200000b8
 8004410:	200000ba 	.word	0x200000ba
 8004414:	200009a8 	.word	0x200009a8
 8004418:	200000bc 	.word	0x200000bc
 800441c:	200000bb 	.word	0x200000bb
 8004420:	200009aa 	.word	0x200009aa
 8004424:	200000be 	.word	0x200000be
 8004428:	200000bd 	.word	0x200000bd

0800442c <init_emergency_buttons>:

void init_emergency_buttons(void) {
 800442c:	b580      	push	{r7, lr}
 800442e:	af00      	add	r7, sp, #0
    // Enable GPIOC clock
    RCC->AHBENR |= RCC_AHBENR_GPIOCEN;
 8004430:	4b0a      	ldr	r3, [pc, #40]	@ (800445c <init_emergency_buttons+0x30>)
 8004432:	695a      	ldr	r2, [r3, #20]
 8004434:	4b09      	ldr	r3, [pc, #36]	@ (800445c <init_emergency_buttons+0x30>)
 8004436:	2180      	movs	r1, #128	@ 0x80
 8004438:	0309      	lsls	r1, r1, #12
 800443a:	430a      	orrs	r2, r1
 800443c:	615a      	str	r2, [r3, #20]

    // Set PC6 as inputs (MODER = 00)
    GPIOC->MODER &= ~(3 << (6 * 2));
 800443e:	4b08      	ldr	r3, [pc, #32]	@ (8004460 <init_emergency_buttons+0x34>)
 8004440:	681a      	ldr	r2, [r3, #0]
 8004442:	4b07      	ldr	r3, [pc, #28]	@ (8004460 <init_emergency_buttons+0x34>)
 8004444:	4907      	ldr	r1, [pc, #28]	@ (8004464 <init_emergency_buttons+0x38>)
 8004446:	400a      	ands	r2, r1
 8004448:	601a      	str	r2, [r3, #0]

    // Optional: enable pull-downs if buttons are active-high
    GPIOC->PUPDR &= ~(3 << (6 * 2)); // Clear
 800444a:	4b05      	ldr	r3, [pc, #20]	@ (8004460 <init_emergency_buttons+0x34>)
 800444c:	68da      	ldr	r2, [r3, #12]
 800444e:	4b04      	ldr	r3, [pc, #16]	@ (8004460 <init_emergency_buttons+0x34>)
 8004450:	4904      	ldr	r1, [pc, #16]	@ (8004464 <init_emergency_buttons+0x38>)
 8004452:	400a      	ands	r2, r1
 8004454:	60da      	str	r2, [r3, #12]
}
 8004456:	46c0      	nop			@ (mov r8, r8)
 8004458:	46bd      	mov	sp, r7
 800445a:	bd80      	pop	{r7, pc}
 800445c:	40021000 	.word	0x40021000
 8004460:	48000800 	.word	0x48000800
 8004464:	ffffcfff 	.word	0xffffcfff

08004468 <check_emergency_buttons>:
void check_emergency_buttons(void) {
 8004468:	b580      	push	{r7, lr}
 800446a:	af00      	add	r7, sp, #0
    // If PC6 is HIGH
    if ((GPIOC->IDR & (1 << 6))) {
 800446c:	4b06      	ldr	r3, [pc, #24]	@ (8004488 <check_emergency_buttons+0x20>)
 800446e:	691b      	ldr	r3, [r3, #16]
 8004470:	2240      	movs	r2, #64	@ 0x40
 8004472:	4013      	ands	r3, r2
 8004474:	d002      	beq.n	800447c <check_emergency_buttons+0x14>
        emergency_stop();
 8004476:	f000 f80b 	bl	8004490 <emergency_stop>
    }
    else{
    	emergency_on = 0;
    }
}
 800447a:	e002      	b.n	8004482 <check_emergency_buttons+0x1a>
    	emergency_on = 0;
 800447c:	4b03      	ldr	r3, [pc, #12]	@ (800448c <check_emergency_buttons+0x24>)
 800447e:	2200      	movs	r2, #0
 8004480:	701a      	strb	r2, [r3, #0]
}
 8004482:	46c0      	nop			@ (mov r8, r8)
 8004484:	46bd      	mov	sp, r7
 8004486:	bd80      	pop	{r7, pc}
 8004488:	48000800 	.word	0x48000800
 800448c:	20000984 	.word	0x20000984

08004490 <emergency_stop>:
void emergency_stop(void) {
 8004490:	b580      	push	{r7, lr}
 8004492:	af00      	add	r7, sp, #0
    menu_button = 0;
 8004494:	4b06      	ldr	r3, [pc, #24]	@ (80044b0 <emergency_stop+0x20>)
 8004496:	2200      	movs	r2, #0
 8004498:	701a      	strb	r2, [r3, #0]
    emergency_on = 1;
 800449a:	4b06      	ldr	r3, [pc, #24]	@ (80044b4 <emergency_stop+0x24>)
 800449c:	2201      	movs	r2, #1
 800449e:	701a      	strb	r2, [r3, #0]
    reset_references();
 80044a0:	f000 f8a2 	bl	80045e8 <reset_references>
	LED_action = 13;
 80044a4:	4b04      	ldr	r3, [pc, #16]	@ (80044b8 <emergency_stop+0x28>)
 80044a6:	220d      	movs	r2, #13
 80044a8:	701a      	strb	r2, [r3, #0]
}
 80044aa:	46c0      	nop			@ (mov r8, r8)
 80044ac:	46bd      	mov	sp, r7
 80044ae:	bd80      	pop	{r7, pc}
 80044b0:	200000a8 	.word	0x200000a8
 80044b4:	20000984 	.word	0x20000984
 80044b8:	200000ec 	.word	0x200000ec

080044bc <PC7_Button_Init>:

// ----- Initialize PC7 as input -----
void PC7_Button_Init(void) {
 80044bc:	b580      	push	{r7, lr}
 80044be:	af00      	add	r7, sp, #0
    // Enable GPIOC clock
    RCC->AHBENR |= RCC_AHBENR_GPIOCEN;
 80044c0:	4b0e      	ldr	r3, [pc, #56]	@ (80044fc <PC7_Button_Init+0x40>)
 80044c2:	695a      	ldr	r2, [r3, #20]
 80044c4:	4b0d      	ldr	r3, [pc, #52]	@ (80044fc <PC7_Button_Init+0x40>)
 80044c6:	2180      	movs	r1, #128	@ 0x80
 80044c8:	0309      	lsls	r1, r1, #12
 80044ca:	430a      	orrs	r2, r1
 80044cc:	615a      	str	r2, [r3, #20]

    // Set PC7 as input (MODER = 00)
    GPIOC->MODER &= ~(3 << (7*2));
 80044ce:	4b0c      	ldr	r3, [pc, #48]	@ (8004500 <PC7_Button_Init+0x44>)
 80044d0:	681a      	ldr	r2, [r3, #0]
 80044d2:	4b0b      	ldr	r3, [pc, #44]	@ (8004500 <PC7_Button_Init+0x44>)
 80044d4:	490b      	ldr	r1, [pc, #44]	@ (8004504 <PC7_Button_Init+0x48>)
 80044d6:	400a      	ands	r2, r1
 80044d8:	601a      	str	r2, [r3, #0]

    // Optional: enable pull-down or pull-up if needed
    GPIOC->PUPDR &= ~(3 << (7*2));   // clear
 80044da:	4b09      	ldr	r3, [pc, #36]	@ (8004500 <PC7_Button_Init+0x44>)
 80044dc:	68da      	ldr	r2, [r3, #12]
 80044de:	4b08      	ldr	r3, [pc, #32]	@ (8004500 <PC7_Button_Init+0x44>)
 80044e0:	4908      	ldr	r1, [pc, #32]	@ (8004504 <PC7_Button_Init+0x48>)
 80044e2:	400a      	ands	r2, r1
 80044e4:	60da      	str	r2, [r3, #12]
    GPIOC->PUPDR |=  (1 << (7*2));   // pull-up
 80044e6:	4b06      	ldr	r3, [pc, #24]	@ (8004500 <PC7_Button_Init+0x44>)
 80044e8:	68da      	ldr	r2, [r3, #12]
 80044ea:	4b05      	ldr	r3, [pc, #20]	@ (8004500 <PC7_Button_Init+0x44>)
 80044ec:	2180      	movs	r1, #128	@ 0x80
 80044ee:	01c9      	lsls	r1, r1, #7
 80044f0:	430a      	orrs	r2, r1
 80044f2:	60da      	str	r2, [r3, #12]
}
 80044f4:	46c0      	nop			@ (mov r8, r8)
 80044f6:	46bd      	mov	sp, r7
 80044f8:	bd80      	pop	{r7, pc}
 80044fa:	46c0      	nop			@ (mov r8, r8)
 80044fc:	40021000 	.word	0x40021000
 8004500:	48000800 	.word	0x48000800
 8004504:	ffff3fff 	.word	0xffff3fff

08004508 <PC7_Button_Check>:
// ----- Check PC7 periodically -----
void PC7_Button_Check(void) {
 8004508:	b580      	push	{r7, lr}
 800450a:	af00      	add	r7, sp, #0
    if (GPIOC->IDR & (1 << 7)) {  // if PC7 is HIGH
 800450c:	4b07      	ldr	r3, [pc, #28]	@ (800452c <PC7_Button_Check+0x24>)
 800450e:	691b      	ldr	r3, [r3, #16]
 8004510:	2280      	movs	r2, #128	@ 0x80
 8004512:	4013      	ands	r3, r2
 8004514:	d003      	beq.n	800451e <PC7_Button_Check+0x16>
        menu_button = 6;
 8004516:	4b06      	ldr	r3, [pc, #24]	@ (8004530 <PC7_Button_Check+0x28>)
 8004518:	2206      	movs	r2, #6
 800451a:	701a      	strb	r2, [r3, #0]
    }
    else {
        menu_button = 0;          // optional: reset if low
    }
}
 800451c:	e002      	b.n	8004524 <PC7_Button_Check+0x1c>
        menu_button = 0;          // optional: reset if low
 800451e:	4b04      	ldr	r3, [pc, #16]	@ (8004530 <PC7_Button_Check+0x28>)
 8004520:	2200      	movs	r2, #0
 8004522:	701a      	strb	r2, [r3, #0]
}
 8004524:	46c0      	nop			@ (mov r8, r8)
 8004526:	46bd      	mov	sp, r7
 8004528:	bd80      	pop	{r7, pc}
 800452a:	46c0      	nop			@ (mov r8, r8)
 800452c:	48000800 	.word	0x48000800
 8004530:	200000a8 	.word	0x200000a8

08004534 <SelectManualLEDCommand>:

void SelectManualLEDCommand(void) {
 8004534:	b580      	push	{r7, lr}
 8004536:	b082      	sub	sp, #8
 8004538:	af00      	add	r7, sp, #0
    // Default = idle
    int cmd = 0;
 800453a:	2300      	movs	r3, #0
 800453c:	607b      	str	r3, [r7, #4]
    if (y > 30 && abs(x) < 40) {
 800453e:	4b27      	ldr	r3, [pc, #156]	@ (80045dc <SelectManualLEDCommand+0xa8>)
 8004540:	881b      	ldrh	r3, [r3, #0]
 8004542:	b21b      	sxth	r3, r3
 8004544:	2b1e      	cmp	r3, #30
 8004546:	dd0b      	ble.n	8004560 <SelectManualLEDCommand+0x2c>
 8004548:	4b25      	ldr	r3, [pc, #148]	@ (80045e0 <SelectManualLEDCommand+0xac>)
 800454a:	881b      	ldrh	r3, [r3, #0]
 800454c:	b21b      	sxth	r3, r3
 800454e:	17da      	asrs	r2, r3, #31
 8004550:	189b      	adds	r3, r3, r2
 8004552:	4053      	eors	r3, r2
 8004554:	b29b      	uxth	r3, r3
 8004556:	2b27      	cmp	r3, #39	@ 0x27
 8004558:	d802      	bhi.n	8004560 <SelectManualLEDCommand+0x2c>
        // Forward
        cmd = 3;
 800455a:	2303      	movs	r3, #3
 800455c:	607b      	str	r3, [r7, #4]
 800455e:	e034      	b.n	80045ca <SelectManualLEDCommand+0x96>
    }
    else if (y < -30 && abs(x) < 40) {
 8004560:	4b1e      	ldr	r3, [pc, #120]	@ (80045dc <SelectManualLEDCommand+0xa8>)
 8004562:	881b      	ldrh	r3, [r3, #0]
 8004564:	b21b      	sxth	r3, r3
 8004566:	331e      	adds	r3, #30
 8004568:	da0b      	bge.n	8004582 <SelectManualLEDCommand+0x4e>
 800456a:	4b1d      	ldr	r3, [pc, #116]	@ (80045e0 <SelectManualLEDCommand+0xac>)
 800456c:	881b      	ldrh	r3, [r3, #0]
 800456e:	b21b      	sxth	r3, r3
 8004570:	17da      	asrs	r2, r3, #31
 8004572:	189b      	adds	r3, r3, r2
 8004574:	4053      	eors	r3, r2
 8004576:	b29b      	uxth	r3, r3
 8004578:	2b27      	cmp	r3, #39	@ 0x27
 800457a:	d802      	bhi.n	8004582 <SelectManualLEDCommand+0x4e>
        // Backward
        cmd = 4;
 800457c:	2304      	movs	r3, #4
 800457e:	607b      	str	r3, [r7, #4]
 8004580:	e023      	b.n	80045ca <SelectManualLEDCommand+0x96>
    }
    else if (x < -30 /*&& abs(y) < 40*/) {
 8004582:	4b17      	ldr	r3, [pc, #92]	@ (80045e0 <SelectManualLEDCommand+0xac>)
 8004584:	881b      	ldrh	r3, [r3, #0]
 8004586:	b21b      	sxth	r3, r3
 8004588:	331e      	adds	r3, #30
 800458a:	da02      	bge.n	8004592 <SelectManualLEDCommand+0x5e>
        // Left
        cmd = 5;
 800458c:	2305      	movs	r3, #5
 800458e:	607b      	str	r3, [r7, #4]
 8004590:	e01b      	b.n	80045ca <SelectManualLEDCommand+0x96>
    }
    else if (x > 30 /*&& abs(y) < 40*/) {
 8004592:	4b13      	ldr	r3, [pc, #76]	@ (80045e0 <SelectManualLEDCommand+0xac>)
 8004594:	881b      	ldrh	r3, [r3, #0]
 8004596:	b21b      	sxth	r3, r3
 8004598:	2b1e      	cmp	r3, #30
 800459a:	dd02      	ble.n	80045a2 <SelectManualLEDCommand+0x6e>
        // Right
        cmd = 6;
 800459c:	2306      	movs	r3, #6
 800459e:	607b      	str	r3, [r7, #4]
 80045a0:	e013      	b.n	80045ca <SelectManualLEDCommand+0x96>
    }
    else if (abs(x) < 30 && abs(y) < 30) {
 80045a2:	4b0f      	ldr	r3, [pc, #60]	@ (80045e0 <SelectManualLEDCommand+0xac>)
 80045a4:	881b      	ldrh	r3, [r3, #0]
 80045a6:	b21b      	sxth	r3, r3
 80045a8:	17da      	asrs	r2, r3, #31
 80045aa:	189b      	adds	r3, r3, r2
 80045ac:	4053      	eors	r3, r2
 80045ae:	b29b      	uxth	r3, r3
 80045b0:	2b1d      	cmp	r3, #29
 80045b2:	d80a      	bhi.n	80045ca <SelectManualLEDCommand+0x96>
 80045b4:	4b09      	ldr	r3, [pc, #36]	@ (80045dc <SelectManualLEDCommand+0xa8>)
 80045b6:	881b      	ldrh	r3, [r3, #0]
 80045b8:	b21b      	sxth	r3, r3
 80045ba:	17da      	asrs	r2, r3, #31
 80045bc:	189b      	adds	r3, r3, r2
 80045be:	4053      	eors	r3, r2
 80045c0:	b29b      	uxth	r3, r3
 80045c2:	2b1d      	cmp	r3, #29
 80045c4:	d801      	bhi.n	80045ca <SelectManualLEDCommand+0x96>
        // Deadzone  Idle
        cmd = 0;
 80045c6:	2300      	movs	r3, #0
 80045c8:	607b      	str	r3, [r7, #4]
    }
    LED_action = cmd;
 80045ca:	687b      	ldr	r3, [r7, #4]
 80045cc:	b2da      	uxtb	r2, r3
 80045ce:	4b05      	ldr	r3, [pc, #20]	@ (80045e4 <SelectManualLEDCommand+0xb0>)
 80045d0:	701a      	strb	r2, [r3, #0]
}
 80045d2:	46c0      	nop			@ (mov r8, r8)
 80045d4:	46bd      	mov	sp, r7
 80045d6:	b002      	add	sp, #8
 80045d8:	bd80      	pop	{r7, pc}
 80045da:	46c0      	nop			@ (mov r8, r8)
 80045dc:	2000099a 	.word	0x2000099a
 80045e0:	20000998 	.word	0x20000998
 80045e4:	200000ec 	.word	0x200000ec

080045e8 <reset_references>:
void reset_references(void){
 80045e8:	b580      	push	{r7, lr}
 80045ea:	af00      	add	r7, sp, #0
	PID_PWM(0,0);
 80045ec:	2200      	movs	r2, #0
 80045ee:	2300      	movs	r3, #0
 80045f0:	1c11      	adds	r1, r2, #0
 80045f2:	1c18      	adds	r0, r3, #0
 80045f4:	f000 fa00 	bl	80049f8 <PID_PWM>
	left_RPWM(0);
 80045f8:	2380      	movs	r3, #128	@ 0x80
 80045fa:	05db      	lsls	r3, r3, #23
 80045fc:	2200      	movs	r2, #0
 80045fe:	639a      	str	r2, [r3, #56]	@ 0x38
	left_LPWM(0);
 8004600:	2380      	movs	r3, #128	@ 0x80
 8004602:	05db      	lsls	r3, r3, #23
 8004604:	2200      	movs	r2, #0
 8004606:	635a      	str	r2, [r3, #52]	@ 0x34
	right_RPWM(0);
 8004608:	2380      	movs	r3, #128	@ 0x80
 800460a:	05db      	lsls	r3, r3, #23
 800460c:	2200      	movs	r2, #0
 800460e:	641a      	str	r2, [r3, #64]	@ 0x40
	right_LPWM(0);
 8004610:	2380      	movs	r3, #128	@ 0x80
 8004612:	05db      	lsls	r3, r3, #23
 8004614:	2200      	movs	r2, #0
 8004616:	63da      	str	r2, [r3, #60]	@ 0x3c
	rpm_ref_left=0;
 8004618:	4b11      	ldr	r3, [pc, #68]	@ (8004660 <reset_references+0x78>)
 800461a:	2200      	movs	r2, #0
 800461c:	601a      	str	r2, [r3, #0]
	rpm_ref_right=0;
 800461e:	4b11      	ldr	r3, [pc, #68]	@ (8004664 <reset_references+0x7c>)
 8004620:	2200      	movs	r2, #0
 8004622:	601a      	str	r2, [r3, #0]
	V_current = 0.0f;
 8004624:	4b10      	ldr	r3, [pc, #64]	@ (8004668 <reset_references+0x80>)
 8004626:	2200      	movs	r2, #0
 8004628:	601a      	str	r2, [r3, #0]
	W_current = 0.0f;
 800462a:	4b10      	ldr	r3, [pc, #64]	@ (800466c <reset_references+0x84>)
 800462c:	2200      	movs	r2, #0
 800462e:	601a      	str	r2, [r3, #0]
	last_position_error = 0.0f;
 8004630:	4b0f      	ldr	r3, [pc, #60]	@ (8004670 <reset_references+0x88>)
 8004632:	2200      	movs	r2, #0
 8004634:	601a      	str	r2, [r3, #0]
	exit_timer = 0;
 8004636:	4b0f      	ldr	r3, [pc, #60]	@ (8004674 <reset_references+0x8c>)
 8004638:	2200      	movs	r2, #0
 800463a:	801a      	strh	r2, [r3, #0]
	station_done = true;     // back to normal mode
 800463c:	4b0e      	ldr	r3, [pc, #56]	@ (8004678 <reset_references+0x90>)
 800463e:	2201      	movs	r2, #1
 8004640:	701a      	strb	r2, [r3, #0]
	leaving_station = false;  // fully reset
 8004642:	4b0e      	ldr	r3, [pc, #56]	@ (800467c <reset_references+0x94>)
 8004644:	2200      	movs	r2, #0
 8004646:	701a      	strb	r2, [r3, #0]
	counter_stations = 1;
 8004648:	4b0d      	ldr	r3, [pc, #52]	@ (8004680 <reset_references+0x98>)
 800464a:	2201      	movs	r2, #1
 800464c:	701a      	strb	r2, [r3, #0]
	AMR_Stop();             // <- resets AMR state machine, indices, odometry via Reset_x_y()
 800464e:	f7fd f88f 	bl	8001770 <AMR_Stop>
	amr_initialized = 0;    // allow re-init next time AMR is selected
 8004652:	4b0c      	ldr	r3, [pc, #48]	@ (8004684 <reset_references+0x9c>)
 8004654:	2200      	movs	r2, #0
 8004656:	701a      	strb	r2, [r3, #0]


}
 8004658:	46c0      	nop			@ (mov r8, r8)
 800465a:	46bd      	mov	sp, r7
 800465c:	bd80      	pop	{r7, pc}
 800465e:	46c0      	nop			@ (mov r8, r8)
 8004660:	20000a0c 	.word	0x20000a0c
 8004664:	20000a10 	.word	0x20000a10
 8004668:	20000964 	.word	0x20000964
 800466c:	20000968 	.word	0x20000968
 8004670:	2000096c 	.word	0x2000096c
 8004674:	20000978 	.word	0x20000978
 8004678:	20000013 	.word	0x20000013
 800467c:	20000976 	.word	0x20000976
 8004680:	20000014 	.word	0x20000014
 8004684:	2000099c 	.word	0x2000099c

08004688 <pwm_init>:
 OUTPUT: MACROS
 */

#include "motor_pwm.h"

void pwm_init(void) {
 8004688:	b580      	push	{r7, lr}
 800468a:	af00      	add	r7, sp, #0
    // --- Enable clocks ---
    RCC->AHBENR  |= RCC_AHBENR_GPIOAEN | RCC_AHBENR_GPIOBEN; // GPIOA + GPIOB
 800468c:	4b4f      	ldr	r3, [pc, #316]	@ (80047cc <pwm_init+0x144>)
 800468e:	695a      	ldr	r2, [r3, #20]
 8004690:	4b4e      	ldr	r3, [pc, #312]	@ (80047cc <pwm_init+0x144>)
 8004692:	21c0      	movs	r1, #192	@ 0xc0
 8004694:	02c9      	lsls	r1, r1, #11
 8004696:	430a      	orrs	r2, r1
 8004698:	615a      	str	r2, [r3, #20]
    RCC->APB1ENR |= RCC_APB1ENR_TIM2EN;                      // TIM2 clock
 800469a:	4b4c      	ldr	r3, [pc, #304]	@ (80047cc <pwm_init+0x144>)
 800469c:	69da      	ldr	r2, [r3, #28]
 800469e:	4b4b      	ldr	r3, [pc, #300]	@ (80047cc <pwm_init+0x144>)
 80046a0:	2101      	movs	r1, #1
 80046a2:	430a      	orrs	r2, r1
 80046a4:	61da      	str	r2, [r3, #28]

    // --- Configure PA0, PA1 (CH1, CH2) ---
    GPIOA->MODER &= ~((0b11 << 0) | (0b11 << 2));
 80046a6:	2390      	movs	r3, #144	@ 0x90
 80046a8:	05db      	lsls	r3, r3, #23
 80046aa:	681a      	ldr	r2, [r3, #0]
 80046ac:	2390      	movs	r3, #144	@ 0x90
 80046ae:	05db      	lsls	r3, r3, #23
 80046b0:	210f      	movs	r1, #15
 80046b2:	438a      	bics	r2, r1
 80046b4:	601a      	str	r2, [r3, #0]
    GPIOA->MODER |=  ((0b10 << 0) | (0b10 << 2));            // AF mode
 80046b6:	2390      	movs	r3, #144	@ 0x90
 80046b8:	05db      	lsls	r3, r3, #23
 80046ba:	681a      	ldr	r2, [r3, #0]
 80046bc:	2390      	movs	r3, #144	@ 0x90
 80046be:	05db      	lsls	r3, r3, #23
 80046c0:	210a      	movs	r1, #10
 80046c2:	430a      	orrs	r2, r1
 80046c4:	601a      	str	r2, [r3, #0]
    GPIOA->OTYPER &= ~((1 << 0) | (1 << 1));
 80046c6:	2390      	movs	r3, #144	@ 0x90
 80046c8:	05db      	lsls	r3, r3, #23
 80046ca:	685a      	ldr	r2, [r3, #4]
 80046cc:	2390      	movs	r3, #144	@ 0x90
 80046ce:	05db      	lsls	r3, r3, #23
 80046d0:	2103      	movs	r1, #3
 80046d2:	438a      	bics	r2, r1
 80046d4:	605a      	str	r2, [r3, #4]
    GPIOA->OSPEEDR |= ((0b11 << 0) | (0b11 << 2));
 80046d6:	2390      	movs	r3, #144	@ 0x90
 80046d8:	05db      	lsls	r3, r3, #23
 80046da:	689a      	ldr	r2, [r3, #8]
 80046dc:	2390      	movs	r3, #144	@ 0x90
 80046de:	05db      	lsls	r3, r3, #23
 80046e0:	210f      	movs	r1, #15
 80046e2:	430a      	orrs	r2, r1
 80046e4:	609a      	str	r2, [r3, #8]
    GPIOA->AFR[0] &= ~((0xF << (0*4)) | (0xF << (1*4)));
 80046e6:	2390      	movs	r3, #144	@ 0x90
 80046e8:	05db      	lsls	r3, r3, #23
 80046ea:	6a1a      	ldr	r2, [r3, #32]
 80046ec:	2390      	movs	r3, #144	@ 0x90
 80046ee:	05db      	lsls	r3, r3, #23
 80046f0:	21ff      	movs	r1, #255	@ 0xff
 80046f2:	438a      	bics	r2, r1
 80046f4:	621a      	str	r2, [r3, #32]
    GPIOA->AFR[0] |=  ((2 << (0*4)) | (2 << (1*4)));         // AF2 = TIM2
 80046f6:	2390      	movs	r3, #144	@ 0x90
 80046f8:	05db      	lsls	r3, r3, #23
 80046fa:	6a1a      	ldr	r2, [r3, #32]
 80046fc:	2390      	movs	r3, #144	@ 0x90
 80046fe:	05db      	lsls	r3, r3, #23
 8004700:	2122      	movs	r1, #34	@ 0x22
 8004702:	430a      	orrs	r2, r1
 8004704:	621a      	str	r2, [r3, #32]

    // --- Configure PB10, PB11 (CH3, CH4) ---
    GPIOB->MODER &= ~((0b11 << (10*2)) | (0b11 << (11*2)));
 8004706:	4b32      	ldr	r3, [pc, #200]	@ (80047d0 <pwm_init+0x148>)
 8004708:	681a      	ldr	r2, [r3, #0]
 800470a:	4b31      	ldr	r3, [pc, #196]	@ (80047d0 <pwm_init+0x148>)
 800470c:	4931      	ldr	r1, [pc, #196]	@ (80047d4 <pwm_init+0x14c>)
 800470e:	400a      	ands	r2, r1
 8004710:	601a      	str	r2, [r3, #0]
    GPIOB->MODER |=  ((0b10 << (10*2)) | (0b10 << (11*2)));  // AF mode
 8004712:	4b2f      	ldr	r3, [pc, #188]	@ (80047d0 <pwm_init+0x148>)
 8004714:	681a      	ldr	r2, [r3, #0]
 8004716:	4b2e      	ldr	r3, [pc, #184]	@ (80047d0 <pwm_init+0x148>)
 8004718:	21a0      	movs	r1, #160	@ 0xa0
 800471a:	0409      	lsls	r1, r1, #16
 800471c:	430a      	orrs	r2, r1
 800471e:	601a      	str	r2, [r3, #0]
    GPIOB->OTYPER &= ~((1 << 10) | (1 << 11));
 8004720:	4b2b      	ldr	r3, [pc, #172]	@ (80047d0 <pwm_init+0x148>)
 8004722:	685a      	ldr	r2, [r3, #4]
 8004724:	4b2a      	ldr	r3, [pc, #168]	@ (80047d0 <pwm_init+0x148>)
 8004726:	492c      	ldr	r1, [pc, #176]	@ (80047d8 <pwm_init+0x150>)
 8004728:	400a      	ands	r2, r1
 800472a:	605a      	str	r2, [r3, #4]
    GPIOB->OSPEEDR |= ((0b11 << (10*2)) | (0b11 << (11*2)));
 800472c:	4b28      	ldr	r3, [pc, #160]	@ (80047d0 <pwm_init+0x148>)
 800472e:	689a      	ldr	r2, [r3, #8]
 8004730:	4b27      	ldr	r3, [pc, #156]	@ (80047d0 <pwm_init+0x148>)
 8004732:	21f0      	movs	r1, #240	@ 0xf0
 8004734:	0409      	lsls	r1, r1, #16
 8004736:	430a      	orrs	r2, r1
 8004738:	609a      	str	r2, [r3, #8]
    GPIOB->AFR[1] &= ~((0xF << ((10-8)*4)) | (0xF << ((11-8)*4)));
 800473a:	4b25      	ldr	r3, [pc, #148]	@ (80047d0 <pwm_init+0x148>)
 800473c:	6a5a      	ldr	r2, [r3, #36]	@ 0x24
 800473e:	4b24      	ldr	r3, [pc, #144]	@ (80047d0 <pwm_init+0x148>)
 8004740:	4926      	ldr	r1, [pc, #152]	@ (80047dc <pwm_init+0x154>)
 8004742:	400a      	ands	r2, r1
 8004744:	625a      	str	r2, [r3, #36]	@ 0x24
    GPIOB->AFR[1] |=  ((2 << ((10-8)*4)) | (2 << ((11-8)*4))); // AF2 = TIM2
 8004746:	4b22      	ldr	r3, [pc, #136]	@ (80047d0 <pwm_init+0x148>)
 8004748:	6a5a      	ldr	r2, [r3, #36]	@ 0x24
 800474a:	4b21      	ldr	r3, [pc, #132]	@ (80047d0 <pwm_init+0x148>)
 800474c:	2188      	movs	r1, #136	@ 0x88
 800474e:	0189      	lsls	r1, r1, #6
 8004750:	430a      	orrs	r2, r1
 8004752:	625a      	str	r2, [r3, #36]	@ 0x24

    // --- Configure TIM2 (all 4 channels) ---
    TIM2->PSC = 8 - 1;       // 1 MHz timer clock
 8004754:	2380      	movs	r3, #128	@ 0x80
 8004756:	05db      	lsls	r3, r3, #23
 8004758:	2207      	movs	r2, #7
 800475a:	629a      	str	r2, [r3, #40]	@ 0x28
    TIM2->ARR = 1000 - 1;    // 1 kHz PWM
 800475c:	2380      	movs	r3, #128	@ 0x80
 800475e:	05db      	lsls	r3, r3, #23
 8004760:	4a1f      	ldr	r2, [pc, #124]	@ (80047e0 <pwm_init+0x158>)
 8004762:	62da      	str	r2, [r3, #44]	@ 0x2c

    // PWM mode 1 on all channels
    TIM2->CCMR1 &= ~((TIM_CCMR1_OC1M) | (TIM_CCMR1_OC2M));
 8004764:	2380      	movs	r3, #128	@ 0x80
 8004766:	05db      	lsls	r3, r3, #23
 8004768:	699a      	ldr	r2, [r3, #24]
 800476a:	2380      	movs	r3, #128	@ 0x80
 800476c:	05db      	lsls	r3, r3, #23
 800476e:	491d      	ldr	r1, [pc, #116]	@ (80047e4 <pwm_init+0x15c>)
 8004770:	400a      	ands	r2, r1
 8004772:	619a      	str	r2, [r3, #24]
    TIM2->CCMR1 |= ((6 << TIM_CCMR1_OC1M_Pos) | (6 << TIM_CCMR1_OC2M_Pos));
 8004774:	2380      	movs	r3, #128	@ 0x80
 8004776:	05db      	lsls	r3, r3, #23
 8004778:	699a      	ldr	r2, [r3, #24]
 800477a:	2380      	movs	r3, #128	@ 0x80
 800477c:	05db      	lsls	r3, r3, #23
 800477e:	491a      	ldr	r1, [pc, #104]	@ (80047e8 <pwm_init+0x160>)
 8004780:	430a      	orrs	r2, r1
 8004782:	619a      	str	r2, [r3, #24]

    TIM2->CCMR2 &= ~((TIM_CCMR2_OC3M) | (TIM_CCMR2_OC4M));
 8004784:	2380      	movs	r3, #128	@ 0x80
 8004786:	05db      	lsls	r3, r3, #23
 8004788:	69da      	ldr	r2, [r3, #28]
 800478a:	2380      	movs	r3, #128	@ 0x80
 800478c:	05db      	lsls	r3, r3, #23
 800478e:	4915      	ldr	r1, [pc, #84]	@ (80047e4 <pwm_init+0x15c>)
 8004790:	400a      	ands	r2, r1
 8004792:	61da      	str	r2, [r3, #28]
    TIM2->CCMR2 |= ((6 << TIM_CCMR2_OC3M_Pos) | (6 << TIM_CCMR2_OC4M_Pos));
 8004794:	2380      	movs	r3, #128	@ 0x80
 8004796:	05db      	lsls	r3, r3, #23
 8004798:	69da      	ldr	r2, [r3, #28]
 800479a:	2380      	movs	r3, #128	@ 0x80
 800479c:	05db      	lsls	r3, r3, #23
 800479e:	4912      	ldr	r1, [pc, #72]	@ (80047e8 <pwm_init+0x160>)
 80047a0:	430a      	orrs	r2, r1
 80047a2:	61da      	str	r2, [r3, #28]

    // Enable all 4 outputs
    TIM2->CCER |= (TIM_CCER_CC1E | TIM_CCER_CC2E | TIM_CCER_CC3E | TIM_CCER_CC4E);
 80047a4:	2380      	movs	r3, #128	@ 0x80
 80047a6:	05db      	lsls	r3, r3, #23
 80047a8:	6a1a      	ldr	r2, [r3, #32]
 80047aa:	2380      	movs	r3, #128	@ 0x80
 80047ac:	05db      	lsls	r3, r3, #23
 80047ae:	490f      	ldr	r1, [pc, #60]	@ (80047ec <pwm_init+0x164>)
 80047b0:	430a      	orrs	r2, r1
 80047b2:	621a      	str	r2, [r3, #32]

    TIM2->CR1 |= TIM_CR1_CEN;  // Enable TIM2
 80047b4:	2380      	movs	r3, #128	@ 0x80
 80047b6:	05db      	lsls	r3, r3, #23
 80047b8:	681a      	ldr	r2, [r3, #0]
 80047ba:	2380      	movs	r3, #128	@ 0x80
 80047bc:	05db      	lsls	r3, r3, #23
 80047be:	2101      	movs	r1, #1
 80047c0:	430a      	orrs	r2, r1
 80047c2:	601a      	str	r2, [r3, #0]
}
 80047c4:	46c0      	nop			@ (mov r8, r8)
 80047c6:	46bd      	mov	sp, r7
 80047c8:	bd80      	pop	{r7, pc}
 80047ca:	46c0      	nop			@ (mov r8, r8)
 80047cc:	40021000 	.word	0x40021000
 80047d0:	48000400 	.word	0x48000400
 80047d4:	ff0fffff 	.word	0xff0fffff
 80047d8:	fffff3ff 	.word	0xfffff3ff
 80047dc:	ffff00ff 	.word	0xffff00ff
 80047e0:	000003e7 	.word	0x000003e7
 80047e4:	ffff8f8f 	.word	0xffff8f8f
 80047e8:	00006060 	.word	0x00006060
 80047ec:	00001111 	.word	0x00001111

080047f0 <Odometry_Init>:
int16_t rounded_yaw_relative = 0;
float yaw_zero = 0;


// -------- Initialization --------
void Odometry_Init(void){
 80047f0:	b580      	push	{r7, lr}
 80047f2:	af00      	add	r7, sp, #0
    pos_x = 0.0f;
 80047f4:	4b0b      	ldr	r3, [pc, #44]	@ (8004824 <Odometry_Init+0x34>)
 80047f6:	2200      	movs	r2, #0
 80047f8:	601a      	str	r2, [r3, #0]
    pos_y = 0.0f;
 80047fa:	4b0b      	ldr	r3, [pc, #44]	@ (8004828 <Odometry_Init+0x38>)
 80047fc:	2200      	movs	r2, #0
 80047fe:	601a      	str	r2, [r3, #0]
    pos_x_mm = 0;
 8004800:	4b0a      	ldr	r3, [pc, #40]	@ (800482c <Odometry_Init+0x3c>)
 8004802:	2200      	movs	r2, #0
 8004804:	801a      	strh	r2, [r3, #0]
    pos_y_mm = 0;
 8004806:	4b0a      	ldr	r3, [pc, #40]	@ (8004830 <Odometry_Init+0x40>)
 8004808:	2200      	movs	r2, #0
 800480a:	801a      	strh	r2, [r3, #0]
	rounded_yaw_relative = (int16_t)yaw_relative;
 800480c:	4b09      	ldr	r3, [pc, #36]	@ (8004834 <Odometry_Init+0x44>)
 800480e:	681b      	ldr	r3, [r3, #0]
 8004810:	1c18      	adds	r0, r3, #0
 8004812:	f7fc fdd5 	bl	80013c0 <__aeabi_f2iz>
 8004816:	0003      	movs	r3, r0
 8004818:	b21a      	sxth	r2, r3
 800481a:	4b07      	ldr	r3, [pc, #28]	@ (8004838 <Odometry_Init+0x48>)
 800481c:	801a      	strh	r2, [r3, #0]

}
 800481e:	46c0      	nop			@ (mov r8, r8)
 8004820:	46bd      	mov	sp, r7
 8004822:	bd80      	pop	{r7, pc}
 8004824:	200009a0 	.word	0x200009a0
 8004828:	200009a4 	.word	0x200009a4
 800482c:	200009a8 	.word	0x200009a8
 8004830:	200009aa 	.word	0x200009aa
 8004834:	200009b0 	.word	0x200009b0
 8004838:	200009b4 	.word	0x200009b4

0800483c <Reset_x_y>:

void Reset_x_y(void){
 800483c:	b580      	push	{r7, lr}
 800483e:	af00      	add	r7, sp, #0
	yaw_zero = yaw;
 8004840:	4b0f      	ldr	r3, [pc, #60]	@ (8004880 <Reset_x_y+0x44>)
 8004842:	681a      	ldr	r2, [r3, #0]
 8004844:	4b0f      	ldr	r3, [pc, #60]	@ (8004884 <Reset_x_y+0x48>)
 8004846:	601a      	str	r2, [r3, #0]
    pos_x = 0.0f;
 8004848:	4b0f      	ldr	r3, [pc, #60]	@ (8004888 <Reset_x_y+0x4c>)
 800484a:	2200      	movs	r2, #0
 800484c:	601a      	str	r2, [r3, #0]
    pos_y = 0.0f;
 800484e:	4b0f      	ldr	r3, [pc, #60]	@ (800488c <Reset_x_y+0x50>)
 8004850:	2200      	movs	r2, #0
 8004852:	601a      	str	r2, [r3, #0]
    pos_x_mm = 0;
 8004854:	4b0e      	ldr	r3, [pc, #56]	@ (8004890 <Reset_x_y+0x54>)
 8004856:	2200      	movs	r2, #0
 8004858:	801a      	strh	r2, [r3, #0]
    pos_y_mm = 0;
 800485a:	4b0e      	ldr	r3, [pc, #56]	@ (8004894 <Reset_x_y+0x58>)
 800485c:	2200      	movs	r2, #0
 800485e:	801a      	strh	r2, [r3, #0]
	yaw_relative = yaw - yaw_zero;
 8004860:	4b07      	ldr	r3, [pc, #28]	@ (8004880 <Reset_x_y+0x44>)
 8004862:	681a      	ldr	r2, [r3, #0]
 8004864:	4b07      	ldr	r3, [pc, #28]	@ (8004884 <Reset_x_y+0x48>)
 8004866:	681b      	ldr	r3, [r3, #0]
 8004868:	1c19      	adds	r1, r3, #0
 800486a:	1c10      	adds	r0, r2, #0
 800486c:	f7fc fb2e 	bl	8000ecc <__aeabi_fsub>
 8004870:	1c03      	adds	r3, r0, #0
 8004872:	1c1a      	adds	r2, r3, #0
 8004874:	4b08      	ldr	r3, [pc, #32]	@ (8004898 <Reset_x_y+0x5c>)
 8004876:	601a      	str	r2, [r3, #0]

}
 8004878:	46c0      	nop			@ (mov r8, r8)
 800487a:	46bd      	mov	sp, r7
 800487c:	bd80      	pop	{r7, pc}
 800487e:	46c0      	nop			@ (mov r8, r8)
 8004880:	200008fc 	.word	0x200008fc
 8004884:	200009b8 	.word	0x200009b8
 8004888:	200009a0 	.word	0x200009a0
 800488c:	200009a4 	.word	0x200009a4
 8004890:	200009a8 	.word	0x200009a8
 8004894:	200009aa 	.word	0x200009aa
 8004898:	200009b0 	.word	0x200009b0

0800489c <Odometry_Update>:


// -------- Update every 10 ms --------
void Odometry_Update(void){
 800489c:	b580      	push	{r7, lr}
 800489e:	b086      	sub	sp, #24
 80048a0:	af00      	add	r7, sp, #0
    // 1. Convert raw pulses  wheel linear distance (meters)
    //    arc = (pulses / 500) * 2R
    float meters_per_pulse = (TWO_PI * WHEEL_RADIUS) / PULSES_PER_REV;
 80048a2:	4b47      	ldr	r3, [pc, #284]	@ (80049c0 <Odometry_Update+0x124>)
 80048a4:	617b      	str	r3, [r7, #20]
    float dL = delta_Pos1 * meters_per_pulse;
 80048a6:	4b47      	ldr	r3, [pc, #284]	@ (80049c4 <Odometry_Update+0x128>)
 80048a8:	681b      	ldr	r3, [r3, #0]
 80048aa:	1c19      	adds	r1, r3, #0
 80048ac:	6978      	ldr	r0, [r7, #20]
 80048ae:	f7fc f9b3 	bl	8000c18 <__aeabi_fmul>
 80048b2:	1c03      	adds	r3, r0, #0
 80048b4:	613b      	str	r3, [r7, #16]
    float dR = delta_Pos2 * meters_per_pulse;
 80048b6:	4b44      	ldr	r3, [pc, #272]	@ (80049c8 <Odometry_Update+0x12c>)
 80048b8:	681b      	ldr	r3, [r3, #0]
 80048ba:	1c19      	adds	r1, r3, #0
 80048bc:	6978      	ldr	r0, [r7, #20]
 80048be:	f7fc f9ab 	bl	8000c18 <__aeabi_fmul>
 80048c2:	1c03      	adds	r3, r0, #0
 80048c4:	60fb      	str	r3, [r7, #12]

    // 2. Robot forward and angular displacement
    float dCenter = 0.5f * (dL + dR);
 80048c6:	68f9      	ldr	r1, [r7, #12]
 80048c8:	6938      	ldr	r0, [r7, #16]
 80048ca:	f7fb fde5 	bl	8000498 <__aeabi_fadd>
 80048ce:	1c03      	adds	r3, r0, #0
 80048d0:	21fc      	movs	r1, #252	@ 0xfc
 80048d2:	0589      	lsls	r1, r1, #22
 80048d4:	1c18      	adds	r0, r3, #0
 80048d6:	f7fc f99f 	bl	8000c18 <__aeabi_fmul>
 80048da:	1c03      	adds	r3, r0, #0
 80048dc:	60bb      	str	r3, [r7, #8]
    // float dTheta  = (dR - dL) / WHEEL_DISTANCE;   // not used since IMU provides yaw

    // 6. Rounded yaw for sending
    rounded_yaw = (int16_t)yaw;
 80048de:	4b3b      	ldr	r3, [pc, #236]	@ (80049cc <Odometry_Update+0x130>)
 80048e0:	681b      	ldr	r3, [r3, #0]
 80048e2:	1c18      	adds	r0, r3, #0
 80048e4:	f7fc fd6c 	bl	80013c0 <__aeabi_f2iz>
 80048e8:	0003      	movs	r3, r0
 80048ea:	b21a      	sxth	r2, r3
 80048ec:	4b38      	ldr	r3, [pc, #224]	@ (80049d0 <Odometry_Update+0x134>)
 80048ee:	801a      	strh	r2, [r3, #0]
	yaw_relative = yaw - yaw_zero;
 80048f0:	4b36      	ldr	r3, [pc, #216]	@ (80049cc <Odometry_Update+0x130>)
 80048f2:	681a      	ldr	r2, [r3, #0]
 80048f4:	4b37      	ldr	r3, [pc, #220]	@ (80049d4 <Odometry_Update+0x138>)
 80048f6:	681b      	ldr	r3, [r3, #0]
 80048f8:	1c19      	adds	r1, r3, #0
 80048fa:	1c10      	adds	r0, r2, #0
 80048fc:	f7fc fae6 	bl	8000ecc <__aeabi_fsub>
 8004900:	1c03      	adds	r3, r0, #0
 8004902:	1c1a      	adds	r2, r3, #0
 8004904:	4b34      	ldr	r3, [pc, #208]	@ (80049d8 <Odometry_Update+0x13c>)
 8004906:	601a      	str	r2, [r3, #0]
	rounded_yaw_relative = (int16_t)yaw_relative;
 8004908:	4b33      	ldr	r3, [pc, #204]	@ (80049d8 <Odometry_Update+0x13c>)
 800490a:	681b      	ldr	r3, [r3, #0]
 800490c:	1c18      	adds	r0, r3, #0
 800490e:	f7fc fd57 	bl	80013c0 <__aeabi_f2iz>
 8004912:	0003      	movs	r3, r0
 8004914:	b21a      	sxth	r2, r3
 8004916:	4b31      	ldr	r3, [pc, #196]	@ (80049dc <Odometry_Update+0x140>)
 8004918:	801a      	strh	r2, [r3, #0]

    // 3. Convert yaw(deg)  radians
    float yaw_rad = yaw_relative * DEG_TO_RAD;
 800491a:	4b2f      	ldr	r3, [pc, #188]	@ (80049d8 <Odometry_Update+0x13c>)
 800491c:	681b      	ldr	r3, [r3, #0]
 800491e:	4930      	ldr	r1, [pc, #192]	@ (80049e0 <Odometry_Update+0x144>)
 8004920:	1c18      	adds	r0, r3, #0
 8004922:	f7fc f979 	bl	8000c18 <__aeabi_fmul>
 8004926:	1c03      	adds	r3, r0, #0
 8004928:	607b      	str	r3, [r7, #4]

    // 4. Update global position
    pos_x += dCenter * cosf(yaw_rad);
 800492a:	687b      	ldr	r3, [r7, #4]
 800492c:	1c18      	adds	r0, r3, #0
 800492e:	f000 ff35 	bl	800579c <cosf>
 8004932:	1c03      	adds	r3, r0, #0
 8004934:	68b9      	ldr	r1, [r7, #8]
 8004936:	1c18      	adds	r0, r3, #0
 8004938:	f7fc f96e 	bl	8000c18 <__aeabi_fmul>
 800493c:	1c03      	adds	r3, r0, #0
 800493e:	1c1a      	adds	r2, r3, #0
 8004940:	4b28      	ldr	r3, [pc, #160]	@ (80049e4 <Odometry_Update+0x148>)
 8004942:	681b      	ldr	r3, [r3, #0]
 8004944:	1c19      	adds	r1, r3, #0
 8004946:	1c10      	adds	r0, r2, #0
 8004948:	f7fb fda6 	bl	8000498 <__aeabi_fadd>
 800494c:	1c03      	adds	r3, r0, #0
 800494e:	1c1a      	adds	r2, r3, #0
 8004950:	4b24      	ldr	r3, [pc, #144]	@ (80049e4 <Odometry_Update+0x148>)
 8004952:	601a      	str	r2, [r3, #0]
    pos_y += dCenter * sinf(yaw_rad);
 8004954:	687b      	ldr	r3, [r7, #4]
 8004956:	1c18      	adds	r0, r3, #0
 8004958:	f000 ff54 	bl	8005804 <sinf>
 800495c:	1c03      	adds	r3, r0, #0
 800495e:	68b9      	ldr	r1, [r7, #8]
 8004960:	1c18      	adds	r0, r3, #0
 8004962:	f7fc f959 	bl	8000c18 <__aeabi_fmul>
 8004966:	1c03      	adds	r3, r0, #0
 8004968:	1c1a      	adds	r2, r3, #0
 800496a:	4b1f      	ldr	r3, [pc, #124]	@ (80049e8 <Odometry_Update+0x14c>)
 800496c:	681b      	ldr	r3, [r3, #0]
 800496e:	1c19      	adds	r1, r3, #0
 8004970:	1c10      	adds	r0, r2, #0
 8004972:	f7fb fd91 	bl	8000498 <__aeabi_fadd>
 8004976:	1c03      	adds	r3, r0, #0
 8004978:	1c1a      	adds	r2, r3, #0
 800497a:	4b1b      	ldr	r3, [pc, #108]	@ (80049e8 <Odometry_Update+0x14c>)
 800497c:	601a      	str	r2, [r3, #0]

    // 5. Convert to mm for transmission
    pos_x_mm = (int16_t)(pos_x * 1000.0f);
 800497e:	4b19      	ldr	r3, [pc, #100]	@ (80049e4 <Odometry_Update+0x148>)
 8004980:	681b      	ldr	r3, [r3, #0]
 8004982:	491a      	ldr	r1, [pc, #104]	@ (80049ec <Odometry_Update+0x150>)
 8004984:	1c18      	adds	r0, r3, #0
 8004986:	f7fc f947 	bl	8000c18 <__aeabi_fmul>
 800498a:	1c03      	adds	r3, r0, #0
 800498c:	1c18      	adds	r0, r3, #0
 800498e:	f7fc fd17 	bl	80013c0 <__aeabi_f2iz>
 8004992:	0003      	movs	r3, r0
 8004994:	b21a      	sxth	r2, r3
 8004996:	4b16      	ldr	r3, [pc, #88]	@ (80049f0 <Odometry_Update+0x154>)
 8004998:	801a      	strh	r2, [r3, #0]
    pos_y_mm = (int16_t)(pos_y * 1000.0f);
 800499a:	4b13      	ldr	r3, [pc, #76]	@ (80049e8 <Odometry_Update+0x14c>)
 800499c:	681b      	ldr	r3, [r3, #0]
 800499e:	4913      	ldr	r1, [pc, #76]	@ (80049ec <Odometry_Update+0x150>)
 80049a0:	1c18      	adds	r0, r3, #0
 80049a2:	f7fc f939 	bl	8000c18 <__aeabi_fmul>
 80049a6:	1c03      	adds	r3, r0, #0
 80049a8:	1c18      	adds	r0, r3, #0
 80049aa:	f7fc fd09 	bl	80013c0 <__aeabi_f2iz>
 80049ae:	0003      	movs	r3, r0
 80049b0:	b21a      	sxth	r2, r3
 80049b2:	4b10      	ldr	r3, [pc, #64]	@ (80049f4 <Odometry_Update+0x158>)
 80049b4:	801a      	strh	r2, [r3, #0]

}
 80049b6:	46c0      	nop			@ (mov r8, r8)
 80049b8:	46bd      	mov	sp, r7
 80049ba:	b006      	add	sp, #24
 80049bc:	bd80      	pop	{r7, pc}
 80049be:	46c0      	nop			@ (mov r8, r8)
 80049c0:	3aa8d3e3 	.word	0x3aa8d3e3
 80049c4:	200000cc 	.word	0x200000cc
 80049c8:	200000d0 	.word	0x200000d0
 80049cc:	200008fc 	.word	0x200008fc
 80049d0:	200009ac 	.word	0x200009ac
 80049d4:	200009b8 	.word	0x200009b8
 80049d8:	200009b0 	.word	0x200009b0
 80049dc:	200009b4 	.word	0x200009b4
 80049e0:	3c8efa35 	.word	0x3c8efa35
 80049e4:	200009a0 	.word	0x200009a0
 80049e8:	200009a4 	.word	0x200009a4
 80049ec:	447a0000 	.word	0x447a0000
 80049f0:	200009a8 	.word	0x200009a8
 80049f4:	200009aa 	.word	0x200009aa

080049f8 <PID_PWM>:
float V_req = 0; //Linear speed MAX: 2m/s
float W_req = 0; //Angular speed MAX: 2rad/s i think
float w_l = 0, w_r = 0; // En rad/s
float rpm_ref_left = 0, rpm_ref_right = 0; //convert w_l and w_r to rpms

void PID_PWM(float ref_l,float ref_r){ //1 = left, 2 = right
 80049f8:	b590      	push	{r4, r7, lr}
 80049fa:	b083      	sub	sp, #12
 80049fc:	af00      	add	r7, sp, #0
 80049fe:	6078      	str	r0, [r7, #4]
 8004a00:	6039      	str	r1, [r7, #0]
    // ----- LEFT MOTOR PID -----
	error_l = ref_l - rpm_1_filtered;
 8004a02:	4bdf      	ldr	r3, [pc, #892]	@ (8004d80 <PID_PWM+0x388>)
 8004a04:	681b      	ldr	r3, [r3, #0]
 8004a06:	1c19      	adds	r1, r3, #0
 8004a08:	6878      	ldr	r0, [r7, #4]
 8004a0a:	f7fc fa5f 	bl	8000ecc <__aeabi_fsub>
 8004a0e:	1c03      	adds	r3, r0, #0
 8004a10:	1c1a      	adds	r2, r3, #0
 8004a12:	4bdc      	ldr	r3, [pc, #880]	@ (8004d84 <PID_PWM+0x38c>)
 8004a14:	601a      	str	r2, [r3, #0]
	if (fabsf(pwm_l) < 650.0f && fabsf(ref_l) > 1.0f) {
 8004a16:	4bdc      	ldr	r3, [pc, #880]	@ (8004d88 <PID_PWM+0x390>)
 8004a18:	681b      	ldr	r3, [r3, #0]
 8004a1a:	005b      	lsls	r3, r3, #1
 8004a1c:	085b      	lsrs	r3, r3, #1
 8004a1e:	49db      	ldr	r1, [pc, #876]	@ (8004d8c <PID_PWM+0x394>)
 8004a20:	1c18      	adds	r0, r3, #0
 8004a22:	f7fb fcf9 	bl	8000418 <__aeabi_fcmplt>
 8004a26:	1e03      	subs	r3, r0, #0
 8004a28:	d01c      	beq.n	8004a64 <PID_PWM+0x6c>
 8004a2a:	687b      	ldr	r3, [r7, #4]
 8004a2c:	005b      	lsls	r3, r3, #1
 8004a2e:	085b      	lsrs	r3, r3, #1
 8004a30:	21fe      	movs	r1, #254	@ 0xfe
 8004a32:	0589      	lsls	r1, r1, #22
 8004a34:	1c18      	adds	r0, r3, #0
 8004a36:	f7fb fd03 	bl	8000440 <__aeabi_fcmpgt>
 8004a3a:	1e03      	subs	r3, r0, #0
 8004a3c:	d012      	beq.n	8004a64 <PID_PWM+0x6c>
		int_error_l += 0.01f * error_l;
 8004a3e:	4bd1      	ldr	r3, [pc, #836]	@ (8004d84 <PID_PWM+0x38c>)
 8004a40:	681b      	ldr	r3, [r3, #0]
 8004a42:	49d3      	ldr	r1, [pc, #844]	@ (8004d90 <PID_PWM+0x398>)
 8004a44:	1c18      	adds	r0, r3, #0
 8004a46:	f7fc f8e7 	bl	8000c18 <__aeabi_fmul>
 8004a4a:	1c03      	adds	r3, r0, #0
 8004a4c:	1c1a      	adds	r2, r3, #0
 8004a4e:	4bd1      	ldr	r3, [pc, #836]	@ (8004d94 <PID_PWM+0x39c>)
 8004a50:	681b      	ldr	r3, [r3, #0]
 8004a52:	1c19      	adds	r1, r3, #0
 8004a54:	1c10      	adds	r0, r2, #0
 8004a56:	f7fb fd1f 	bl	8000498 <__aeabi_fadd>
 8004a5a:	1c03      	adds	r3, r0, #0
 8004a5c:	1c1a      	adds	r2, r3, #0
 8004a5e:	4bcd      	ldr	r3, [pc, #820]	@ (8004d94 <PID_PWM+0x39c>)
 8004a60:	601a      	str	r2, [r3, #0]
 8004a62:	e00c      	b.n	8004a7e <PID_PWM+0x86>
	}
	else if (fabsf(ref_l) <= 1.0f) {
 8004a64:	687b      	ldr	r3, [r7, #4]
 8004a66:	005b      	lsls	r3, r3, #1
 8004a68:	085b      	lsrs	r3, r3, #1
 8004a6a:	21fe      	movs	r1, #254	@ 0xfe
 8004a6c:	0589      	lsls	r1, r1, #22
 8004a6e:	1c18      	adds	r0, r3, #0
 8004a70:	f7fb fcdc 	bl	800042c <__aeabi_fcmple>
 8004a74:	1e03      	subs	r3, r0, #0
 8004a76:	d002      	beq.n	8004a7e <PID_PWM+0x86>
		int_error_l = 0.0f;
 8004a78:	4bc6      	ldr	r3, [pc, #792]	@ (8004d94 <PID_PWM+0x39c>)
 8004a7a:	2200      	movs	r2, #0
 8004a7c:	601a      	str	r2, [r3, #0]
	}
	der_error_l = (error_l - error_l_dt) / 0.01f;
 8004a7e:	4bc1      	ldr	r3, [pc, #772]	@ (8004d84 <PID_PWM+0x38c>)
 8004a80:	681a      	ldr	r2, [r3, #0]
 8004a82:	4bc5      	ldr	r3, [pc, #788]	@ (8004d98 <PID_PWM+0x3a0>)
 8004a84:	681b      	ldr	r3, [r3, #0]
 8004a86:	1c19      	adds	r1, r3, #0
 8004a88:	1c10      	adds	r0, r2, #0
 8004a8a:	f7fc fa1f 	bl	8000ecc <__aeabi_fsub>
 8004a8e:	1c03      	adds	r3, r0, #0
 8004a90:	49bf      	ldr	r1, [pc, #764]	@ (8004d90 <PID_PWM+0x398>)
 8004a92:	1c18      	adds	r0, r3, #0
 8004a94:	f7fb fef2 	bl	800087c <__aeabi_fdiv>
 8004a98:	1c03      	adds	r3, r0, #0
 8004a9a:	1c1a      	adds	r2, r3, #0
 8004a9c:	4bbf      	ldr	r3, [pc, #764]	@ (8004d9c <PID_PWM+0x3a4>)
 8004a9e:	601a      	str	r2, [r3, #0]
	error_l_dt = error_l;
 8004aa0:	4bb8      	ldr	r3, [pc, #736]	@ (8004d84 <PID_PWM+0x38c>)
 8004aa2:	681a      	ldr	r2, [r3, #0]
 8004aa4:	4bbc      	ldr	r3, [pc, #752]	@ (8004d98 <PID_PWM+0x3a0>)
 8004aa6:	601a      	str	r2, [r3, #0]

	// ----- RIGHT MOTOR PID -----
	error_r = ref_r - rpm_2_filtered;
 8004aa8:	4bbd      	ldr	r3, [pc, #756]	@ (8004da0 <PID_PWM+0x3a8>)
 8004aaa:	681b      	ldr	r3, [r3, #0]
 8004aac:	1c19      	adds	r1, r3, #0
 8004aae:	6838      	ldr	r0, [r7, #0]
 8004ab0:	f7fc fa0c 	bl	8000ecc <__aeabi_fsub>
 8004ab4:	1c03      	adds	r3, r0, #0
 8004ab6:	1c1a      	adds	r2, r3, #0
 8004ab8:	4bba      	ldr	r3, [pc, #744]	@ (8004da4 <PID_PWM+0x3ac>)
 8004aba:	601a      	str	r2, [r3, #0]

	if (fabsf(pwm_r) < 650.0f && fabsf(ref_r) > 1.0f) {
 8004abc:	4bba      	ldr	r3, [pc, #744]	@ (8004da8 <PID_PWM+0x3b0>)
 8004abe:	681b      	ldr	r3, [r3, #0]
 8004ac0:	005b      	lsls	r3, r3, #1
 8004ac2:	085b      	lsrs	r3, r3, #1
 8004ac4:	49b1      	ldr	r1, [pc, #708]	@ (8004d8c <PID_PWM+0x394>)
 8004ac6:	1c18      	adds	r0, r3, #0
 8004ac8:	f7fb fca6 	bl	8000418 <__aeabi_fcmplt>
 8004acc:	1e03      	subs	r3, r0, #0
 8004ace:	d01c      	beq.n	8004b0a <PID_PWM+0x112>
 8004ad0:	683b      	ldr	r3, [r7, #0]
 8004ad2:	005b      	lsls	r3, r3, #1
 8004ad4:	085b      	lsrs	r3, r3, #1
 8004ad6:	21fe      	movs	r1, #254	@ 0xfe
 8004ad8:	0589      	lsls	r1, r1, #22
 8004ada:	1c18      	adds	r0, r3, #0
 8004adc:	f7fb fcb0 	bl	8000440 <__aeabi_fcmpgt>
 8004ae0:	1e03      	subs	r3, r0, #0
 8004ae2:	d012      	beq.n	8004b0a <PID_PWM+0x112>
	    int_error_r += 0.01f * error_r;
 8004ae4:	4baf      	ldr	r3, [pc, #700]	@ (8004da4 <PID_PWM+0x3ac>)
 8004ae6:	681b      	ldr	r3, [r3, #0]
 8004ae8:	49a9      	ldr	r1, [pc, #676]	@ (8004d90 <PID_PWM+0x398>)
 8004aea:	1c18      	adds	r0, r3, #0
 8004aec:	f7fc f894 	bl	8000c18 <__aeabi_fmul>
 8004af0:	1c03      	adds	r3, r0, #0
 8004af2:	1c1a      	adds	r2, r3, #0
 8004af4:	4bad      	ldr	r3, [pc, #692]	@ (8004dac <PID_PWM+0x3b4>)
 8004af6:	681b      	ldr	r3, [r3, #0]
 8004af8:	1c19      	adds	r1, r3, #0
 8004afa:	1c10      	adds	r0, r2, #0
 8004afc:	f7fb fccc 	bl	8000498 <__aeabi_fadd>
 8004b00:	1c03      	adds	r3, r0, #0
 8004b02:	1c1a      	adds	r2, r3, #0
 8004b04:	4ba9      	ldr	r3, [pc, #676]	@ (8004dac <PID_PWM+0x3b4>)
 8004b06:	601a      	str	r2, [r3, #0]
 8004b08:	e00c      	b.n	8004b24 <PID_PWM+0x12c>
	}
	else if (fabsf(ref_r) <= 1.0f) {
 8004b0a:	683b      	ldr	r3, [r7, #0]
 8004b0c:	005b      	lsls	r3, r3, #1
 8004b0e:	085b      	lsrs	r3, r3, #1
 8004b10:	21fe      	movs	r1, #254	@ 0xfe
 8004b12:	0589      	lsls	r1, r1, #22
 8004b14:	1c18      	adds	r0, r3, #0
 8004b16:	f7fb fc89 	bl	800042c <__aeabi_fcmple>
 8004b1a:	1e03      	subs	r3, r0, #0
 8004b1c:	d002      	beq.n	8004b24 <PID_PWM+0x12c>
	    int_error_r = 0.0f;
 8004b1e:	4ba3      	ldr	r3, [pc, #652]	@ (8004dac <PID_PWM+0x3b4>)
 8004b20:	2200      	movs	r2, #0
 8004b22:	601a      	str	r2, [r3, #0]
	}

	der_error_r = (error_r - error_r_dt) / 0.01f;
 8004b24:	4b9f      	ldr	r3, [pc, #636]	@ (8004da4 <PID_PWM+0x3ac>)
 8004b26:	681a      	ldr	r2, [r3, #0]
 8004b28:	4ba1      	ldr	r3, [pc, #644]	@ (8004db0 <PID_PWM+0x3b8>)
 8004b2a:	681b      	ldr	r3, [r3, #0]
 8004b2c:	1c19      	adds	r1, r3, #0
 8004b2e:	1c10      	adds	r0, r2, #0
 8004b30:	f7fc f9cc 	bl	8000ecc <__aeabi_fsub>
 8004b34:	1c03      	adds	r3, r0, #0
 8004b36:	4996      	ldr	r1, [pc, #600]	@ (8004d90 <PID_PWM+0x398>)
 8004b38:	1c18      	adds	r0, r3, #0
 8004b3a:	f7fb fe9f 	bl	800087c <__aeabi_fdiv>
 8004b3e:	1c03      	adds	r3, r0, #0
 8004b40:	1c1a      	adds	r2, r3, #0
 8004b42:	4b9c      	ldr	r3, [pc, #624]	@ (8004db4 <PID_PWM+0x3bc>)
 8004b44:	601a      	str	r2, [r3, #0]
	error_r_dt = error_r;
 8004b46:	4b97      	ldr	r3, [pc, #604]	@ (8004da4 <PID_PWM+0x3ac>)
 8004b48:	681a      	ldr	r2, [r3, #0]
 8004b4a:	4b99      	ldr	r3, [pc, #612]	@ (8004db0 <PID_PWM+0x3b8>)
 8004b4c:	601a      	str	r2, [r3, #0]


	pwm_l = kp_l * error_l + ki_l * int_error_l + kd_l * der_error_l;
 8004b4e:	4b9a      	ldr	r3, [pc, #616]	@ (8004db8 <PID_PWM+0x3c0>)
 8004b50:	681a      	ldr	r2, [r3, #0]
 8004b52:	4b8c      	ldr	r3, [pc, #560]	@ (8004d84 <PID_PWM+0x38c>)
 8004b54:	681b      	ldr	r3, [r3, #0]
 8004b56:	1c19      	adds	r1, r3, #0
 8004b58:	1c10      	adds	r0, r2, #0
 8004b5a:	f7fc f85d 	bl	8000c18 <__aeabi_fmul>
 8004b5e:	1c03      	adds	r3, r0, #0
 8004b60:	1c1c      	adds	r4, r3, #0
 8004b62:	4b96      	ldr	r3, [pc, #600]	@ (8004dbc <PID_PWM+0x3c4>)
 8004b64:	681a      	ldr	r2, [r3, #0]
 8004b66:	4b8b      	ldr	r3, [pc, #556]	@ (8004d94 <PID_PWM+0x39c>)
 8004b68:	681b      	ldr	r3, [r3, #0]
 8004b6a:	1c19      	adds	r1, r3, #0
 8004b6c:	1c10      	adds	r0, r2, #0
 8004b6e:	f7fc f853 	bl	8000c18 <__aeabi_fmul>
 8004b72:	1c03      	adds	r3, r0, #0
 8004b74:	1c19      	adds	r1, r3, #0
 8004b76:	1c20      	adds	r0, r4, #0
 8004b78:	f7fb fc8e 	bl	8000498 <__aeabi_fadd>
 8004b7c:	1c03      	adds	r3, r0, #0
 8004b7e:	1c1c      	adds	r4, r3, #0
 8004b80:	4b8f      	ldr	r3, [pc, #572]	@ (8004dc0 <PID_PWM+0x3c8>)
 8004b82:	681a      	ldr	r2, [r3, #0]
 8004b84:	4b85      	ldr	r3, [pc, #532]	@ (8004d9c <PID_PWM+0x3a4>)
 8004b86:	681b      	ldr	r3, [r3, #0]
 8004b88:	1c19      	adds	r1, r3, #0
 8004b8a:	1c10      	adds	r0, r2, #0
 8004b8c:	f7fc f844 	bl	8000c18 <__aeabi_fmul>
 8004b90:	1c03      	adds	r3, r0, #0
 8004b92:	1c19      	adds	r1, r3, #0
 8004b94:	1c20      	adds	r0, r4, #0
 8004b96:	f7fb fc7f 	bl	8000498 <__aeabi_fadd>
 8004b9a:	1c03      	adds	r3, r0, #0
 8004b9c:	1c1a      	adds	r2, r3, #0
 8004b9e:	4b7a      	ldr	r3, [pc, #488]	@ (8004d88 <PID_PWM+0x390>)
 8004ba0:	601a      	str	r2, [r3, #0]
	pwm_r = kp_r * error_r + ki_r * int_error_r + kd_r * der_error_r;
 8004ba2:	4b88      	ldr	r3, [pc, #544]	@ (8004dc4 <PID_PWM+0x3cc>)
 8004ba4:	681a      	ldr	r2, [r3, #0]
 8004ba6:	4b7f      	ldr	r3, [pc, #508]	@ (8004da4 <PID_PWM+0x3ac>)
 8004ba8:	681b      	ldr	r3, [r3, #0]
 8004baa:	1c19      	adds	r1, r3, #0
 8004bac:	1c10      	adds	r0, r2, #0
 8004bae:	f7fc f833 	bl	8000c18 <__aeabi_fmul>
 8004bb2:	1c03      	adds	r3, r0, #0
 8004bb4:	1c1c      	adds	r4, r3, #0
 8004bb6:	4b84      	ldr	r3, [pc, #528]	@ (8004dc8 <PID_PWM+0x3d0>)
 8004bb8:	681a      	ldr	r2, [r3, #0]
 8004bba:	4b7c      	ldr	r3, [pc, #496]	@ (8004dac <PID_PWM+0x3b4>)
 8004bbc:	681b      	ldr	r3, [r3, #0]
 8004bbe:	1c19      	adds	r1, r3, #0
 8004bc0:	1c10      	adds	r0, r2, #0
 8004bc2:	f7fc f829 	bl	8000c18 <__aeabi_fmul>
 8004bc6:	1c03      	adds	r3, r0, #0
 8004bc8:	1c19      	adds	r1, r3, #0
 8004bca:	1c20      	adds	r0, r4, #0
 8004bcc:	f7fb fc64 	bl	8000498 <__aeabi_fadd>
 8004bd0:	1c03      	adds	r3, r0, #0
 8004bd2:	1c1c      	adds	r4, r3, #0
 8004bd4:	4b7d      	ldr	r3, [pc, #500]	@ (8004dcc <PID_PWM+0x3d4>)
 8004bd6:	681a      	ldr	r2, [r3, #0]
 8004bd8:	4b76      	ldr	r3, [pc, #472]	@ (8004db4 <PID_PWM+0x3bc>)
 8004bda:	681b      	ldr	r3, [r3, #0]
 8004bdc:	1c19      	adds	r1, r3, #0
 8004bde:	1c10      	adds	r0, r2, #0
 8004be0:	f7fc f81a 	bl	8000c18 <__aeabi_fmul>
 8004be4:	1c03      	adds	r3, r0, #0
 8004be6:	1c19      	adds	r1, r3, #0
 8004be8:	1c20      	adds	r0, r4, #0
 8004bea:	f7fb fc55 	bl	8000498 <__aeabi_fadd>
 8004bee:	1c03      	adds	r3, r0, #0
 8004bf0:	1c1a      	adds	r2, r3, #0
 8004bf2:	4b6d      	ldr	r3, [pc, #436]	@ (8004da8 <PID_PWM+0x3b0>)
 8004bf4:	601a      	str	r2, [r3, #0]

	// ----- ANTI WIND UP (MAX PWM EXPERIMENTAL AROUND 2M/S = 77% DUTY -----
	if (pwm_l > 650.0f) {
 8004bf6:	4b64      	ldr	r3, [pc, #400]	@ (8004d88 <PID_PWM+0x390>)
 8004bf8:	681b      	ldr	r3, [r3, #0]
 8004bfa:	4964      	ldr	r1, [pc, #400]	@ (8004d8c <PID_PWM+0x394>)
 8004bfc:	1c18      	adds	r0, r3, #0
 8004bfe:	f7fb fc1f 	bl	8000440 <__aeabi_fcmpgt>
 8004c02:	1e03      	subs	r3, r0, #0
 8004c04:	d003      	beq.n	8004c0e <PID_PWM+0x216>
		pwm_l = 650.0f;
 8004c06:	4b60      	ldr	r3, [pc, #384]	@ (8004d88 <PID_PWM+0x390>)
 8004c08:	4a60      	ldr	r2, [pc, #384]	@ (8004d8c <PID_PWM+0x394>)
 8004c0a:	601a      	str	r2, [r3, #0]
 8004c0c:	e00a      	b.n	8004c24 <PID_PWM+0x22c>
	} else if (pwm_l < -650.0f) {
 8004c0e:	4b5e      	ldr	r3, [pc, #376]	@ (8004d88 <PID_PWM+0x390>)
 8004c10:	681b      	ldr	r3, [r3, #0]
 8004c12:	496f      	ldr	r1, [pc, #444]	@ (8004dd0 <PID_PWM+0x3d8>)
 8004c14:	1c18      	adds	r0, r3, #0
 8004c16:	f7fb fbff 	bl	8000418 <__aeabi_fcmplt>
 8004c1a:	1e03      	subs	r3, r0, #0
 8004c1c:	d002      	beq.n	8004c24 <PID_PWM+0x22c>
		pwm_l = -650.0f;
 8004c1e:	4b5a      	ldr	r3, [pc, #360]	@ (8004d88 <PID_PWM+0x390>)
 8004c20:	4a6b      	ldr	r2, [pc, #428]	@ (8004dd0 <PID_PWM+0x3d8>)
 8004c22:	601a      	str	r2, [r3, #0]
	}
	if (pwm_r > 650.0f) {
 8004c24:	4b60      	ldr	r3, [pc, #384]	@ (8004da8 <PID_PWM+0x3b0>)
 8004c26:	681b      	ldr	r3, [r3, #0]
 8004c28:	4958      	ldr	r1, [pc, #352]	@ (8004d8c <PID_PWM+0x394>)
 8004c2a:	1c18      	adds	r0, r3, #0
 8004c2c:	f7fb fc08 	bl	8000440 <__aeabi_fcmpgt>
 8004c30:	1e03      	subs	r3, r0, #0
 8004c32:	d003      	beq.n	8004c3c <PID_PWM+0x244>
		pwm_r = 650.0f;
 8004c34:	4b5c      	ldr	r3, [pc, #368]	@ (8004da8 <PID_PWM+0x3b0>)
 8004c36:	4a55      	ldr	r2, [pc, #340]	@ (8004d8c <PID_PWM+0x394>)
 8004c38:	601a      	str	r2, [r3, #0]
 8004c3a:	e00a      	b.n	8004c52 <PID_PWM+0x25a>
	} else if (pwm_r < -650.0f) {
 8004c3c:	4b5a      	ldr	r3, [pc, #360]	@ (8004da8 <PID_PWM+0x3b0>)
 8004c3e:	681b      	ldr	r3, [r3, #0]
 8004c40:	4963      	ldr	r1, [pc, #396]	@ (8004dd0 <PID_PWM+0x3d8>)
 8004c42:	1c18      	adds	r0, r3, #0
 8004c44:	f7fb fbe8 	bl	8000418 <__aeabi_fcmplt>
 8004c48:	1e03      	subs	r3, r0, #0
 8004c4a:	d002      	beq.n	8004c52 <PID_PWM+0x25a>
		pwm_r = -650.0f;
 8004c4c:	4b56      	ldr	r3, [pc, #344]	@ (8004da8 <PID_PWM+0x3b0>)
 8004c4e:	4a60      	ldr	r2, [pc, #384]	@ (8004dd0 <PID_PWM+0x3d8>)
 8004c50:	601a      	str	r2, [r3, #0]
	// Map to actual macros (BTS driver expects positive duty and direction pins)
	// ====================================================
	// SAFETY LOGIC  DIRECTION CHANGE DETECTION
	// ====================================================
	// Detect sign change (zero crossing)
	if ((last_pwm_l * pwm_l < 0.0f) || (fabsf(pwm_l) < 5.0f)) {
 8004c52:	4b60      	ldr	r3, [pc, #384]	@ (8004dd4 <PID_PWM+0x3dc>)
 8004c54:	681a      	ldr	r2, [r3, #0]
 8004c56:	4b4c      	ldr	r3, [pc, #304]	@ (8004d88 <PID_PWM+0x390>)
 8004c58:	681b      	ldr	r3, [r3, #0]
 8004c5a:	1c19      	adds	r1, r3, #0
 8004c5c:	1c10      	adds	r0, r2, #0
 8004c5e:	f7fb ffdb 	bl	8000c18 <__aeabi_fmul>
 8004c62:	1c03      	adds	r3, r0, #0
 8004c64:	2100      	movs	r1, #0
 8004c66:	1c18      	adds	r0, r3, #0
 8004c68:	f7fb fbd6 	bl	8000418 <__aeabi_fcmplt>
 8004c6c:	1e03      	subs	r3, r0, #0
 8004c6e:	d109      	bne.n	8004c84 <PID_PWM+0x28c>
 8004c70:	4b45      	ldr	r3, [pc, #276]	@ (8004d88 <PID_PWM+0x390>)
 8004c72:	681b      	ldr	r3, [r3, #0]
 8004c74:	005b      	lsls	r3, r3, #1
 8004c76:	085b      	lsrs	r3, r3, #1
 8004c78:	4957      	ldr	r1, [pc, #348]	@ (8004dd8 <PID_PWM+0x3e0>)
 8004c7a:	1c18      	adds	r0, r3, #0
 8004c7c:	f7fb fbcc 	bl	8000418 <__aeabi_fcmplt>
 8004c80:	1e03      	subs	r3, r0, #0
 8004c82:	d00b      	beq.n	8004c9c <PID_PWM+0x2a4>
		left_LPWM(0);
 8004c84:	2380      	movs	r3, #128	@ 0x80
 8004c86:	05db      	lsls	r3, r3, #23
 8004c88:	2200      	movs	r2, #0
 8004c8a:	635a      	str	r2, [r3, #52]	@ 0x34
		left_RPWM(0);
 8004c8c:	2380      	movs	r3, #128	@ 0x80
 8004c8e:	05db      	lsls	r3, r3, #23
 8004c90:	2200      	movs	r2, #0
 8004c92:	639a      	str	r2, [r3, #56]	@ 0x38
		changed_direction_l = 1;
 8004c94:	4b51      	ldr	r3, [pc, #324]	@ (8004ddc <PID_PWM+0x3e4>)
 8004c96:	2201      	movs	r2, #1
 8004c98:	701a      	strb	r2, [r3, #0]
 8004c9a:	e002      	b.n	8004ca2 <PID_PWM+0x2aa>
	} else {
		changed_direction_l = 0;
 8004c9c:	4b4f      	ldr	r3, [pc, #316]	@ (8004ddc <PID_PWM+0x3e4>)
 8004c9e:	2200      	movs	r2, #0
 8004ca0:	701a      	strb	r2, [r3, #0]
	}

	if ((last_pwm_r * pwm_r < 0.0f) || (fabsf(pwm_r) < 5.0f)) {
 8004ca2:	4b4f      	ldr	r3, [pc, #316]	@ (8004de0 <PID_PWM+0x3e8>)
 8004ca4:	681a      	ldr	r2, [r3, #0]
 8004ca6:	4b40      	ldr	r3, [pc, #256]	@ (8004da8 <PID_PWM+0x3b0>)
 8004ca8:	681b      	ldr	r3, [r3, #0]
 8004caa:	1c19      	adds	r1, r3, #0
 8004cac:	1c10      	adds	r0, r2, #0
 8004cae:	f7fb ffb3 	bl	8000c18 <__aeabi_fmul>
 8004cb2:	1c03      	adds	r3, r0, #0
 8004cb4:	2100      	movs	r1, #0
 8004cb6:	1c18      	adds	r0, r3, #0
 8004cb8:	f7fb fbae 	bl	8000418 <__aeabi_fcmplt>
 8004cbc:	1e03      	subs	r3, r0, #0
 8004cbe:	d109      	bne.n	8004cd4 <PID_PWM+0x2dc>
 8004cc0:	4b39      	ldr	r3, [pc, #228]	@ (8004da8 <PID_PWM+0x3b0>)
 8004cc2:	681b      	ldr	r3, [r3, #0]
 8004cc4:	005b      	lsls	r3, r3, #1
 8004cc6:	085b      	lsrs	r3, r3, #1
 8004cc8:	4943      	ldr	r1, [pc, #268]	@ (8004dd8 <PID_PWM+0x3e0>)
 8004cca:	1c18      	adds	r0, r3, #0
 8004ccc:	f7fb fba4 	bl	8000418 <__aeabi_fcmplt>
 8004cd0:	1e03      	subs	r3, r0, #0
 8004cd2:	d00b      	beq.n	8004cec <PID_PWM+0x2f4>
		right_LPWM(0);
 8004cd4:	2380      	movs	r3, #128	@ 0x80
 8004cd6:	05db      	lsls	r3, r3, #23
 8004cd8:	2200      	movs	r2, #0
 8004cda:	63da      	str	r2, [r3, #60]	@ 0x3c
		right_RPWM(0);
 8004cdc:	2380      	movs	r3, #128	@ 0x80
 8004cde:	05db      	lsls	r3, r3, #23
 8004ce0:	2200      	movs	r2, #0
 8004ce2:	641a      	str	r2, [r3, #64]	@ 0x40
		changed_direction_r = 1;
 8004ce4:	4b3f      	ldr	r3, [pc, #252]	@ (8004de4 <PID_PWM+0x3ec>)
 8004ce6:	2201      	movs	r2, #1
 8004ce8:	701a      	strb	r2, [r3, #0]
 8004cea:	e002      	b.n	8004cf2 <PID_PWM+0x2fa>
	} else {
		changed_direction_r = 0;
 8004cec:	4b3d      	ldr	r3, [pc, #244]	@ (8004de4 <PID_PWM+0x3ec>)
 8004cee:	2200      	movs	r2, #0
 8004cf0:	701a      	strb	r2, [r3, #0]
	}

	// ====================================================
	// APPLY PWM ONLY IF NO CHANGE
	// ====================================================
	if (!changed_direction_l) {
 8004cf2:	4b3a      	ldr	r3, [pc, #232]	@ (8004ddc <PID_PWM+0x3e4>)
 8004cf4:	781b      	ldrb	r3, [r3, #0]
 8004cf6:	2b00      	cmp	r3, #0
 8004cf8:	d127      	bne.n	8004d4a <PID_PWM+0x352>
		if (pwm_l >= 0.0f) {
 8004cfa:	4b23      	ldr	r3, [pc, #140]	@ (8004d88 <PID_PWM+0x390>)
 8004cfc:	681b      	ldr	r3, [r3, #0]
 8004cfe:	2100      	movs	r1, #0
 8004d00:	1c18      	adds	r0, r3, #0
 8004d02:	f7fb fba7 	bl	8000454 <__aeabi_fcmpge>
 8004d06:	1e03      	subs	r3, r0, #0
 8004d08:	d00e      	beq.n	8004d28 <PID_PWM+0x330>
			left_RPWM((uint16_t)pwm_l);
 8004d0a:	4b1f      	ldr	r3, [pc, #124]	@ (8004d88 <PID_PWM+0x390>)
 8004d0c:	681b      	ldr	r3, [r3, #0]
 8004d0e:	1c18      	adds	r0, r3, #0
 8004d10:	f7fb fbaa 	bl	8000468 <__aeabi_f2uiz>
 8004d14:	0003      	movs	r3, r0
 8004d16:	b29a      	uxth	r2, r3
 8004d18:	2380      	movs	r3, #128	@ 0x80
 8004d1a:	05db      	lsls	r3, r3, #23
 8004d1c:	639a      	str	r2, [r3, #56]	@ 0x38
			left_LPWM(0);
 8004d1e:	2380      	movs	r3, #128	@ 0x80
 8004d20:	05db      	lsls	r3, r3, #23
 8004d22:	2200      	movs	r2, #0
 8004d24:	635a      	str	r2, [r3, #52]	@ 0x34
 8004d26:	e010      	b.n	8004d4a <PID_PWM+0x352>
		} else {
			left_LPWM((uint16_t)(-pwm_l));
 8004d28:	4b17      	ldr	r3, [pc, #92]	@ (8004d88 <PID_PWM+0x390>)
 8004d2a:	681b      	ldr	r3, [r3, #0]
 8004d2c:	2280      	movs	r2, #128	@ 0x80
 8004d2e:	0612      	lsls	r2, r2, #24
 8004d30:	4053      	eors	r3, r2
 8004d32:	1c18      	adds	r0, r3, #0
 8004d34:	f7fb fb98 	bl	8000468 <__aeabi_f2uiz>
 8004d38:	0003      	movs	r3, r0
 8004d3a:	b29a      	uxth	r2, r3
 8004d3c:	2380      	movs	r3, #128	@ 0x80
 8004d3e:	05db      	lsls	r3, r3, #23
 8004d40:	635a      	str	r2, [r3, #52]	@ 0x34
			left_RPWM(0);
 8004d42:	2380      	movs	r3, #128	@ 0x80
 8004d44:	05db      	lsls	r3, r3, #23
 8004d46:	2200      	movs	r2, #0
 8004d48:	639a      	str	r2, [r3, #56]	@ 0x38
		}
	}

	if (!changed_direction_r) {
 8004d4a:	4b26      	ldr	r3, [pc, #152]	@ (8004de4 <PID_PWM+0x3ec>)
 8004d4c:	781b      	ldrb	r3, [r3, #0]
 8004d4e:	2b00      	cmp	r3, #0
 8004d50:	d15b      	bne.n	8004e0a <PID_PWM+0x412>
		if (pwm_r >= 0.0f) {
 8004d52:	4b15      	ldr	r3, [pc, #84]	@ (8004da8 <PID_PWM+0x3b0>)
 8004d54:	681b      	ldr	r3, [r3, #0]
 8004d56:	2100      	movs	r1, #0
 8004d58:	1c18      	adds	r0, r3, #0
 8004d5a:	f7fb fb7b 	bl	8000454 <__aeabi_fcmpge>
 8004d5e:	1e03      	subs	r3, r0, #0
 8004d60:	d042      	beq.n	8004de8 <PID_PWM+0x3f0>
			right_RPWM((uint16_t)pwm_r);
 8004d62:	4b11      	ldr	r3, [pc, #68]	@ (8004da8 <PID_PWM+0x3b0>)
 8004d64:	681b      	ldr	r3, [r3, #0]
 8004d66:	1c18      	adds	r0, r3, #0
 8004d68:	f7fb fb7e 	bl	8000468 <__aeabi_f2uiz>
 8004d6c:	0003      	movs	r3, r0
 8004d6e:	b29a      	uxth	r2, r3
 8004d70:	2380      	movs	r3, #128	@ 0x80
 8004d72:	05db      	lsls	r3, r3, #23
 8004d74:	641a      	str	r2, [r3, #64]	@ 0x40
			right_LPWM(0);
 8004d76:	2380      	movs	r3, #128	@ 0x80
 8004d78:	05db      	lsls	r3, r3, #23
 8004d7a:	2200      	movs	r2, #0
 8004d7c:	63da      	str	r2, [r3, #60]	@ 0x3c
 8004d7e:	e044      	b.n	8004e0a <PID_PWM+0x412>
 8004d80:	200000dc 	.word	0x200000dc
 8004d84:	200009bc 	.word	0x200009bc
 8004d88:	200009e8 	.word	0x200009e8
 8004d8c:	44228000 	.word	0x44228000
 8004d90:	3c23d70a 	.word	0x3c23d70a
 8004d94:	200009c4 	.word	0x200009c4
 8004d98:	200009c0 	.word	0x200009c0
 8004d9c:	200009c8 	.word	0x200009c8
 8004da0:	200000e0 	.word	0x200000e0
 8004da4:	200009cc 	.word	0x200009cc
 8004da8:	200009ec 	.word	0x200009ec
 8004dac:	200009d4 	.word	0x200009d4
 8004db0:	200009d0 	.word	0x200009d0
 8004db4:	200009d8 	.word	0x200009d8
 8004db8:	20000018 	.word	0x20000018
 8004dbc:	2000001c 	.word	0x2000001c
 8004dc0:	200009dc 	.word	0x200009dc
 8004dc4:	20000020 	.word	0x20000020
 8004dc8:	20000024 	.word	0x20000024
 8004dcc:	200009e0 	.word	0x200009e0
 8004dd0:	c4228000 	.word	0xc4228000
 8004dd4:	200009f0 	.word	0x200009f0
 8004dd8:	40a00000 	.word	0x40a00000
 8004ddc:	200009f8 	.word	0x200009f8
 8004de0:	200009f4 	.word	0x200009f4
 8004de4:	200009f9 	.word	0x200009f9
		} else {
			right_LPWM((uint16_t)(-pwm_r));
 8004de8:	4b17      	ldr	r3, [pc, #92]	@ (8004e48 <PID_PWM+0x450>)
 8004dea:	681b      	ldr	r3, [r3, #0]
 8004dec:	2280      	movs	r2, #128	@ 0x80
 8004dee:	0612      	lsls	r2, r2, #24
 8004df0:	4053      	eors	r3, r2
 8004df2:	1c18      	adds	r0, r3, #0
 8004df4:	f7fb fb38 	bl	8000468 <__aeabi_f2uiz>
 8004df8:	0003      	movs	r3, r0
 8004dfa:	b29a      	uxth	r2, r3
 8004dfc:	2380      	movs	r3, #128	@ 0x80
 8004dfe:	05db      	lsls	r3, r3, #23
 8004e00:	63da      	str	r2, [r3, #60]	@ 0x3c
			right_RPWM(0);
 8004e02:	2380      	movs	r3, #128	@ 0x80
 8004e04:	05db      	lsls	r3, r3, #23
 8004e06:	2200      	movs	r2, #0
 8004e08:	641a      	str	r2, [r3, #64]	@ 0x40
		}
	}
	//Safety delta
	last_pwm_l = pwm_l;
 8004e0a:	4b10      	ldr	r3, [pc, #64]	@ (8004e4c <PID_PWM+0x454>)
 8004e0c:	681a      	ldr	r2, [r3, #0]
 8004e0e:	4b10      	ldr	r3, [pc, #64]	@ (8004e50 <PID_PWM+0x458>)
 8004e10:	601a      	str	r2, [r3, #0]
	last_pwm_r = pwm_r;
 8004e12:	4b0d      	ldr	r3, [pc, #52]	@ (8004e48 <PID_PWM+0x450>)
 8004e14:	681a      	ldr	r2, [r3, #0]
 8004e16:	4b0f      	ldr	r3, [pc, #60]	@ (8004e54 <PID_PWM+0x45c>)
 8004e18:	601a      	str	r2, [r3, #0]
	 // Debug save
	pwm_left_cmd = (int)pwm_l;
 8004e1a:	4b0c      	ldr	r3, [pc, #48]	@ (8004e4c <PID_PWM+0x454>)
 8004e1c:	681b      	ldr	r3, [r3, #0]
 8004e1e:	1c18      	adds	r0, r3, #0
 8004e20:	f7fc face 	bl	80013c0 <__aeabi_f2iz>
 8004e24:	0003      	movs	r3, r0
 8004e26:	b21a      	sxth	r2, r3
 8004e28:	4b0b      	ldr	r3, [pc, #44]	@ (8004e58 <PID_PWM+0x460>)
 8004e2a:	801a      	strh	r2, [r3, #0]
	pwm_right_cmd = (int)pwm_r;
 8004e2c:	4b06      	ldr	r3, [pc, #24]	@ (8004e48 <PID_PWM+0x450>)
 8004e2e:	681b      	ldr	r3, [r3, #0]
 8004e30:	1c18      	adds	r0, r3, #0
 8004e32:	f7fc fac5 	bl	80013c0 <__aeabi_f2iz>
 8004e36:	0003      	movs	r3, r0
 8004e38:	b21a      	sxth	r2, r3
 8004e3a:	4b08      	ldr	r3, [pc, #32]	@ (8004e5c <PID_PWM+0x464>)
 8004e3c:	801a      	strh	r2, [r3, #0]
}
 8004e3e:	46c0      	nop			@ (mov r8, r8)
 8004e40:	46bd      	mov	sp, r7
 8004e42:	b003      	add	sp, #12
 8004e44:	bd90      	pop	{r4, r7, pc}
 8004e46:	46c0      	nop			@ (mov r8, r8)
 8004e48:	200009ec 	.word	0x200009ec
 8004e4c:	200009e8 	.word	0x200009e8
 8004e50:	200009f0 	.word	0x200009f0
 8004e54:	200009f4 	.word	0x200009f4
 8004e58:	200009e4 	.word	0x200009e4
 8004e5c:	200009e6 	.word	0x200009e6

08004e60 <VW_DifferentialDrive>:

void VW_DifferentialDrive(float V_req,float W_req){
 8004e60:	b590      	push	{r4, r7, lr}
 8004e62:	b083      	sub	sp, #12
 8004e64:	af00      	add	r7, sp, #0
 8004e66:	6078      	str	r0, [r7, #4]
 8004e68:	6039      	str	r1, [r7, #0]
    w_l = (V_req / WHEEL_RADIUS) + (WHEEL_DISTANCE * W_req / (2.0f * WHEEL_RADIUS));
 8004e6a:	492d      	ldr	r1, [pc, #180]	@ (8004f20 <VW_DifferentialDrive+0xc0>)
 8004e6c:	6878      	ldr	r0, [r7, #4]
 8004e6e:	f7fb fd05 	bl	800087c <__aeabi_fdiv>
 8004e72:	1c03      	adds	r3, r0, #0
 8004e74:	1c1c      	adds	r4, r3, #0
 8004e76:	492b      	ldr	r1, [pc, #172]	@ (8004f24 <VW_DifferentialDrive+0xc4>)
 8004e78:	6838      	ldr	r0, [r7, #0]
 8004e7a:	f7fb fecd 	bl	8000c18 <__aeabi_fmul>
 8004e7e:	1c03      	adds	r3, r0, #0
 8004e80:	4929      	ldr	r1, [pc, #164]	@ (8004f28 <VW_DifferentialDrive+0xc8>)
 8004e82:	1c18      	adds	r0, r3, #0
 8004e84:	f7fb fcfa 	bl	800087c <__aeabi_fdiv>
 8004e88:	1c03      	adds	r3, r0, #0
 8004e8a:	1c19      	adds	r1, r3, #0
 8004e8c:	1c20      	adds	r0, r4, #0
 8004e8e:	f7fb fb03 	bl	8000498 <__aeabi_fadd>
 8004e92:	1c03      	adds	r3, r0, #0
 8004e94:	1c1a      	adds	r2, r3, #0
 8004e96:	4b25      	ldr	r3, [pc, #148]	@ (8004f2c <VW_DifferentialDrive+0xcc>)
 8004e98:	601a      	str	r2, [r3, #0]
    w_r = (V_req / WHEEL_RADIUS) - (WHEEL_DISTANCE * W_req / (2.0f * WHEEL_RADIUS));
 8004e9a:	4921      	ldr	r1, [pc, #132]	@ (8004f20 <VW_DifferentialDrive+0xc0>)
 8004e9c:	6878      	ldr	r0, [r7, #4]
 8004e9e:	f7fb fced 	bl	800087c <__aeabi_fdiv>
 8004ea2:	1c03      	adds	r3, r0, #0
 8004ea4:	1c1c      	adds	r4, r3, #0
 8004ea6:	491f      	ldr	r1, [pc, #124]	@ (8004f24 <VW_DifferentialDrive+0xc4>)
 8004ea8:	6838      	ldr	r0, [r7, #0]
 8004eaa:	f7fb feb5 	bl	8000c18 <__aeabi_fmul>
 8004eae:	1c03      	adds	r3, r0, #0
 8004eb0:	491d      	ldr	r1, [pc, #116]	@ (8004f28 <VW_DifferentialDrive+0xc8>)
 8004eb2:	1c18      	adds	r0, r3, #0
 8004eb4:	f7fb fce2 	bl	800087c <__aeabi_fdiv>
 8004eb8:	1c03      	adds	r3, r0, #0
 8004eba:	1c19      	adds	r1, r3, #0
 8004ebc:	1c20      	adds	r0, r4, #0
 8004ebe:	f7fc f805 	bl	8000ecc <__aeabi_fsub>
 8004ec2:	1c03      	adds	r3, r0, #0
 8004ec4:	1c1a      	adds	r2, r3, #0
 8004ec6:	4b1a      	ldr	r3, [pc, #104]	@ (8004f30 <VW_DifferentialDrive+0xd0>)
 8004ec8:	601a      	str	r2, [r3, #0]

    rpm_ref_left  = w_l * 60.0f / (2.0f * 3.14159265358979323846f);
 8004eca:	4b18      	ldr	r3, [pc, #96]	@ (8004f2c <VW_DifferentialDrive+0xcc>)
 8004ecc:	681b      	ldr	r3, [r3, #0]
 8004ece:	4919      	ldr	r1, [pc, #100]	@ (8004f34 <VW_DifferentialDrive+0xd4>)
 8004ed0:	1c18      	adds	r0, r3, #0
 8004ed2:	f7fb fea1 	bl	8000c18 <__aeabi_fmul>
 8004ed6:	1c03      	adds	r3, r0, #0
 8004ed8:	4917      	ldr	r1, [pc, #92]	@ (8004f38 <VW_DifferentialDrive+0xd8>)
 8004eda:	1c18      	adds	r0, r3, #0
 8004edc:	f7fb fcce 	bl	800087c <__aeabi_fdiv>
 8004ee0:	1c03      	adds	r3, r0, #0
 8004ee2:	1c1a      	adds	r2, r3, #0
 8004ee4:	4b15      	ldr	r3, [pc, #84]	@ (8004f3c <VW_DifferentialDrive+0xdc>)
 8004ee6:	601a      	str	r2, [r3, #0]
    rpm_ref_right = w_r * 60.0f / (2.0f * 3.14159265358979323846f);
 8004ee8:	4b11      	ldr	r3, [pc, #68]	@ (8004f30 <VW_DifferentialDrive+0xd0>)
 8004eea:	681b      	ldr	r3, [r3, #0]
 8004eec:	4911      	ldr	r1, [pc, #68]	@ (8004f34 <VW_DifferentialDrive+0xd4>)
 8004eee:	1c18      	adds	r0, r3, #0
 8004ef0:	f7fb fe92 	bl	8000c18 <__aeabi_fmul>
 8004ef4:	1c03      	adds	r3, r0, #0
 8004ef6:	4910      	ldr	r1, [pc, #64]	@ (8004f38 <VW_DifferentialDrive+0xd8>)
 8004ef8:	1c18      	adds	r0, r3, #0
 8004efa:	f7fb fcbf 	bl	800087c <__aeabi_fdiv>
 8004efe:	1c03      	adds	r3, r0, #0
 8004f00:	1c1a      	adds	r2, r3, #0
 8004f02:	4b0f      	ldr	r3, [pc, #60]	@ (8004f40 <VW_DifferentialDrive+0xe0>)
 8004f04:	601a      	str	r2, [r3, #0]

    PID_PWM(rpm_ref_left,rpm_ref_right);
 8004f06:	4b0d      	ldr	r3, [pc, #52]	@ (8004f3c <VW_DifferentialDrive+0xdc>)
 8004f08:	681a      	ldr	r2, [r3, #0]
 8004f0a:	4b0d      	ldr	r3, [pc, #52]	@ (8004f40 <VW_DifferentialDrive+0xe0>)
 8004f0c:	681b      	ldr	r3, [r3, #0]
 8004f0e:	1c19      	adds	r1, r3, #0
 8004f10:	1c10      	adds	r0, r2, #0
 8004f12:	f7ff fd71 	bl	80049f8 <PID_PWM>

}
 8004f16:	46c0      	nop			@ (mov r8, r8)
 8004f18:	46bd      	mov	sp, r7
 8004f1a:	b003      	add	sp, #12
 8004f1c:	bd90      	pop	{r4, r7, pc}
 8004f1e:	46c0      	nop			@ (mov r8, r8)
 8004f20:	3dd1eb85 	.word	0x3dd1eb85
 8004f24:	3eb95810 	.word	0x3eb95810
 8004f28:	3e51eb85 	.word	0x3e51eb85
 8004f2c:	20000a04 	.word	0x20000a04
 8004f30:	20000a08 	.word	0x20000a08
 8004f34:	42700000 	.word	0x42700000
 8004f38:	40c90fdb 	.word	0x40c90fdb
 8004f3c:	20000a0c 	.word	0x20000a0c
 8004f40:	20000a10 	.word	0x20000a10

08004f44 <hcsr04_read>:
#define COMMON_TRIG_C       10 // TRIG pin1: PC10
#define COMMON_TRIG_B       0 // TRIG pin2: PB0
volatile uint8_t ultrasonic_read_delay_flag = 0;
volatile uint8_t noObjectCounter[4] = {0,0,0,0};  // counts consecutive out-of-range readings

void hcsr04_read(void){
 8004f44:	b580      	push	{r7, lr}
 8004f46:	af00      	add	r7, sp, #0
	ultrasonic_read_delay_flag += 1;
 8004f48:	4b08      	ldr	r3, [pc, #32]	@ (8004f6c <hcsr04_read+0x28>)
 8004f4a:	781b      	ldrb	r3, [r3, #0]
 8004f4c:	b2db      	uxtb	r3, r3
 8004f4e:	3301      	adds	r3, #1
 8004f50:	b2da      	uxtb	r2, r3
 8004f52:	4b06      	ldr	r3, [pc, #24]	@ (8004f6c <hcsr04_read+0x28>)
 8004f54:	701a      	strb	r2, [r3, #0]
	if (ultrasonic_read_delay_flag >= 5) { // every ~50 ms trigger next sensor
 8004f56:	4b05      	ldr	r3, [pc, #20]	@ (8004f6c <hcsr04_read+0x28>)
 8004f58:	781b      	ldrb	r3, [r3, #0]
 8004f5a:	b2db      	uxtb	r3, r3
 8004f5c:	2b04      	cmp	r3, #4
 8004f5e:	d901      	bls.n	8004f64 <hcsr04_read+0x20>
		start_hcsr04_trigger();
 8004f60:	f000 f93c 	bl	80051dc <start_hcsr04_trigger>
	}

}
 8004f64:	46c0      	nop			@ (mov r8, r8)
 8004f66:	46bd      	mov	sp, r7
 8004f68:	bd80      	pop	{r7, pc}
 8004f6a:	46c0      	nop			@ (mov r8, r8)
 8004f6c:	20000a35 	.word	0x20000a35

08004f70 <TIM3_init>:

void TIM3_init(void)
{
 8004f70:	b580      	push	{r7, lr}
 8004f72:	af00      	add	r7, sp, #0
    // Enable TIM3 clock
    RCC->APB1ENR |= RCC_APB1ENR_TIM3EN;
 8004f74:	4b0d      	ldr	r3, [pc, #52]	@ (8004fac <TIM3_init+0x3c>)
 8004f76:	69da      	ldr	r2, [r3, #28]
 8004f78:	4b0c      	ldr	r3, [pc, #48]	@ (8004fac <TIM3_init+0x3c>)
 8004f7a:	2102      	movs	r1, #2
 8004f7c:	430a      	orrs	r2, r1
 8004f7e:	61da      	str	r2, [r3, #28]

    // TIM3: 1 MHz tick (1 us)
    TIM3->PSC = 8 - 1;   // 8MHz / 8 = 1 MHz
 8004f80:	4b0b      	ldr	r3, [pc, #44]	@ (8004fb0 <TIM3_init+0x40>)
 8004f82:	2207      	movs	r2, #7
 8004f84:	629a      	str	r2, [r3, #40]	@ 0x28
    TIM3->ARR = 0xFFFF;  // free-running 16-bit
 8004f86:	4b0a      	ldr	r3, [pc, #40]	@ (8004fb0 <TIM3_init+0x40>)
 8004f88:	4a0a      	ldr	r2, [pc, #40]	@ (8004fb4 <TIM3_init+0x44>)
 8004f8a:	62da      	str	r2, [r3, #44]	@ 0x2c
    TIM3->CR1 |= TIM_CR1_CEN;
 8004f8c:	4b08      	ldr	r3, [pc, #32]	@ (8004fb0 <TIM3_init+0x40>)
 8004f8e:	681a      	ldr	r2, [r3, #0]
 8004f90:	4b07      	ldr	r3, [pc, #28]	@ (8004fb0 <TIM3_init+0x40>)
 8004f92:	2101      	movs	r1, #1
 8004f94:	430a      	orrs	r2, r1
 8004f96:	601a      	str	r2, [r3, #0]

    // Enable TIM3 IRQ in NVIC (handler used for CCR1)
    NVIC->ISER[0] |= (1 << TIM3_IRQn);
 8004f98:	4b07      	ldr	r3, [pc, #28]	@ (8004fb8 <TIM3_init+0x48>)
 8004f9a:	681a      	ldr	r2, [r3, #0]
 8004f9c:	4b06      	ldr	r3, [pc, #24]	@ (8004fb8 <TIM3_init+0x48>)
 8004f9e:	2180      	movs	r1, #128	@ 0x80
 8004fa0:	0249      	lsls	r1, r1, #9
 8004fa2:	430a      	orrs	r2, r1
 8004fa4:	601a      	str	r2, [r3, #0]
}
 8004fa6:	46c0      	nop			@ (mov r8, r8)
 8004fa8:	46bd      	mov	sp, r7
 8004faa:	bd80      	pop	{r7, pc}
 8004fac:	40021000 	.word	0x40021000
 8004fb0:	40000400 	.word	0x40000400
 8004fb4:	0000ffff 	.word	0x0000ffff
 8004fb8:	e000e100 	.word	0xe000e100

08004fbc <TIM3_IRQHandler>:

void TIM3_IRQHandler(void)
{
 8004fbc:	b580      	push	{r7, lr}
 8004fbe:	af00      	add	r7, sp, #0
    if (TIM3->SR & TIM_SR_CC1IF) {
 8004fc0:	4b0d      	ldr	r3, [pc, #52]	@ (8004ff8 <TIM3_IRQHandler+0x3c>)
 8004fc2:	691b      	ldr	r3, [r3, #16]
 8004fc4:	2202      	movs	r2, #2
 8004fc6:	4013      	ands	r3, r2
 8004fc8:	d012      	beq.n	8004ff0 <TIM3_IRQHandler+0x34>
        TIM3->SR &= ~TIM_SR_CC1IF;
 8004fca:	4b0b      	ldr	r3, [pc, #44]	@ (8004ff8 <TIM3_IRQHandler+0x3c>)
 8004fcc:	691a      	ldr	r2, [r3, #16]
 8004fce:	4b0a      	ldr	r3, [pc, #40]	@ (8004ff8 <TIM3_IRQHandler+0x3c>)
 8004fd0:	2102      	movs	r1, #2
 8004fd2:	438a      	bics	r2, r1
 8004fd4:	611a      	str	r2, [r3, #16]
        // Clear BOTH trigger pins (PC10 + PB0)
		GPIOC->BRR = (1u << COMMON_TRIG_C);
 8004fd6:	4b09      	ldr	r3, [pc, #36]	@ (8004ffc <TIM3_IRQHandler+0x40>)
 8004fd8:	2280      	movs	r2, #128	@ 0x80
 8004fda:	00d2      	lsls	r2, r2, #3
 8004fdc:	629a      	str	r2, [r3, #40]	@ 0x28
		GPIOB->BRR = (1u << COMMON_TRIG_B);
 8004fde:	4b08      	ldr	r3, [pc, #32]	@ (8005000 <TIM3_IRQHandler+0x44>)
 8004fe0:	2201      	movs	r2, #1
 8004fe2:	629a      	str	r2, [r3, #40]	@ 0x28
        // disable CC1 interrupt until next trigger
        TIM3->DIER &= ~TIM_DIER_CC1IE;
 8004fe4:	4b04      	ldr	r3, [pc, #16]	@ (8004ff8 <TIM3_IRQHandler+0x3c>)
 8004fe6:	68da      	ldr	r2, [r3, #12]
 8004fe8:	4b03      	ldr	r3, [pc, #12]	@ (8004ff8 <TIM3_IRQHandler+0x3c>)
 8004fea:	2102      	movs	r1, #2
 8004fec:	438a      	bics	r2, r1
 8004fee:	60da      	str	r2, [r3, #12]
    }
}
 8004ff0:	46c0      	nop			@ (mov r8, r8)
 8004ff2:	46bd      	mov	sp, r7
 8004ff4:	bd80      	pop	{r7, pc}
 8004ff6:	46c0      	nop			@ (mov r8, r8)
 8004ff8:	40000400 	.word	0x40000400
 8004ffc:	48000800 	.word	0x48000800
 8005000:	48000400 	.word	0x48000400

08005004 <init_GPIO_EXTI_ultrasonic>:
void init_GPIO_EXTI_ultrasonic(void)
{
 8005004:	b580      	push	{r7, lr}
 8005006:	b082      	sub	sp, #8
 8005008:	af00      	add	r7, sp, #0
	// Enable GPIOB, GPIOC clocks and SYSCFG
	    RCC->AHBENR |= RCC_AHBENR_GPIOBEN | RCC_AHBENR_GPIOCEN;
 800500a:	4b6b      	ldr	r3, [pc, #428]	@ (80051b8 <init_GPIO_EXTI_ultrasonic+0x1b4>)
 800500c:	695a      	ldr	r2, [r3, #20]
 800500e:	4b6a      	ldr	r3, [pc, #424]	@ (80051b8 <init_GPIO_EXTI_ultrasonic+0x1b4>)
 8005010:	21c0      	movs	r1, #192	@ 0xc0
 8005012:	0309      	lsls	r1, r1, #12
 8005014:	430a      	orrs	r2, r1
 8005016:	615a      	str	r2, [r3, #20]
	    RCC->APB2ENR |= RCC_APB2ENR_SYSCFGEN;
 8005018:	4b67      	ldr	r3, [pc, #412]	@ (80051b8 <init_GPIO_EXTI_ultrasonic+0x1b4>)
 800501a:	699a      	ldr	r2, [r3, #24]
 800501c:	4b66      	ldr	r3, [pc, #408]	@ (80051b8 <init_GPIO_EXTI_ultrasonic+0x1b4>)
 800501e:	2101      	movs	r1, #1
 8005020:	430a      	orrs	r2, r1
 8005022:	619a      	str	r2, [r3, #24]

	/* -------- TRIG PINS: PC10 + PB0 -------- */

	// PC10: output, push-pull, low
	GPIOC->MODER &= ~(3u << (COMMON_TRIG_C * 2));
 8005024:	4b65      	ldr	r3, [pc, #404]	@ (80051bc <init_GPIO_EXTI_ultrasonic+0x1b8>)
 8005026:	681a      	ldr	r2, [r3, #0]
 8005028:	4b64      	ldr	r3, [pc, #400]	@ (80051bc <init_GPIO_EXTI_ultrasonic+0x1b8>)
 800502a:	4965      	ldr	r1, [pc, #404]	@ (80051c0 <init_GPIO_EXTI_ultrasonic+0x1bc>)
 800502c:	400a      	ands	r2, r1
 800502e:	601a      	str	r2, [r3, #0]
	GPIOC->MODER |=  (1u << (COMMON_TRIG_C * 2)); // output
 8005030:	4b62      	ldr	r3, [pc, #392]	@ (80051bc <init_GPIO_EXTI_ultrasonic+0x1b8>)
 8005032:	681a      	ldr	r2, [r3, #0]
 8005034:	4b61      	ldr	r3, [pc, #388]	@ (80051bc <init_GPIO_EXTI_ultrasonic+0x1b8>)
 8005036:	2180      	movs	r1, #128	@ 0x80
 8005038:	0349      	lsls	r1, r1, #13
 800503a:	430a      	orrs	r2, r1
 800503c:	601a      	str	r2, [r3, #0]
	GPIOC->OTYPER &= ~(1u << COMMON_TRIG_C);
 800503e:	4b5f      	ldr	r3, [pc, #380]	@ (80051bc <init_GPIO_EXTI_ultrasonic+0x1b8>)
 8005040:	685a      	ldr	r2, [r3, #4]
 8005042:	4b5e      	ldr	r3, [pc, #376]	@ (80051bc <init_GPIO_EXTI_ultrasonic+0x1b8>)
 8005044:	495f      	ldr	r1, [pc, #380]	@ (80051c4 <init_GPIO_EXTI_ultrasonic+0x1c0>)
 8005046:	400a      	ands	r2, r1
 8005048:	605a      	str	r2, [r3, #4]
	GPIOC->OSPEEDR |= (3u << (COMMON_TRIG_C * 2)); // push-pull
 800504a:	4b5c      	ldr	r3, [pc, #368]	@ (80051bc <init_GPIO_EXTI_ultrasonic+0x1b8>)
 800504c:	689a      	ldr	r2, [r3, #8]
 800504e:	4b5b      	ldr	r3, [pc, #364]	@ (80051bc <init_GPIO_EXTI_ultrasonic+0x1b8>)
 8005050:	21c0      	movs	r1, #192	@ 0xc0
 8005052:	0389      	lsls	r1, r1, #14
 8005054:	430a      	orrs	r2, r1
 8005056:	609a      	str	r2, [r3, #8]
	GPIOC->BRR = (1u << COMMON_TRIG_C); // ensure low
 8005058:	4b58      	ldr	r3, [pc, #352]	@ (80051bc <init_GPIO_EXTI_ultrasonic+0x1b8>)
 800505a:	2280      	movs	r2, #128	@ 0x80
 800505c:	00d2      	lsls	r2, r2, #3
 800505e:	629a      	str	r2, [r3, #40]	@ 0x28

	// PB0: output, push-pull, low
	GPIOB->MODER &= ~(3u << (COMMON_TRIG_B * 2));
 8005060:	4b59      	ldr	r3, [pc, #356]	@ (80051c8 <init_GPIO_EXTI_ultrasonic+0x1c4>)
 8005062:	681a      	ldr	r2, [r3, #0]
 8005064:	4b58      	ldr	r3, [pc, #352]	@ (80051c8 <init_GPIO_EXTI_ultrasonic+0x1c4>)
 8005066:	2103      	movs	r1, #3
 8005068:	438a      	bics	r2, r1
 800506a:	601a      	str	r2, [r3, #0]
	GPIOB->MODER |=  (1u << (COMMON_TRIG_B * 2)); // output
 800506c:	4b56      	ldr	r3, [pc, #344]	@ (80051c8 <init_GPIO_EXTI_ultrasonic+0x1c4>)
 800506e:	681a      	ldr	r2, [r3, #0]
 8005070:	4b55      	ldr	r3, [pc, #340]	@ (80051c8 <init_GPIO_EXTI_ultrasonic+0x1c4>)
 8005072:	2101      	movs	r1, #1
 8005074:	430a      	orrs	r2, r1
 8005076:	601a      	str	r2, [r3, #0]
	GPIOB->OTYPER &= ~(1u << COMMON_TRIG_B);
 8005078:	4b53      	ldr	r3, [pc, #332]	@ (80051c8 <init_GPIO_EXTI_ultrasonic+0x1c4>)
 800507a:	685a      	ldr	r2, [r3, #4]
 800507c:	4b52      	ldr	r3, [pc, #328]	@ (80051c8 <init_GPIO_EXTI_ultrasonic+0x1c4>)
 800507e:	2101      	movs	r1, #1
 8005080:	438a      	bics	r2, r1
 8005082:	605a      	str	r2, [r3, #4]
	GPIOB->OSPEEDR |= (3u << (COMMON_TRIG_B * 2)); // push-pull
 8005084:	4b50      	ldr	r3, [pc, #320]	@ (80051c8 <init_GPIO_EXTI_ultrasonic+0x1c4>)
 8005086:	689a      	ldr	r2, [r3, #8]
 8005088:	4b4f      	ldr	r3, [pc, #316]	@ (80051c8 <init_GPIO_EXTI_ultrasonic+0x1c4>)
 800508a:	2103      	movs	r1, #3
 800508c:	430a      	orrs	r2, r1
 800508e:	609a      	str	r2, [r3, #8]
	GPIOB->BRR = (1u << COMMON_TRIG_B); // ensure low
 8005090:	4b4d      	ldr	r3, [pc, #308]	@ (80051c8 <init_GPIO_EXTI_ultrasonic+0x1c4>)
 8005092:	2201      	movs	r2, #1
 8005094:	629a      	str	r2, [r3, #40]	@ 0x28

    // Echo pins PB1, PB9, PB12, PB13: inputs with pull-down, EXTI both edges
    for (uint8_t i = 0; i < 4; ++i) {
 8005096:	1dfb      	adds	r3, r7, #7
 8005098:	2200      	movs	r2, #0
 800509a:	701a      	strb	r2, [r3, #0]
 800509c:	e078      	b.n	8005190 <init_GPIO_EXTI_ultrasonic+0x18c>
        uint8_t pin = echo_pin[i];  // PBx
 800509e:	1dfb      	adds	r3, r7, #7
 80050a0:	781a      	ldrb	r2, [r3, #0]
 80050a2:	1dbb      	adds	r3, r7, #6
 80050a4:	4949      	ldr	r1, [pc, #292]	@ (80051cc <init_GPIO_EXTI_ultrasonic+0x1c8>)
 80050a6:	5c8a      	ldrb	r2, [r1, r2]
 80050a8:	701a      	strb	r2, [r3, #0]
        // input mode
        GPIOB->MODER &= ~(3u << (pin * 2));
 80050aa:	4b47      	ldr	r3, [pc, #284]	@ (80051c8 <init_GPIO_EXTI_ultrasonic+0x1c4>)
 80050ac:	681a      	ldr	r2, [r3, #0]
 80050ae:	1dbb      	adds	r3, r7, #6
 80050b0:	781b      	ldrb	r3, [r3, #0]
 80050b2:	005b      	lsls	r3, r3, #1
 80050b4:	2103      	movs	r1, #3
 80050b6:	4099      	lsls	r1, r3
 80050b8:	000b      	movs	r3, r1
 80050ba:	43d9      	mvns	r1, r3
 80050bc:	4b42      	ldr	r3, [pc, #264]	@ (80051c8 <init_GPIO_EXTI_ultrasonic+0x1c4>)
 80050be:	400a      	ands	r2, r1
 80050c0:	601a      	str	r2, [r3, #0]
        // pull-down
        GPIOB->PUPDR &= ~(3u << (pin * 2));
 80050c2:	4b41      	ldr	r3, [pc, #260]	@ (80051c8 <init_GPIO_EXTI_ultrasonic+0x1c4>)
 80050c4:	68da      	ldr	r2, [r3, #12]
 80050c6:	1dbb      	adds	r3, r7, #6
 80050c8:	781b      	ldrb	r3, [r3, #0]
 80050ca:	005b      	lsls	r3, r3, #1
 80050cc:	2103      	movs	r1, #3
 80050ce:	4099      	lsls	r1, r3
 80050d0:	000b      	movs	r3, r1
 80050d2:	43d9      	mvns	r1, r3
 80050d4:	4b3c      	ldr	r3, [pc, #240]	@ (80051c8 <init_GPIO_EXTI_ultrasonic+0x1c4>)
 80050d6:	400a      	ands	r2, r1
 80050d8:	60da      	str	r2, [r3, #12]
        GPIOB->PUPDR |=  (2u << (pin * 2)); // pull-down
 80050da:	4b3b      	ldr	r3, [pc, #236]	@ (80051c8 <init_GPIO_EXTI_ultrasonic+0x1c4>)
 80050dc:	68d9      	ldr	r1, [r3, #12]
 80050de:	1dbb      	adds	r3, r7, #6
 80050e0:	781b      	ldrb	r3, [r3, #0]
 80050e2:	005b      	lsls	r3, r3, #1
 80050e4:	2202      	movs	r2, #2
 80050e6:	409a      	lsls	r2, r3
 80050e8:	4b37      	ldr	r3, [pc, #220]	@ (80051c8 <init_GPIO_EXTI_ultrasonic+0x1c4>)
 80050ea:	430a      	orrs	r2, r1
 80050ec:	60da      	str	r2, [r3, #12]

        // map EXTI line to PB via SYSCFG
        uint8_t reg = pin >> 2;           // EXTICR index 0..3
 80050ee:	1d7b      	adds	r3, r7, #5
 80050f0:	1dba      	adds	r2, r7, #6
 80050f2:	7812      	ldrb	r2, [r2, #0]
 80050f4:	0892      	lsrs	r2, r2, #2
 80050f6:	701a      	strb	r2, [r3, #0]
        uint8_t pos = (pin & 3u) * 4u;
 80050f8:	1dbb      	adds	r3, r7, #6
 80050fa:	781b      	ldrb	r3, [r3, #0]
 80050fc:	2203      	movs	r2, #3
 80050fe:	4013      	ands	r3, r2
 8005100:	b2da      	uxtb	r2, r3
 8005102:	1d3b      	adds	r3, r7, #4
 8005104:	0092      	lsls	r2, r2, #2
 8005106:	701a      	strb	r2, [r3, #0]
        SYSCFG->EXTICR[reg] &= ~(0xFu << pos);
 8005108:	4a31      	ldr	r2, [pc, #196]	@ (80051d0 <init_GPIO_EXTI_ultrasonic+0x1cc>)
 800510a:	1d7b      	adds	r3, r7, #5
 800510c:	781b      	ldrb	r3, [r3, #0]
 800510e:	3302      	adds	r3, #2
 8005110:	009b      	lsls	r3, r3, #2
 8005112:	589a      	ldr	r2, [r3, r2]
 8005114:	1d3b      	adds	r3, r7, #4
 8005116:	781b      	ldrb	r3, [r3, #0]
 8005118:	210f      	movs	r1, #15
 800511a:	4099      	lsls	r1, r3
 800511c:	000b      	movs	r3, r1
 800511e:	43d9      	mvns	r1, r3
 8005120:	482b      	ldr	r0, [pc, #172]	@ (80051d0 <init_GPIO_EXTI_ultrasonic+0x1cc>)
 8005122:	1d7b      	adds	r3, r7, #5
 8005124:	781b      	ldrb	r3, [r3, #0]
 8005126:	400a      	ands	r2, r1
 8005128:	3302      	adds	r3, #2
 800512a:	009b      	lsls	r3, r3, #2
 800512c:	501a      	str	r2, [r3, r0]
        SYSCFG->EXTICR[reg] |=  (1u << pos); // 1 = port B
 800512e:	4a28      	ldr	r2, [pc, #160]	@ (80051d0 <init_GPIO_EXTI_ultrasonic+0x1cc>)
 8005130:	1d7b      	adds	r3, r7, #5
 8005132:	781b      	ldrb	r3, [r3, #0]
 8005134:	3302      	adds	r3, #2
 8005136:	009b      	lsls	r3, r3, #2
 8005138:	5899      	ldr	r1, [r3, r2]
 800513a:	1d3b      	adds	r3, r7, #4
 800513c:	781b      	ldrb	r3, [r3, #0]
 800513e:	2201      	movs	r2, #1
 8005140:	409a      	lsls	r2, r3
 8005142:	4823      	ldr	r0, [pc, #140]	@ (80051d0 <init_GPIO_EXTI_ultrasonic+0x1cc>)
 8005144:	1d7b      	adds	r3, r7, #5
 8005146:	781b      	ldrb	r3, [r3, #0]
 8005148:	430a      	orrs	r2, r1
 800514a:	3302      	adds	r3, #2
 800514c:	009b      	lsls	r3, r3, #2
 800514e:	501a      	str	r2, [r3, r0]
        // unmask and both edges
        EXTI->IMR  |= (1u << pin);
 8005150:	4b20      	ldr	r3, [pc, #128]	@ (80051d4 <init_GPIO_EXTI_ultrasonic+0x1d0>)
 8005152:	6819      	ldr	r1, [r3, #0]
 8005154:	1dbb      	adds	r3, r7, #6
 8005156:	781b      	ldrb	r3, [r3, #0]
 8005158:	2201      	movs	r2, #1
 800515a:	409a      	lsls	r2, r3
 800515c:	4b1d      	ldr	r3, [pc, #116]	@ (80051d4 <init_GPIO_EXTI_ultrasonic+0x1d0>)
 800515e:	430a      	orrs	r2, r1
 8005160:	601a      	str	r2, [r3, #0]
        EXTI->RTSR |= (1u << pin);
 8005162:	4b1c      	ldr	r3, [pc, #112]	@ (80051d4 <init_GPIO_EXTI_ultrasonic+0x1d0>)
 8005164:	6899      	ldr	r1, [r3, #8]
 8005166:	1dbb      	adds	r3, r7, #6
 8005168:	781b      	ldrb	r3, [r3, #0]
 800516a:	2201      	movs	r2, #1
 800516c:	409a      	lsls	r2, r3
 800516e:	4b19      	ldr	r3, [pc, #100]	@ (80051d4 <init_GPIO_EXTI_ultrasonic+0x1d0>)
 8005170:	430a      	orrs	r2, r1
 8005172:	609a      	str	r2, [r3, #8]
        EXTI->FTSR |= (1u << pin);
 8005174:	4b17      	ldr	r3, [pc, #92]	@ (80051d4 <init_GPIO_EXTI_ultrasonic+0x1d0>)
 8005176:	68d9      	ldr	r1, [r3, #12]
 8005178:	1dbb      	adds	r3, r7, #6
 800517a:	781b      	ldrb	r3, [r3, #0]
 800517c:	2201      	movs	r2, #1
 800517e:	409a      	lsls	r2, r3
 8005180:	4b14      	ldr	r3, [pc, #80]	@ (80051d4 <init_GPIO_EXTI_ultrasonic+0x1d0>)
 8005182:	430a      	orrs	r2, r1
 8005184:	60da      	str	r2, [r3, #12]
    for (uint8_t i = 0; i < 4; ++i) {
 8005186:	1dfb      	adds	r3, r7, #7
 8005188:	1dfa      	adds	r2, r7, #7
 800518a:	7812      	ldrb	r2, [r2, #0]
 800518c:	3201      	adds	r2, #1
 800518e:	701a      	strb	r2, [r3, #0]
 8005190:	1dfb      	adds	r3, r7, #7
 8005192:	781b      	ldrb	r3, [r3, #0]
 8005194:	2b03      	cmp	r3, #3
 8005196:	d982      	bls.n	800509e <init_GPIO_EXTI_ultrasonic+0x9a>
    }

    // Enable EXTI IRQs used
    NVIC->ISER[0] |= (1 << EXTI0_1_IRQn);   // handles EXTI0 & EXTI1 (PB1 -> EXTI1)
 8005198:	4b0f      	ldr	r3, [pc, #60]	@ (80051d8 <init_GPIO_EXTI_ultrasonic+0x1d4>)
 800519a:	681a      	ldr	r2, [r3, #0]
 800519c:	4b0e      	ldr	r3, [pc, #56]	@ (80051d8 <init_GPIO_EXTI_ultrasonic+0x1d4>)
 800519e:	2120      	movs	r1, #32
 80051a0:	430a      	orrs	r2, r1
 80051a2:	601a      	str	r2, [r3, #0]
    NVIC->ISER[0] |= (1 << EXTI4_15_IRQn);  // handles EXTI4..15 (encoders + PB9 PB12 PB13)
 80051a4:	4b0c      	ldr	r3, [pc, #48]	@ (80051d8 <init_GPIO_EXTI_ultrasonic+0x1d4>)
 80051a6:	681a      	ldr	r2, [r3, #0]
 80051a8:	4b0b      	ldr	r3, [pc, #44]	@ (80051d8 <init_GPIO_EXTI_ultrasonic+0x1d4>)
 80051aa:	2180      	movs	r1, #128	@ 0x80
 80051ac:	430a      	orrs	r2, r1
 80051ae:	601a      	str	r2, [r3, #0]
}
 80051b0:	46c0      	nop			@ (mov r8, r8)
 80051b2:	46bd      	mov	sp, r7
 80051b4:	b002      	add	sp, #8
 80051b6:	bd80      	pop	{r7, pc}
 80051b8:	40021000 	.word	0x40021000
 80051bc:	48000800 	.word	0x48000800
 80051c0:	ffcfffff 	.word	0xffcfffff
 80051c4:	fffffbff 	.word	0xfffffbff
 80051c8:	48000400 	.word	0x48000400
 80051cc:	080068b8 	.word	0x080068b8
 80051d0:	40010000 	.word	0x40010000
 80051d4:	40010400 	.word	0x40010400
 80051d8:	e000e100 	.word	0xe000e100

080051dc <start_hcsr04_trigger>:
void start_hcsr04_trigger(void)
{
 80051dc:	b580      	push	{r7, lr}
 80051de:	b082      	sub	sp, #8
 80051e0:	af00      	add	r7, sp, #0
	// Ensure both TRIG pins start low
	GPIOC->BRR = (1u << COMMON_TRIG_C);
 80051e2:	4b19      	ldr	r3, [pc, #100]	@ (8005248 <start_hcsr04_trigger+0x6c>)
 80051e4:	2280      	movs	r2, #128	@ 0x80
 80051e6:	00d2      	lsls	r2, r2, #3
 80051e8:	629a      	str	r2, [r3, #40]	@ 0x28
	GPIOB->BRR = (1u << COMMON_TRIG_B);
 80051ea:	4b18      	ldr	r3, [pc, #96]	@ (800524c <start_hcsr04_trigger+0x70>)
 80051ec:	2201      	movs	r2, #1
 80051ee:	629a      	str	r2, [r3, #40]	@ 0x28

	// Set both TRIG pins high
	GPIOC->BSRR = (1u << COMMON_TRIG_C);
 80051f0:	4b15      	ldr	r3, [pc, #84]	@ (8005248 <start_hcsr04_trigger+0x6c>)
 80051f2:	2280      	movs	r2, #128	@ 0x80
 80051f4:	00d2      	lsls	r2, r2, #3
 80051f6:	619a      	str	r2, [r3, #24]
	GPIOB->BSRR = (1u << COMMON_TRIG_B);
 80051f8:	4b14      	ldr	r3, [pc, #80]	@ (800524c <start_hcsr04_trigger+0x70>)
 80051fa:	2201      	movs	r2, #1
 80051fc:	619a      	str	r2, [r3, #24]

    uint16_t now = (uint16_t)TIM3->CNT;
 80051fe:	4b14      	ldr	r3, [pc, #80]	@ (8005250 <start_hcsr04_trigger+0x74>)
 8005200:	6a5a      	ldr	r2, [r3, #36]	@ 0x24
 8005202:	1dbb      	adds	r3, r7, #6
 8005204:	801a      	strh	r2, [r3, #0]
    uint16_t target = (uint16_t)(now + 10u); // 10 microseconds later
 8005206:	1d3b      	adds	r3, r7, #4
 8005208:	1dba      	adds	r2, r7, #6
 800520a:	8812      	ldrh	r2, [r2, #0]
 800520c:	320a      	adds	r2, #10
 800520e:	801a      	strh	r2, [r3, #0]
    TIM3->CCR1 = target;
 8005210:	4b0f      	ldr	r3, [pc, #60]	@ (8005250 <start_hcsr04_trigger+0x74>)
 8005212:	1d3a      	adds	r2, r7, #4
 8005214:	8812      	ldrh	r2, [r2, #0]
 8005216:	635a      	str	r2, [r3, #52]	@ 0x34
    TIM3->DIER |= TIM_DIER_CC1IE; // enable CC1 interrupt
 8005218:	4b0d      	ldr	r3, [pc, #52]	@ (8005250 <start_hcsr04_trigger+0x74>)
 800521a:	68da      	ldr	r2, [r3, #12]
 800521c:	4b0c      	ldr	r3, [pc, #48]	@ (8005250 <start_hcsr04_trigger+0x74>)
 800521e:	2102      	movs	r1, #2
 8005220:	430a      	orrs	r2, r1
 8005222:	60da      	str	r2, [r3, #12]

	currentSensor = (currentSensor + 1u) & 3u;
 8005224:	4b0b      	ldr	r3, [pc, #44]	@ (8005254 <start_hcsr04_trigger+0x78>)
 8005226:	781b      	ldrb	r3, [r3, #0]
 8005228:	b2db      	uxtb	r3, r3
 800522a:	3301      	adds	r3, #1
 800522c:	b2db      	uxtb	r3, r3
 800522e:	2203      	movs	r2, #3
 8005230:	4013      	ands	r3, r2
 8005232:	b2da      	uxtb	r2, r3
 8005234:	4b07      	ldr	r3, [pc, #28]	@ (8005254 <start_hcsr04_trigger+0x78>)
 8005236:	701a      	strb	r2, [r3, #0]
	ultrasonic_read_delay_flag = 0;
 8005238:	4b07      	ldr	r3, [pc, #28]	@ (8005258 <start_hcsr04_trigger+0x7c>)
 800523a:	2200      	movs	r2, #0
 800523c:	701a      	strb	r2, [r3, #0]
}
 800523e:	46c0      	nop			@ (mov r8, r8)
 8005240:	46bd      	mov	sp, r7
 8005242:	b002      	add	sp, #8
 8005244:	bd80      	pop	{r7, pc}
 8005246:	46c0      	nop			@ (mov r8, r8)
 8005248:	48000800 	.word	0x48000800
 800524c:	48000400 	.word	0x48000400
 8005250:	40000400 	.word	0x40000400
 8005254:	20000a34 	.word	0x20000a34
 8005258:	20000a35 	.word	0x20000a35

0800525c <EXTI0_1_IRQHandler>:
void EXTI0_1_IRQHandler(void)
{
 800525c:	b580      	push	{r7, lr}
 800525e:	b084      	sub	sp, #16
 8005260:	af00      	add	r7, sp, #0
    uint32_t pr = EXTI->PR;
 8005262:	4b3d      	ldr	r3, [pc, #244]	@ (8005358 <EXTI0_1_IRQHandler+0xfc>)
 8005264:	695b      	ldr	r3, [r3, #20]
 8005266:	60fb      	str	r3, [r7, #12]

    //Sensor 0 is PB1
    if (pr & (1u << 1)) {
 8005268:	68fb      	ldr	r3, [r7, #12]
 800526a:	2202      	movs	r2, #2
 800526c:	4013      	ands	r3, r2
 800526e:	d100      	bne.n	8005272 <EXTI0_1_IRQHandler+0x16>
 8005270:	e06e      	b.n	8005350 <EXTI0_1_IRQHandler+0xf4>
        EXTI->PR = (1u << 1); // clear pending bit
 8005272:	4b39      	ldr	r3, [pc, #228]	@ (8005358 <EXTI0_1_IRQHandler+0xfc>)
 8005274:	2202      	movs	r2, #2
 8005276:	615a      	str	r2, [r3, #20]

        if (GPIOB->IDR & (1u << 1)) {
 8005278:	4b38      	ldr	r3, [pc, #224]	@ (800535c <EXTI0_1_IRQHandler+0x100>)
 800527a:	691b      	ldr	r3, [r3, #16]
 800527c:	2202      	movs	r2, #2
 800527e:	4013      	ands	r3, r2
 8005280:	d005      	beq.n	800528e <EXTI0_1_IRQHandler+0x32>
            // Rising edge
            echoStart[0] = (uint16_t)TIM3->CNT;
 8005282:	4b37      	ldr	r3, [pc, #220]	@ (8005360 <EXTI0_1_IRQHandler+0x104>)
 8005284:	6a5b      	ldr	r3, [r3, #36]	@ 0x24
 8005286:	b29a      	uxth	r2, r3
 8005288:	4b36      	ldr	r3, [pc, #216]	@ (8005364 <EXTI0_1_IRQHandler+0x108>)
 800528a:	801a      	strh	r2, [r3, #0]
                }
                echoStart[0] = 0;  // reset start
            }
        }
    }
}
 800528c:	e060      	b.n	8005350 <EXTI0_1_IRQHandler+0xf4>
            if (echoStart[0] != 0) {
 800528e:	4b35      	ldr	r3, [pc, #212]	@ (8005364 <EXTI0_1_IRQHandler+0x108>)
 8005290:	881b      	ldrh	r3, [r3, #0]
 8005292:	b29b      	uxth	r3, r3
 8005294:	2b00      	cmp	r3, #0
 8005296:	d05b      	beq.n	8005350 <EXTI0_1_IRQHandler+0xf4>
                echoEnd[0] = (uint16_t)TIM3->CNT;
 8005298:	4b31      	ldr	r3, [pc, #196]	@ (8005360 <EXTI0_1_IRQHandler+0x104>)
 800529a:	6a5b      	ldr	r3, [r3, #36]	@ 0x24
 800529c:	b29a      	uxth	r2, r3
 800529e:	4b32      	ldr	r3, [pc, #200]	@ (8005368 <EXTI0_1_IRQHandler+0x10c>)
 80052a0:	801a      	strh	r2, [r3, #0]
                uint16_t s = echoStart[0];
 80052a2:	210a      	movs	r1, #10
 80052a4:	187b      	adds	r3, r7, r1
 80052a6:	4a2f      	ldr	r2, [pc, #188]	@ (8005364 <EXTI0_1_IRQHandler+0x108>)
 80052a8:	8812      	ldrh	r2, [r2, #0]
 80052aa:	801a      	strh	r2, [r3, #0]
                uint16_t e = echoEnd[0];
 80052ac:	2008      	movs	r0, #8
 80052ae:	183b      	adds	r3, r7, r0
 80052b0:	4a2d      	ldr	r2, [pc, #180]	@ (8005368 <EXTI0_1_IRQHandler+0x10c>)
 80052b2:	8812      	ldrh	r2, [r2, #0]
 80052b4:	801a      	strh	r2, [r3, #0]
                uint16_t dur = (e >= s) ? (e - s) : (uint16_t)(0xFFFFu - s + e);
 80052b6:	183a      	adds	r2, r7, r0
 80052b8:	187b      	adds	r3, r7, r1
 80052ba:	8812      	ldrh	r2, [r2, #0]
 80052bc:	881b      	ldrh	r3, [r3, #0]
 80052be:	429a      	cmp	r2, r3
 80052c0:	d306      	bcc.n	80052d0 <EXTI0_1_IRQHandler+0x74>
 80052c2:	183a      	adds	r2, r7, r0
 80052c4:	187b      	adds	r3, r7, r1
 80052c6:	8812      	ldrh	r2, [r2, #0]
 80052c8:	881b      	ldrh	r3, [r3, #0]
 80052ca:	1ad3      	subs	r3, r2, r3
 80052cc:	b29b      	uxth	r3, r3
 80052ce:	e009      	b.n	80052e4 <EXTI0_1_IRQHandler+0x88>
 80052d0:	2308      	movs	r3, #8
 80052d2:	18fa      	adds	r2, r7, r3
 80052d4:	230a      	movs	r3, #10
 80052d6:	18fb      	adds	r3, r7, r3
 80052d8:	8812      	ldrh	r2, [r2, #0]
 80052da:	881b      	ldrh	r3, [r3, #0]
 80052dc:	1ad3      	subs	r3, r2, r3
 80052de:	b29b      	uxth	r3, r3
 80052e0:	3b01      	subs	r3, #1
 80052e2:	b29b      	uxth	r3, r3
 80052e4:	1dba      	adds	r2, r7, #6
 80052e6:	8013      	strh	r3, [r2, #0]
                float d = ((float)dur * 0.0343f) * 0.5f;
 80052e8:	1dbb      	adds	r3, r7, #6
 80052ea:	881b      	ldrh	r3, [r3, #0]
 80052ec:	0018      	movs	r0, r3
 80052ee:	f7fc f8d7 	bl	80014a0 <__aeabi_ui2f>
 80052f2:	1c03      	adds	r3, r0, #0
 80052f4:	491d      	ldr	r1, [pc, #116]	@ (800536c <EXTI0_1_IRQHandler+0x110>)
 80052f6:	1c18      	adds	r0, r3, #0
 80052f8:	f7fb fc8e 	bl	8000c18 <__aeabi_fmul>
 80052fc:	1c03      	adds	r3, r0, #0
 80052fe:	21fc      	movs	r1, #252	@ 0xfc
 8005300:	0589      	lsls	r1, r1, #22
 8005302:	1c18      	adds	r0, r3, #0
 8005304:	f7fb fc88 	bl	8000c18 <__aeabi_fmul>
 8005308:	1c03      	adds	r3, r0, #0
 800530a:	603b      	str	r3, [r7, #0]
                if (d < 400.0f){  // sanity check for overflow/invalid echo
 800530c:	4918      	ldr	r1, [pc, #96]	@ (8005370 <EXTI0_1_IRQHandler+0x114>)
 800530e:	6838      	ldr	r0, [r7, #0]
 8005310:	f7fb f882 	bl	8000418 <__aeabi_fcmplt>
 8005314:	1e03      	subs	r3, r0, #0
 8005316:	d006      	beq.n	8005326 <EXTI0_1_IRQHandler+0xca>
                    distance_cm[0] = d;
 8005318:	4b16      	ldr	r3, [pc, #88]	@ (8005374 <EXTI0_1_IRQHandler+0x118>)
 800531a:	683a      	ldr	r2, [r7, #0]
 800531c:	601a      	str	r2, [r3, #0]
                    noObjectCounter[0] = 0;   // reset counter
 800531e:	4b16      	ldr	r3, [pc, #88]	@ (8005378 <EXTI0_1_IRQHandler+0x11c>)
 8005320:	2200      	movs	r2, #0
 8005322:	701a      	strb	r2, [r3, #0]
 8005324:	e011      	b.n	800534a <EXTI0_1_IRQHandler+0xee>
                	noObjectCounter[0]++;
 8005326:	4b14      	ldr	r3, [pc, #80]	@ (8005378 <EXTI0_1_IRQHandler+0x11c>)
 8005328:	781b      	ldrb	r3, [r3, #0]
 800532a:	b2db      	uxtb	r3, r3
 800532c:	3301      	adds	r3, #1
 800532e:	b2da      	uxtb	r2, r3
 8005330:	4b11      	ldr	r3, [pc, #68]	@ (8005378 <EXTI0_1_IRQHandler+0x11c>)
 8005332:	701a      	strb	r2, [r3, #0]
					if (noObjectCounter[0] >= 4) {
 8005334:	4b10      	ldr	r3, [pc, #64]	@ (8005378 <EXTI0_1_IRQHandler+0x11c>)
 8005336:	781b      	ldrb	r3, [r3, #0]
 8005338:	b2db      	uxtb	r3, r3
 800533a:	2b03      	cmp	r3, #3
 800533c:	d905      	bls.n	800534a <EXTI0_1_IRQHandler+0xee>
						distance_cm[0] = 999;  // now consider no object
 800533e:	4b0d      	ldr	r3, [pc, #52]	@ (8005374 <EXTI0_1_IRQHandler+0x118>)
 8005340:	4a0e      	ldr	r2, [pc, #56]	@ (800537c <EXTI0_1_IRQHandler+0x120>)
 8005342:	601a      	str	r2, [r3, #0]
						noObjectCounter[0] = 4;  // cap counter
 8005344:	4b0c      	ldr	r3, [pc, #48]	@ (8005378 <EXTI0_1_IRQHandler+0x11c>)
 8005346:	2204      	movs	r2, #4
 8005348:	701a      	strb	r2, [r3, #0]
                echoStart[0] = 0;  // reset start
 800534a:	4b06      	ldr	r3, [pc, #24]	@ (8005364 <EXTI0_1_IRQHandler+0x108>)
 800534c:	2200      	movs	r2, #0
 800534e:	801a      	strh	r2, [r3, #0]
}
 8005350:	46c0      	nop			@ (mov r8, r8)
 8005352:	46bd      	mov	sp, r7
 8005354:	b004      	add	sp, #16
 8005356:	bd80      	pop	{r7, pc}
 8005358:	40010400 	.word	0x40010400
 800535c:	48000400 	.word	0x48000400
 8005360:	40000400 	.word	0x40000400
 8005364:	20000a14 	.word	0x20000a14
 8005368:	20000a1c 	.word	0x20000a1c
 800536c:	3d0c7e28 	.word	0x3d0c7e28
 8005370:	43c80000 	.word	0x43c80000
 8005374:	20000a24 	.word	0x20000a24
 8005378:	20000a38 	.word	0x20000a38
 800537c:	4479c000 	.word	0x4479c000

08005380 <EXTI4_15_IRQHandler>:


// EXTI handler (EXTI lines 4..15)
void EXTI4_15_IRQHandler(void) {
 8005380:	b580      	push	{r7, lr}
 8005382:	b08a      	sub	sp, #40	@ 0x28
 8005384:	af00      	add	r7, sp, #0
    uint32_t pr = EXTI->PR;
 8005386:	4bc1      	ldr	r3, [pc, #772]	@ (800568c <EXTI4_15_IRQHandler+0x30c>)
 8005388:	695b      	ldr	r3, [r3, #20]
 800538a:	627b      	str	r3, [r7, #36]	@ 0x24

    if (pr & (1 << 4)) {
 800538c:	6a7b      	ldr	r3, [r7, #36]	@ 0x24
 800538e:	2210      	movs	r2, #16
 8005390:	4013      	ands	r3, r2
 8005392:	d005      	beq.n	80053a0 <EXTI4_15_IRQHandler+0x20>
        EXTI->PR = (1 << 4);   // clear pending
 8005394:	4bbd      	ldr	r3, [pc, #756]	@ (800568c <EXTI4_15_IRQHandler+0x30c>)
 8005396:	2210      	movs	r2, #16
 8005398:	615a      	str	r2, [r3, #20]
        update_encoder(1);     // encoder 1 (PB4/PB5)
 800539a:	2001      	movs	r0, #1
 800539c:	f7fd f8a4 	bl	80024e8 <update_encoder>
    }
    if (pr & (1 << 6)) {
 80053a0:	6a7b      	ldr	r3, [r7, #36]	@ 0x24
 80053a2:	2240      	movs	r2, #64	@ 0x40
 80053a4:	4013      	ands	r3, r2
 80053a6:	d005      	beq.n	80053b4 <EXTI4_15_IRQHandler+0x34>
        EXTI->PR = (1 << 6);   // clear pending
 80053a8:	4bb8      	ldr	r3, [pc, #736]	@ (800568c <EXTI4_15_IRQHandler+0x30c>)
 80053aa:	2240      	movs	r2, #64	@ 0x40
 80053ac:	615a      	str	r2, [r3, #20]
        update_encoder(2);     // encoder 2 (PA6/PA7)
 80053ae:	2002      	movs	r0, #2
 80053b0:	f7fd f89a 	bl	80024e8 <update_encoder>
    }
    // Ultrasonic echoes:
	// PB9 -> sensor index 1 (EXTI9)
	// --- Sensor 1: PB9 ---
	if (pr & (1u << 9)) {
 80053b4:	6a7a      	ldr	r2, [r7, #36]	@ 0x24
 80053b6:	2380      	movs	r3, #128	@ 0x80
 80053b8:	009b      	lsls	r3, r3, #2
 80053ba:	4013      	ands	r3, r2
 80053bc:	d100      	bne.n	80053c0 <EXTI4_15_IRQHandler+0x40>
 80053be:	e071      	b.n	80054a4 <EXTI4_15_IRQHandler+0x124>
		EXTI->PR = (1u << 9);
 80053c0:	4bb2      	ldr	r3, [pc, #712]	@ (800568c <EXTI4_15_IRQHandler+0x30c>)
 80053c2:	2280      	movs	r2, #128	@ 0x80
 80053c4:	0092      	lsls	r2, r2, #2
 80053c6:	615a      	str	r2, [r3, #20]
		if (GPIOB->IDR & (1u << 9)) {
 80053c8:	4bb1      	ldr	r3, [pc, #708]	@ (8005690 <EXTI4_15_IRQHandler+0x310>)
 80053ca:	691a      	ldr	r2, [r3, #16]
 80053cc:	2380      	movs	r3, #128	@ 0x80
 80053ce:	009b      	lsls	r3, r3, #2
 80053d0:	4013      	ands	r3, r2
 80053d2:	d005      	beq.n	80053e0 <EXTI4_15_IRQHandler+0x60>
			echoStart[1] = (uint16_t)TIM3->CNT;
 80053d4:	4baf      	ldr	r3, [pc, #700]	@ (8005694 <EXTI4_15_IRQHandler+0x314>)
 80053d6:	6a5b      	ldr	r3, [r3, #36]	@ 0x24
 80053d8:	b29a      	uxth	r2, r3
 80053da:	4baf      	ldr	r3, [pc, #700]	@ (8005698 <EXTI4_15_IRQHandler+0x318>)
 80053dc:	805a      	strh	r2, [r3, #2]
 80053de:	e061      	b.n	80054a4 <EXTI4_15_IRQHandler+0x124>
		} else if (echoStart[1] != 0) {
 80053e0:	4bad      	ldr	r3, [pc, #692]	@ (8005698 <EXTI4_15_IRQHandler+0x318>)
 80053e2:	885b      	ldrh	r3, [r3, #2]
 80053e4:	b29b      	uxth	r3, r3
 80053e6:	2b00      	cmp	r3, #0
 80053e8:	d05c      	beq.n	80054a4 <EXTI4_15_IRQHandler+0x124>
			echoEnd[1] = (uint16_t)TIM3->CNT;
 80053ea:	4baa      	ldr	r3, [pc, #680]	@ (8005694 <EXTI4_15_IRQHandler+0x314>)
 80053ec:	6a5b      	ldr	r3, [r3, #36]	@ 0x24
 80053ee:	b29a      	uxth	r2, r3
 80053f0:	4baa      	ldr	r3, [pc, #680]	@ (800569c <EXTI4_15_IRQHandler+0x31c>)
 80053f2:	805a      	strh	r2, [r3, #2]
			uint16_t s = echoStart[1], e = echoEnd[1];
 80053f4:	2122      	movs	r1, #34	@ 0x22
 80053f6:	187b      	adds	r3, r7, r1
 80053f8:	4aa7      	ldr	r2, [pc, #668]	@ (8005698 <EXTI4_15_IRQHandler+0x318>)
 80053fa:	8852      	ldrh	r2, [r2, #2]
 80053fc:	801a      	strh	r2, [r3, #0]
 80053fe:	2020      	movs	r0, #32
 8005400:	183b      	adds	r3, r7, r0
 8005402:	4aa6      	ldr	r2, [pc, #664]	@ (800569c <EXTI4_15_IRQHandler+0x31c>)
 8005404:	8852      	ldrh	r2, [r2, #2]
 8005406:	801a      	strh	r2, [r3, #0]
			uint16_t dur = (e >= s) ? (e - s) : (uint16_t)(0xFFFFu - s + e);
 8005408:	183a      	adds	r2, r7, r0
 800540a:	187b      	adds	r3, r7, r1
 800540c:	8812      	ldrh	r2, [r2, #0]
 800540e:	881b      	ldrh	r3, [r3, #0]
 8005410:	429a      	cmp	r2, r3
 8005412:	d306      	bcc.n	8005422 <EXTI4_15_IRQHandler+0xa2>
 8005414:	183a      	adds	r2, r7, r0
 8005416:	187b      	adds	r3, r7, r1
 8005418:	8812      	ldrh	r2, [r2, #0]
 800541a:	881b      	ldrh	r3, [r3, #0]
 800541c:	1ad3      	subs	r3, r2, r3
 800541e:	b29b      	uxth	r3, r3
 8005420:	e009      	b.n	8005436 <EXTI4_15_IRQHandler+0xb6>
 8005422:	2320      	movs	r3, #32
 8005424:	18fa      	adds	r2, r7, r3
 8005426:	2322      	movs	r3, #34	@ 0x22
 8005428:	18fb      	adds	r3, r7, r3
 800542a:	8812      	ldrh	r2, [r2, #0]
 800542c:	881b      	ldrh	r3, [r3, #0]
 800542e:	1ad3      	subs	r3, r2, r3
 8005430:	b29b      	uxth	r3, r3
 8005432:	3b01      	subs	r3, #1
 8005434:	b29b      	uxth	r3, r3
 8005436:	211e      	movs	r1, #30
 8005438:	187a      	adds	r2, r7, r1
 800543a:	8013      	strh	r3, [r2, #0]
			float d = ((float)dur * 0.0343f) * 0.5f;
 800543c:	187b      	adds	r3, r7, r1
 800543e:	881b      	ldrh	r3, [r3, #0]
 8005440:	0018      	movs	r0, r3
 8005442:	f7fc f82d 	bl	80014a0 <__aeabi_ui2f>
 8005446:	1c03      	adds	r3, r0, #0
 8005448:	4995      	ldr	r1, [pc, #596]	@ (80056a0 <EXTI4_15_IRQHandler+0x320>)
 800544a:	1c18      	adds	r0, r3, #0
 800544c:	f7fb fbe4 	bl	8000c18 <__aeabi_fmul>
 8005450:	1c03      	adds	r3, r0, #0
 8005452:	21fc      	movs	r1, #252	@ 0xfc
 8005454:	0589      	lsls	r1, r1, #22
 8005456:	1c18      	adds	r0, r3, #0
 8005458:	f7fb fbde 	bl	8000c18 <__aeabi_fmul>
 800545c:	1c03      	adds	r3, r0, #0
 800545e:	61bb      	str	r3, [r7, #24]
			if (d < 400.0f){  // sanity check for overflow/invalid echo
 8005460:	4990      	ldr	r1, [pc, #576]	@ (80056a4 <EXTI4_15_IRQHandler+0x324>)
 8005462:	69b8      	ldr	r0, [r7, #24]
 8005464:	f7fa ffd8 	bl	8000418 <__aeabi_fcmplt>
 8005468:	1e03      	subs	r3, r0, #0
 800546a:	d006      	beq.n	800547a <EXTI4_15_IRQHandler+0xfa>
				distance_cm[1] = d;
 800546c:	4b8e      	ldr	r3, [pc, #568]	@ (80056a8 <EXTI4_15_IRQHandler+0x328>)
 800546e:	69ba      	ldr	r2, [r7, #24]
 8005470:	605a      	str	r2, [r3, #4]
				noObjectCounter[1] = 0;   // reset counter
 8005472:	4b8e      	ldr	r3, [pc, #568]	@ (80056ac <EXTI4_15_IRQHandler+0x32c>)
 8005474:	2200      	movs	r2, #0
 8005476:	705a      	strb	r2, [r3, #1]
 8005478:	e011      	b.n	800549e <EXTI4_15_IRQHandler+0x11e>
			}
			else {                  // out of range
				noObjectCounter[1]++;
 800547a:	4b8c      	ldr	r3, [pc, #560]	@ (80056ac <EXTI4_15_IRQHandler+0x32c>)
 800547c:	785b      	ldrb	r3, [r3, #1]
 800547e:	b2db      	uxtb	r3, r3
 8005480:	3301      	adds	r3, #1
 8005482:	b2da      	uxtb	r2, r3
 8005484:	4b89      	ldr	r3, [pc, #548]	@ (80056ac <EXTI4_15_IRQHandler+0x32c>)
 8005486:	705a      	strb	r2, [r3, #1]
				if (noObjectCounter[1] >= 4) {
 8005488:	4b88      	ldr	r3, [pc, #544]	@ (80056ac <EXTI4_15_IRQHandler+0x32c>)
 800548a:	785b      	ldrb	r3, [r3, #1]
 800548c:	b2db      	uxtb	r3, r3
 800548e:	2b03      	cmp	r3, #3
 8005490:	d905      	bls.n	800549e <EXTI4_15_IRQHandler+0x11e>
					distance_cm[1] = 999;  // now consider no object
 8005492:	4b85      	ldr	r3, [pc, #532]	@ (80056a8 <EXTI4_15_IRQHandler+0x328>)
 8005494:	4a86      	ldr	r2, [pc, #536]	@ (80056b0 <EXTI4_15_IRQHandler+0x330>)
 8005496:	605a      	str	r2, [r3, #4]
					noObjectCounter[1] = 4;  // cap counter
 8005498:	4b84      	ldr	r3, [pc, #528]	@ (80056ac <EXTI4_15_IRQHandler+0x32c>)
 800549a:	2204      	movs	r2, #4
 800549c:	705a      	strb	r2, [r3, #1]
				}
			}
			echoStart[1] = 0;
 800549e:	4b7e      	ldr	r3, [pc, #504]	@ (8005698 <EXTI4_15_IRQHandler+0x318>)
 80054a0:	2200      	movs	r2, #0
 80054a2:	805a      	strh	r2, [r3, #2]
		}
	}

	// --- Sensor 2: PB12 ---
	if (pr & (1u << 12)) {
 80054a4:	6a7a      	ldr	r2, [r7, #36]	@ 0x24
 80054a6:	2380      	movs	r3, #128	@ 0x80
 80054a8:	015b      	lsls	r3, r3, #5
 80054aa:	4013      	ands	r3, r2
 80054ac:	d100      	bne.n	80054b0 <EXTI4_15_IRQHandler+0x130>
 80054ae:	e071      	b.n	8005594 <EXTI4_15_IRQHandler+0x214>
		EXTI->PR = (1u << 12);
 80054b0:	4b76      	ldr	r3, [pc, #472]	@ (800568c <EXTI4_15_IRQHandler+0x30c>)
 80054b2:	2280      	movs	r2, #128	@ 0x80
 80054b4:	0152      	lsls	r2, r2, #5
 80054b6:	615a      	str	r2, [r3, #20]
		if (GPIOB->IDR & (1u << 12)) {
 80054b8:	4b75      	ldr	r3, [pc, #468]	@ (8005690 <EXTI4_15_IRQHandler+0x310>)
 80054ba:	691a      	ldr	r2, [r3, #16]
 80054bc:	2380      	movs	r3, #128	@ 0x80
 80054be:	015b      	lsls	r3, r3, #5
 80054c0:	4013      	ands	r3, r2
 80054c2:	d005      	beq.n	80054d0 <EXTI4_15_IRQHandler+0x150>
			echoStart[2] = (uint16_t)TIM3->CNT;
 80054c4:	4b73      	ldr	r3, [pc, #460]	@ (8005694 <EXTI4_15_IRQHandler+0x314>)
 80054c6:	6a5b      	ldr	r3, [r3, #36]	@ 0x24
 80054c8:	b29a      	uxth	r2, r3
 80054ca:	4b73      	ldr	r3, [pc, #460]	@ (8005698 <EXTI4_15_IRQHandler+0x318>)
 80054cc:	809a      	strh	r2, [r3, #4]
 80054ce:	e061      	b.n	8005594 <EXTI4_15_IRQHandler+0x214>
		} else if (echoStart[2] != 0) {
 80054d0:	4b71      	ldr	r3, [pc, #452]	@ (8005698 <EXTI4_15_IRQHandler+0x318>)
 80054d2:	889b      	ldrh	r3, [r3, #4]
 80054d4:	b29b      	uxth	r3, r3
 80054d6:	2b00      	cmp	r3, #0
 80054d8:	d05c      	beq.n	8005594 <EXTI4_15_IRQHandler+0x214>
			echoEnd[2] = (uint16_t)TIM3->CNT;
 80054da:	4b6e      	ldr	r3, [pc, #440]	@ (8005694 <EXTI4_15_IRQHandler+0x314>)
 80054dc:	6a5b      	ldr	r3, [r3, #36]	@ 0x24
 80054de:	b29a      	uxth	r2, r3
 80054e0:	4b6e      	ldr	r3, [pc, #440]	@ (800569c <EXTI4_15_IRQHandler+0x31c>)
 80054e2:	809a      	strh	r2, [r3, #4]
			uint16_t s = echoStart[2], e = echoEnd[2];
 80054e4:	2116      	movs	r1, #22
 80054e6:	187b      	adds	r3, r7, r1
 80054e8:	4a6b      	ldr	r2, [pc, #428]	@ (8005698 <EXTI4_15_IRQHandler+0x318>)
 80054ea:	8892      	ldrh	r2, [r2, #4]
 80054ec:	801a      	strh	r2, [r3, #0]
 80054ee:	2014      	movs	r0, #20
 80054f0:	183b      	adds	r3, r7, r0
 80054f2:	4a6a      	ldr	r2, [pc, #424]	@ (800569c <EXTI4_15_IRQHandler+0x31c>)
 80054f4:	8892      	ldrh	r2, [r2, #4]
 80054f6:	801a      	strh	r2, [r3, #0]
			uint16_t dur = (e >= s) ? (e - s) : (uint16_t)(0xFFFFu - s + e);
 80054f8:	183a      	adds	r2, r7, r0
 80054fa:	187b      	adds	r3, r7, r1
 80054fc:	8812      	ldrh	r2, [r2, #0]
 80054fe:	881b      	ldrh	r3, [r3, #0]
 8005500:	429a      	cmp	r2, r3
 8005502:	d306      	bcc.n	8005512 <EXTI4_15_IRQHandler+0x192>
 8005504:	183a      	adds	r2, r7, r0
 8005506:	187b      	adds	r3, r7, r1
 8005508:	8812      	ldrh	r2, [r2, #0]
 800550a:	881b      	ldrh	r3, [r3, #0]
 800550c:	1ad3      	subs	r3, r2, r3
 800550e:	b29b      	uxth	r3, r3
 8005510:	e009      	b.n	8005526 <EXTI4_15_IRQHandler+0x1a6>
 8005512:	2314      	movs	r3, #20
 8005514:	18fa      	adds	r2, r7, r3
 8005516:	2316      	movs	r3, #22
 8005518:	18fb      	adds	r3, r7, r3
 800551a:	8812      	ldrh	r2, [r2, #0]
 800551c:	881b      	ldrh	r3, [r3, #0]
 800551e:	1ad3      	subs	r3, r2, r3
 8005520:	b29b      	uxth	r3, r3
 8005522:	3b01      	subs	r3, #1
 8005524:	b29b      	uxth	r3, r3
 8005526:	2112      	movs	r1, #18
 8005528:	187a      	adds	r2, r7, r1
 800552a:	8013      	strh	r3, [r2, #0]
			float d = ((float)dur * 0.0343f) * 0.5f;
 800552c:	187b      	adds	r3, r7, r1
 800552e:	881b      	ldrh	r3, [r3, #0]
 8005530:	0018      	movs	r0, r3
 8005532:	f7fb ffb5 	bl	80014a0 <__aeabi_ui2f>
 8005536:	1c03      	adds	r3, r0, #0
 8005538:	4959      	ldr	r1, [pc, #356]	@ (80056a0 <EXTI4_15_IRQHandler+0x320>)
 800553a:	1c18      	adds	r0, r3, #0
 800553c:	f7fb fb6c 	bl	8000c18 <__aeabi_fmul>
 8005540:	1c03      	adds	r3, r0, #0
 8005542:	21fc      	movs	r1, #252	@ 0xfc
 8005544:	0589      	lsls	r1, r1, #22
 8005546:	1c18      	adds	r0, r3, #0
 8005548:	f7fb fb66 	bl	8000c18 <__aeabi_fmul>
 800554c:	1c03      	adds	r3, r0, #0
 800554e:	60fb      	str	r3, [r7, #12]
			if (d < 400.0f){  // sanity check for overflow/invalid echo
 8005550:	4954      	ldr	r1, [pc, #336]	@ (80056a4 <EXTI4_15_IRQHandler+0x324>)
 8005552:	68f8      	ldr	r0, [r7, #12]
 8005554:	f7fa ff60 	bl	8000418 <__aeabi_fcmplt>
 8005558:	1e03      	subs	r3, r0, #0
 800555a:	d006      	beq.n	800556a <EXTI4_15_IRQHandler+0x1ea>
				distance_cm[2] = d;
 800555c:	4b52      	ldr	r3, [pc, #328]	@ (80056a8 <EXTI4_15_IRQHandler+0x328>)
 800555e:	68fa      	ldr	r2, [r7, #12]
 8005560:	609a      	str	r2, [r3, #8]
				noObjectCounter[2] = 0;   // reset counter
 8005562:	4b52      	ldr	r3, [pc, #328]	@ (80056ac <EXTI4_15_IRQHandler+0x32c>)
 8005564:	2200      	movs	r2, #0
 8005566:	709a      	strb	r2, [r3, #2]
 8005568:	e011      	b.n	800558e <EXTI4_15_IRQHandler+0x20e>
			}
			else {                  // out of range
				noObjectCounter[2]++;
 800556a:	4b50      	ldr	r3, [pc, #320]	@ (80056ac <EXTI4_15_IRQHandler+0x32c>)
 800556c:	789b      	ldrb	r3, [r3, #2]
 800556e:	b2db      	uxtb	r3, r3
 8005570:	3301      	adds	r3, #1
 8005572:	b2da      	uxtb	r2, r3
 8005574:	4b4d      	ldr	r3, [pc, #308]	@ (80056ac <EXTI4_15_IRQHandler+0x32c>)
 8005576:	709a      	strb	r2, [r3, #2]
				if (noObjectCounter[2] >= 4) {
 8005578:	4b4c      	ldr	r3, [pc, #304]	@ (80056ac <EXTI4_15_IRQHandler+0x32c>)
 800557a:	789b      	ldrb	r3, [r3, #2]
 800557c:	b2db      	uxtb	r3, r3
 800557e:	2b03      	cmp	r3, #3
 8005580:	d905      	bls.n	800558e <EXTI4_15_IRQHandler+0x20e>
					distance_cm[2] = 999;  // now consider no object
 8005582:	4b49      	ldr	r3, [pc, #292]	@ (80056a8 <EXTI4_15_IRQHandler+0x328>)
 8005584:	4a4a      	ldr	r2, [pc, #296]	@ (80056b0 <EXTI4_15_IRQHandler+0x330>)
 8005586:	609a      	str	r2, [r3, #8]
					noObjectCounter[2] = 4;  // cap counter
 8005588:	4b48      	ldr	r3, [pc, #288]	@ (80056ac <EXTI4_15_IRQHandler+0x32c>)
 800558a:	2204      	movs	r2, #4
 800558c:	709a      	strb	r2, [r3, #2]
				}
			}
			echoStart[2] = 0;
 800558e:	4b42      	ldr	r3, [pc, #264]	@ (8005698 <EXTI4_15_IRQHandler+0x318>)
 8005590:	2200      	movs	r2, #0
 8005592:	809a      	strh	r2, [r3, #4]
		}
	}

	// --- Sensor 3: PB13 ---
	if (pr & (1u << 13)) {
 8005594:	6a7a      	ldr	r2, [r7, #36]	@ 0x24
 8005596:	2380      	movs	r3, #128	@ 0x80
 8005598:	019b      	lsls	r3, r3, #6
 800559a:	4013      	ands	r3, r2
 800559c:	d100      	bne.n	80055a0 <EXTI4_15_IRQHandler+0x220>
 800559e:	e070      	b.n	8005682 <EXTI4_15_IRQHandler+0x302>
		EXTI->PR = (1u << 13);
 80055a0:	4b3a      	ldr	r3, [pc, #232]	@ (800568c <EXTI4_15_IRQHandler+0x30c>)
 80055a2:	2280      	movs	r2, #128	@ 0x80
 80055a4:	0192      	lsls	r2, r2, #6
 80055a6:	615a      	str	r2, [r3, #20]
		if (GPIOB->IDR & (1u << 13)) {
 80055a8:	4b39      	ldr	r3, [pc, #228]	@ (8005690 <EXTI4_15_IRQHandler+0x310>)
 80055aa:	691a      	ldr	r2, [r3, #16]
 80055ac:	2380      	movs	r3, #128	@ 0x80
 80055ae:	019b      	lsls	r3, r3, #6
 80055b0:	4013      	ands	r3, r2
 80055b2:	d005      	beq.n	80055c0 <EXTI4_15_IRQHandler+0x240>
			echoStart[3] = (uint16_t)TIM3->CNT;
 80055b4:	4b37      	ldr	r3, [pc, #220]	@ (8005694 <EXTI4_15_IRQHandler+0x314>)
 80055b6:	6a5b      	ldr	r3, [r3, #36]	@ 0x24
 80055b8:	b29a      	uxth	r2, r3
 80055ba:	4b37      	ldr	r3, [pc, #220]	@ (8005698 <EXTI4_15_IRQHandler+0x318>)
 80055bc:	80da      	strh	r2, [r3, #6]
				}
			}
			echoStart[3] = 0;
		}
	}
}
 80055be:	e060      	b.n	8005682 <EXTI4_15_IRQHandler+0x302>
		} else if (echoStart[3] != 0) {
 80055c0:	4b35      	ldr	r3, [pc, #212]	@ (8005698 <EXTI4_15_IRQHandler+0x318>)
 80055c2:	88db      	ldrh	r3, [r3, #6]
 80055c4:	b29b      	uxth	r3, r3
 80055c6:	2b00      	cmp	r3, #0
 80055c8:	d05b      	beq.n	8005682 <EXTI4_15_IRQHandler+0x302>
			echoEnd[3] = (uint16_t)TIM3->CNT;
 80055ca:	4b32      	ldr	r3, [pc, #200]	@ (8005694 <EXTI4_15_IRQHandler+0x314>)
 80055cc:	6a5b      	ldr	r3, [r3, #36]	@ 0x24
 80055ce:	b29a      	uxth	r2, r3
 80055d0:	4b32      	ldr	r3, [pc, #200]	@ (800569c <EXTI4_15_IRQHandler+0x31c>)
 80055d2:	80da      	strh	r2, [r3, #6]
			uint16_t s = echoStart[3], e = echoEnd[3];
 80055d4:	210a      	movs	r1, #10
 80055d6:	187b      	adds	r3, r7, r1
 80055d8:	4a2f      	ldr	r2, [pc, #188]	@ (8005698 <EXTI4_15_IRQHandler+0x318>)
 80055da:	88d2      	ldrh	r2, [r2, #6]
 80055dc:	801a      	strh	r2, [r3, #0]
 80055de:	2008      	movs	r0, #8
 80055e0:	183b      	adds	r3, r7, r0
 80055e2:	4a2e      	ldr	r2, [pc, #184]	@ (800569c <EXTI4_15_IRQHandler+0x31c>)
 80055e4:	88d2      	ldrh	r2, [r2, #6]
 80055e6:	801a      	strh	r2, [r3, #0]
			uint16_t dur = (e >= s) ? (e - s) : (uint16_t)(0xFFFFu - s + e);
 80055e8:	183a      	adds	r2, r7, r0
 80055ea:	187b      	adds	r3, r7, r1
 80055ec:	8812      	ldrh	r2, [r2, #0]
 80055ee:	881b      	ldrh	r3, [r3, #0]
 80055f0:	429a      	cmp	r2, r3
 80055f2:	d306      	bcc.n	8005602 <EXTI4_15_IRQHandler+0x282>
 80055f4:	183a      	adds	r2, r7, r0
 80055f6:	187b      	adds	r3, r7, r1
 80055f8:	8812      	ldrh	r2, [r2, #0]
 80055fa:	881b      	ldrh	r3, [r3, #0]
 80055fc:	1ad3      	subs	r3, r2, r3
 80055fe:	b29b      	uxth	r3, r3
 8005600:	e009      	b.n	8005616 <EXTI4_15_IRQHandler+0x296>
 8005602:	2308      	movs	r3, #8
 8005604:	18fa      	adds	r2, r7, r3
 8005606:	230a      	movs	r3, #10
 8005608:	18fb      	adds	r3, r7, r3
 800560a:	8812      	ldrh	r2, [r2, #0]
 800560c:	881b      	ldrh	r3, [r3, #0]
 800560e:	1ad3      	subs	r3, r2, r3
 8005610:	b29b      	uxth	r3, r3
 8005612:	3b01      	subs	r3, #1
 8005614:	b29b      	uxth	r3, r3
 8005616:	1dba      	adds	r2, r7, #6
 8005618:	8013      	strh	r3, [r2, #0]
			float d = ((float)dur * 0.0343f) * 0.5f;
 800561a:	1dbb      	adds	r3, r7, #6
 800561c:	881b      	ldrh	r3, [r3, #0]
 800561e:	0018      	movs	r0, r3
 8005620:	f7fb ff3e 	bl	80014a0 <__aeabi_ui2f>
 8005624:	1c03      	adds	r3, r0, #0
 8005626:	491e      	ldr	r1, [pc, #120]	@ (80056a0 <EXTI4_15_IRQHandler+0x320>)
 8005628:	1c18      	adds	r0, r3, #0
 800562a:	f7fb faf5 	bl	8000c18 <__aeabi_fmul>
 800562e:	1c03      	adds	r3, r0, #0
 8005630:	21fc      	movs	r1, #252	@ 0xfc
 8005632:	0589      	lsls	r1, r1, #22
 8005634:	1c18      	adds	r0, r3, #0
 8005636:	f7fb faef 	bl	8000c18 <__aeabi_fmul>
 800563a:	1c03      	adds	r3, r0, #0
 800563c:	603b      	str	r3, [r7, #0]
			if (d < 400.0f){  // sanity check for overflow/invalid echo
 800563e:	4919      	ldr	r1, [pc, #100]	@ (80056a4 <EXTI4_15_IRQHandler+0x324>)
 8005640:	6838      	ldr	r0, [r7, #0]
 8005642:	f7fa fee9 	bl	8000418 <__aeabi_fcmplt>
 8005646:	1e03      	subs	r3, r0, #0
 8005648:	d006      	beq.n	8005658 <EXTI4_15_IRQHandler+0x2d8>
				distance_cm[3] = d;
 800564a:	4b17      	ldr	r3, [pc, #92]	@ (80056a8 <EXTI4_15_IRQHandler+0x328>)
 800564c:	683a      	ldr	r2, [r7, #0]
 800564e:	60da      	str	r2, [r3, #12]
				noObjectCounter[3] = 0;   // reset counter
 8005650:	4b16      	ldr	r3, [pc, #88]	@ (80056ac <EXTI4_15_IRQHandler+0x32c>)
 8005652:	2200      	movs	r2, #0
 8005654:	70da      	strb	r2, [r3, #3]
 8005656:	e011      	b.n	800567c <EXTI4_15_IRQHandler+0x2fc>
				noObjectCounter[3]++;
 8005658:	4b14      	ldr	r3, [pc, #80]	@ (80056ac <EXTI4_15_IRQHandler+0x32c>)
 800565a:	78db      	ldrb	r3, [r3, #3]
 800565c:	b2db      	uxtb	r3, r3
 800565e:	3301      	adds	r3, #1
 8005660:	b2da      	uxtb	r2, r3
 8005662:	4b12      	ldr	r3, [pc, #72]	@ (80056ac <EXTI4_15_IRQHandler+0x32c>)
 8005664:	70da      	strb	r2, [r3, #3]
				if (noObjectCounter[3] >= 4) {
 8005666:	4b11      	ldr	r3, [pc, #68]	@ (80056ac <EXTI4_15_IRQHandler+0x32c>)
 8005668:	78db      	ldrb	r3, [r3, #3]
 800566a:	b2db      	uxtb	r3, r3
 800566c:	2b03      	cmp	r3, #3
 800566e:	d905      	bls.n	800567c <EXTI4_15_IRQHandler+0x2fc>
					distance_cm[3] = 999;  // now consider no object
 8005670:	4b0d      	ldr	r3, [pc, #52]	@ (80056a8 <EXTI4_15_IRQHandler+0x328>)
 8005672:	4a0f      	ldr	r2, [pc, #60]	@ (80056b0 <EXTI4_15_IRQHandler+0x330>)
 8005674:	60da      	str	r2, [r3, #12]
					noObjectCounter[3] = 4;  // cap counter
 8005676:	4b0d      	ldr	r3, [pc, #52]	@ (80056ac <EXTI4_15_IRQHandler+0x32c>)
 8005678:	2204      	movs	r2, #4
 800567a:	70da      	strb	r2, [r3, #3]
			echoStart[3] = 0;
 800567c:	4b06      	ldr	r3, [pc, #24]	@ (8005698 <EXTI4_15_IRQHandler+0x318>)
 800567e:	2200      	movs	r2, #0
 8005680:	80da      	strh	r2, [r3, #6]
}
 8005682:	46c0      	nop			@ (mov r8, r8)
 8005684:	46bd      	mov	sp, r7
 8005686:	b00a      	add	sp, #40	@ 0x28
 8005688:	bd80      	pop	{r7, pc}
 800568a:	46c0      	nop			@ (mov r8, r8)
 800568c:	40010400 	.word	0x40010400
 8005690:	48000400 	.word	0x48000400
 8005694:	40000400 	.word	0x40000400
 8005698:	20000a14 	.word	0x20000a14
 800569c:	20000a1c 	.word	0x20000a1c
 80056a0:	3d0c7e28 	.word	0x3d0c7e28
 80056a4:	43c80000 	.word	0x43c80000
 80056a8:	20000a24 	.word	0x20000a24
 80056ac:	20000a38 	.word	0x20000a38
 80056b0:	4479c000 	.word	0x4479c000

080056b4 <Reset_Handler>:

  .section .text.Reset_Handler
  .weak Reset_Handler
  .type Reset_Handler, %function
Reset_Handler:
  ldr   r0, =_estack
 80056b4:	480d      	ldr	r0, [pc, #52]	@ (80056ec <LoopForever+0x2>)
  mov   sp, r0          /* set stack pointer */
 80056b6:	4685      	mov	sp, r0
/* Call the clock system initialization function.*/
  bl  SystemInit
 80056b8:	e000      	b.n	80056bc <Reset_Handler+0x8>
 80056ba:	bf00      	nop

/* Copy the data segment initializers from flash to SRAM */
  ldr r0, =_sdata
 80056bc:	480c      	ldr	r0, [pc, #48]	@ (80056f0 <LoopForever+0x6>)
  ldr r1, =_edata
 80056be:	490d      	ldr	r1, [pc, #52]	@ (80056f4 <LoopForever+0xa>)
  ldr r2, =_sidata
 80056c0:	4a0d      	ldr	r2, [pc, #52]	@ (80056f8 <LoopForever+0xe>)
  movs r3, #0
 80056c2:	2300      	movs	r3, #0
  b LoopCopyDataInit
 80056c4:	e002      	b.n	80056cc <LoopCopyDataInit>

080056c6 <CopyDataInit>:

CopyDataInit:
  ldr r4, [r2, r3]
 80056c6:	58d4      	ldr	r4, [r2, r3]
  str r4, [r0, r3]
 80056c8:	50c4      	str	r4, [r0, r3]
  adds r3, r3, #4
 80056ca:	3304      	adds	r3, #4

080056cc <LoopCopyDataInit>:

LoopCopyDataInit:
  adds r4, r0, r3
 80056cc:	18c4      	adds	r4, r0, r3
  cmp r4, r1
 80056ce:	428c      	cmp	r4, r1
  bcc CopyDataInit
 80056d0:	d3f9      	bcc.n	80056c6 <CopyDataInit>

/* Zero fill the bss segment. */
  ldr r2, =_sbss
 80056d2:	4a0a      	ldr	r2, [pc, #40]	@ (80056fc <LoopForever+0x12>)
  ldr r4, =_ebss
 80056d4:	4c0a      	ldr	r4, [pc, #40]	@ (8005700 <LoopForever+0x16>)
  movs r3, #0
 80056d6:	2300      	movs	r3, #0
  b LoopFillZerobss
 80056d8:	e001      	b.n	80056de <LoopFillZerobss>

080056da <FillZerobss>:

FillZerobss:
  str  r3, [r2]
 80056da:	6013      	str	r3, [r2, #0]
  adds r2, r2, #4
 80056dc:	3204      	adds	r2, #4

080056de <LoopFillZerobss>:

LoopFillZerobss:
  cmp r2, r4
 80056de:	42a2      	cmp	r2, r4
  bcc FillZerobss
 80056e0:	d3fb      	bcc.n	80056da <FillZerobss>

/* Call static constructors */
  bl __libc_init_array
 80056e2:	f000 f817 	bl	8005714 <__libc_init_array>
/* Call the application's entry point.*/
  bl main
 80056e6:	f7fe fba7 	bl	8003e38 <main>

080056ea <LoopForever>:

LoopForever:
  b LoopForever
 80056ea:	e7fe      	b.n	80056ea <LoopForever>
  ldr   r0, =_estack
 80056ec:	20002000 	.word	0x20002000
  ldr r0, =_sdata
 80056f0:	20000000 	.word	0x20000000
  ldr r1, =_edata
 80056f4:	20000078 	.word	0x20000078
  ldr r2, =_sidata
 80056f8:	08006cd4 	.word	0x08006cd4
  ldr r2, =_sbss
 80056fc:	20000078 	.word	0x20000078
  ldr r4, =_ebss
 8005700:	20000b74 	.word	0x20000b74

08005704 <ADC_COMP_IRQHandler>:
 * @retval : None
*/
  .section .text.Default_Handler,"ax",%progbits
Default_Handler:
Infinite_Loop:
  b Infinite_Loop
 8005704:	e7fe      	b.n	8005704 <ADC_COMP_IRQHandler>
	...

08005708 <__errno>:
 8005708:	4b01      	ldr	r3, [pc, #4]	@ (8005710 <__errno+0x8>)
 800570a:	6818      	ldr	r0, [r3, #0]
 800570c:	4770      	bx	lr
 800570e:	46c0      	nop			@ (mov r8, r8)
 8005710:	20000028 	.word	0x20000028

08005714 <__libc_init_array>:
 8005714:	b570      	push	{r4, r5, r6, lr}
 8005716:	2600      	movs	r6, #0
 8005718:	4c0c      	ldr	r4, [pc, #48]	@ (800574c <__libc_init_array+0x38>)
 800571a:	4d0d      	ldr	r5, [pc, #52]	@ (8005750 <__libc_init_array+0x3c>)
 800571c:	1b64      	subs	r4, r4, r5
 800571e:	10a4      	asrs	r4, r4, #2
 8005720:	42a6      	cmp	r6, r4
 8005722:	d109      	bne.n	8005738 <__libc_init_array+0x24>
 8005724:	2600      	movs	r6, #0
 8005726:	f001 f835 	bl	8006794 <_init>
 800572a:	4c0a      	ldr	r4, [pc, #40]	@ (8005754 <__libc_init_array+0x40>)
 800572c:	4d0a      	ldr	r5, [pc, #40]	@ (8005758 <__libc_init_array+0x44>)
 800572e:	1b64      	subs	r4, r4, r5
 8005730:	10a4      	asrs	r4, r4, #2
 8005732:	42a6      	cmp	r6, r4
 8005734:	d105      	bne.n	8005742 <__libc_init_array+0x2e>
 8005736:	bd70      	pop	{r4, r5, r6, pc}
 8005738:	00b3      	lsls	r3, r6, #2
 800573a:	58eb      	ldr	r3, [r5, r3]
 800573c:	4798      	blx	r3
 800573e:	3601      	adds	r6, #1
 8005740:	e7ee      	b.n	8005720 <__libc_init_array+0xc>
 8005742:	00b3      	lsls	r3, r6, #2
 8005744:	58eb      	ldr	r3, [r5, r3]
 8005746:	4798      	blx	r3
 8005748:	3601      	adds	r6, #1
 800574a:	e7f2      	b.n	8005732 <__libc_init_array+0x1e>
 800574c:	08006ccc 	.word	0x08006ccc
 8005750:	08006ccc 	.word	0x08006ccc
 8005754:	08006cd0 	.word	0x08006cd0
 8005758:	08006ccc 	.word	0x08006ccc

0800575c <atan2f>:
 800575c:	b510      	push	{r4, lr}
 800575e:	f000 f9f1 	bl	8005b44 <__ieee754_atan2f>
 8005762:	bd10      	pop	{r4, pc}

08005764 <sqrtf>:
 8005764:	b570      	push	{r4, r5, r6, lr}
 8005766:	1c05      	adds	r5, r0, #0
 8005768:	f000 f884 	bl	8005874 <__ieee754_sqrtf>
 800576c:	1c29      	adds	r1, r5, #0
 800576e:	1c04      	adds	r4, r0, #0
 8005770:	1c28      	adds	r0, r5, #0
 8005772:	f7fb fe0f 	bl	8001394 <__aeabi_fcmpun>
 8005776:	2800      	cmp	r0, #0
 8005778:	d10e      	bne.n	8005798 <sqrtf+0x34>
 800577a:	2100      	movs	r1, #0
 800577c:	1c28      	adds	r0, r5, #0
 800577e:	f7fa fe4b 	bl	8000418 <__aeabi_fcmplt>
 8005782:	2800      	cmp	r0, #0
 8005784:	d008      	beq.n	8005798 <sqrtf+0x34>
 8005786:	f7ff ffbf 	bl	8005708 <__errno>
 800578a:	2321      	movs	r3, #33	@ 0x21
 800578c:	2100      	movs	r1, #0
 800578e:	6003      	str	r3, [r0, #0]
 8005790:	1c08      	adds	r0, r1, #0
 8005792:	f7fb f873 	bl	800087c <__aeabi_fdiv>
 8005796:	1c04      	adds	r4, r0, #0
 8005798:	1c20      	adds	r0, r4, #0
 800579a:	bd70      	pop	{r4, r5, r6, pc}

0800579c <cosf>:
 800579c:	b507      	push	{r0, r1, r2, lr}
 800579e:	4a18      	ldr	r2, [pc, #96]	@ (8005800 <cosf+0x64>)
 80057a0:	0043      	lsls	r3, r0, #1
 80057a2:	2100      	movs	r1, #0
 80057a4:	085b      	lsrs	r3, r3, #1
 80057a6:	4293      	cmp	r3, r2
 80057a8:	d914      	bls.n	80057d4 <cosf+0x38>
 80057aa:	22ff      	movs	r2, #255	@ 0xff
 80057ac:	05d2      	lsls	r2, r2, #23
 80057ae:	4293      	cmp	r3, r2
 80057b0:	d303      	bcc.n	80057ba <cosf+0x1e>
 80057b2:	1c01      	adds	r1, r0, #0
 80057b4:	f7fb fb8a 	bl	8000ecc <__aeabi_fsub>
 80057b8:	bd0e      	pop	{r1, r2, r3, pc}
 80057ba:	4669      	mov	r1, sp
 80057bc:	f000 fa3c 	bl	8005c38 <__ieee754_rem_pio2f>
 80057c0:	2203      	movs	r2, #3
 80057c2:	4002      	ands	r2, r0
 80057c4:	2a01      	cmp	r2, #1
 80057c6:	d008      	beq.n	80057da <cosf+0x3e>
 80057c8:	2a02      	cmp	r2, #2
 80057ca:	d00e      	beq.n	80057ea <cosf+0x4e>
 80057cc:	2a00      	cmp	r2, #0
 80057ce:	d111      	bne.n	80057f4 <cosf+0x58>
 80057d0:	9901      	ldr	r1, [sp, #4]
 80057d2:	9800      	ldr	r0, [sp, #0]
 80057d4:	f000 f8c2 	bl	800595c <__kernel_cosf>
 80057d8:	e7ee      	b.n	80057b8 <cosf+0x1c>
 80057da:	9901      	ldr	r1, [sp, #4]
 80057dc:	9800      	ldr	r0, [sp, #0]
 80057de:	f000 f93d 	bl	8005a5c <__kernel_sinf>
 80057e2:	2380      	movs	r3, #128	@ 0x80
 80057e4:	061b      	lsls	r3, r3, #24
 80057e6:	18c0      	adds	r0, r0, r3
 80057e8:	e7e6      	b.n	80057b8 <cosf+0x1c>
 80057ea:	9901      	ldr	r1, [sp, #4]
 80057ec:	9800      	ldr	r0, [sp, #0]
 80057ee:	f000 f8b5 	bl	800595c <__kernel_cosf>
 80057f2:	e7f6      	b.n	80057e2 <cosf+0x46>
 80057f4:	2201      	movs	r2, #1
 80057f6:	9901      	ldr	r1, [sp, #4]
 80057f8:	9800      	ldr	r0, [sp, #0]
 80057fa:	f000 f92f 	bl	8005a5c <__kernel_sinf>
 80057fe:	e7db      	b.n	80057b8 <cosf+0x1c>
 8005800:	3f490fd8 	.word	0x3f490fd8

08005804 <sinf>:
 8005804:	b507      	push	{r0, r1, r2, lr}
 8005806:	4a1a      	ldr	r2, [pc, #104]	@ (8005870 <sinf+0x6c>)
 8005808:	0043      	lsls	r3, r0, #1
 800580a:	085b      	lsrs	r3, r3, #1
 800580c:	4293      	cmp	r3, r2
 800580e:	d804      	bhi.n	800581a <sinf+0x16>
 8005810:	2200      	movs	r2, #0
 8005812:	2100      	movs	r1, #0
 8005814:	f000 f922 	bl	8005a5c <__kernel_sinf>
 8005818:	e006      	b.n	8005828 <sinf+0x24>
 800581a:	22ff      	movs	r2, #255	@ 0xff
 800581c:	05d2      	lsls	r2, r2, #23
 800581e:	4293      	cmp	r3, r2
 8005820:	d303      	bcc.n	800582a <sinf+0x26>
 8005822:	1c01      	adds	r1, r0, #0
 8005824:	f7fb fb52 	bl	8000ecc <__aeabi_fsub>
 8005828:	bd0e      	pop	{r1, r2, r3, pc}
 800582a:	4669      	mov	r1, sp
 800582c:	f000 fa04 	bl	8005c38 <__ieee754_rem_pio2f>
 8005830:	2303      	movs	r3, #3
 8005832:	4018      	ands	r0, r3
 8005834:	2801      	cmp	r0, #1
 8005836:	d007      	beq.n	8005848 <sinf+0x44>
 8005838:	2802      	cmp	r0, #2
 800583a:	d00a      	beq.n	8005852 <sinf+0x4e>
 800583c:	2800      	cmp	r0, #0
 800583e:	d111      	bne.n	8005864 <sinf+0x60>
 8005840:	2201      	movs	r2, #1
 8005842:	9901      	ldr	r1, [sp, #4]
 8005844:	9800      	ldr	r0, [sp, #0]
 8005846:	e7e5      	b.n	8005814 <sinf+0x10>
 8005848:	9901      	ldr	r1, [sp, #4]
 800584a:	9800      	ldr	r0, [sp, #0]
 800584c:	f000 f886 	bl	800595c <__kernel_cosf>
 8005850:	e7ea      	b.n	8005828 <sinf+0x24>
 8005852:	2201      	movs	r2, #1
 8005854:	9901      	ldr	r1, [sp, #4]
 8005856:	9800      	ldr	r0, [sp, #0]
 8005858:	f000 f900 	bl	8005a5c <__kernel_sinf>
 800585c:	2380      	movs	r3, #128	@ 0x80
 800585e:	061b      	lsls	r3, r3, #24
 8005860:	18c0      	adds	r0, r0, r3
 8005862:	e7e1      	b.n	8005828 <sinf+0x24>
 8005864:	9901      	ldr	r1, [sp, #4]
 8005866:	9800      	ldr	r0, [sp, #0]
 8005868:	f000 f878 	bl	800595c <__kernel_cosf>
 800586c:	e7f6      	b.n	800585c <sinf+0x58>
 800586e:	46c0      	nop			@ (mov r8, r8)
 8005870:	3f490fd8 	.word	0x3f490fd8

08005874 <__ieee754_sqrtf>:
 8005874:	b5f7      	push	{r0, r1, r2, r4, r5, r6, r7, lr}
 8005876:	21ff      	movs	r1, #255	@ 0xff
 8005878:	0042      	lsls	r2, r0, #1
 800587a:	0003      	movs	r3, r0
 800587c:	1c04      	adds	r4, r0, #0
 800587e:	0852      	lsrs	r2, r2, #1
 8005880:	05c9      	lsls	r1, r1, #23
 8005882:	428a      	cmp	r2, r1
 8005884:	d309      	bcc.n	800589a <__ieee754_sqrtf+0x26>
 8005886:	1c01      	adds	r1, r0, #0
 8005888:	f7fb f9c6 	bl	8000c18 <__aeabi_fmul>
 800588c:	1c01      	adds	r1, r0, #0
 800588e:	1c20      	adds	r0, r4, #0
 8005890:	f7fa fe02 	bl	8000498 <__aeabi_fadd>
 8005894:	1c04      	adds	r4, r0, #0
 8005896:	1c20      	adds	r0, r4, #0
 8005898:	bdfe      	pop	{r1, r2, r3, r4, r5, r6, r7, pc}
 800589a:	2a00      	cmp	r2, #0
 800589c:	d0fb      	beq.n	8005896 <__ieee754_sqrtf+0x22>
 800589e:	2800      	cmp	r0, #0
 80058a0:	da06      	bge.n	80058b0 <__ieee754_sqrtf+0x3c>
 80058a2:	1c01      	adds	r1, r0, #0
 80058a4:	f7fb fb12 	bl	8000ecc <__aeabi_fsub>
 80058a8:	1c01      	adds	r1, r0, #0
 80058aa:	f7fa ffe7 	bl	800087c <__aeabi_fdiv>
 80058ae:	e7f1      	b.n	8005894 <__ieee754_sqrtf+0x20>
 80058b0:	0002      	movs	r2, r0
 80058b2:	400a      	ands	r2, r1
 80058b4:	4208      	tst	r0, r1
 80058b6:	d040      	beq.n	800593a <__ieee754_sqrtf+0xc6>
 80058b8:	15c1      	asrs	r1, r0, #23
 80058ba:	2280      	movs	r2, #128	@ 0x80
 80058bc:	000f      	movs	r7, r1
 80058be:	025b      	lsls	r3, r3, #9
 80058c0:	0a5b      	lsrs	r3, r3, #9
 80058c2:	0412      	lsls	r2, r2, #16
 80058c4:	3f7f      	subs	r7, #127	@ 0x7f
 80058c6:	4313      	orrs	r3, r2
 80058c8:	07c9      	lsls	r1, r1, #31
 80058ca:	d400      	bmi.n	80058ce <__ieee754_sqrtf+0x5a>
 80058cc:	005b      	lsls	r3, r3, #1
 80058ce:	2400      	movs	r4, #0
 80058d0:	2180      	movs	r1, #128	@ 0x80
 80058d2:	2019      	movs	r0, #25
 80058d4:	0026      	movs	r6, r4
 80058d6:	107f      	asrs	r7, r7, #1
 80058d8:	005b      	lsls	r3, r3, #1
 80058da:	0449      	lsls	r1, r1, #17
 80058dc:	1875      	adds	r5, r6, r1
 80058de:	001a      	movs	r2, r3
 80058e0:	429d      	cmp	r5, r3
 80058e2:	dc02      	bgt.n	80058ea <__ieee754_sqrtf+0x76>
 80058e4:	186e      	adds	r6, r5, r1
 80058e6:	1b5a      	subs	r2, r3, r5
 80058e8:	1864      	adds	r4, r4, r1
 80058ea:	3801      	subs	r0, #1
 80058ec:	0053      	lsls	r3, r2, #1
 80058ee:	0849      	lsrs	r1, r1, #1
 80058f0:	2800      	cmp	r0, #0
 80058f2:	d1f3      	bne.n	80058dc <__ieee754_sqrtf+0x68>
 80058f4:	2a00      	cmp	r2, #0
 80058f6:	d019      	beq.n	800592c <__ieee754_sqrtf+0xb8>
 80058f8:	4d16      	ldr	r5, [pc, #88]	@ (8005954 <__ieee754_sqrtf+0xe0>)
 80058fa:	4e17      	ldr	r6, [pc, #92]	@ (8005958 <__ieee754_sqrtf+0xe4>)
 80058fc:	6828      	ldr	r0, [r5, #0]
 80058fe:	6831      	ldr	r1, [r6, #0]
 8005900:	682b      	ldr	r3, [r5, #0]
 8005902:	9301      	str	r3, [sp, #4]
 8005904:	f7fb fae2 	bl	8000ecc <__aeabi_fsub>
 8005908:	1c01      	adds	r1, r0, #0
 800590a:	9801      	ldr	r0, [sp, #4]
 800590c:	f7fa fd8e 	bl	800042c <__aeabi_fcmple>
 8005910:	2800      	cmp	r0, #0
 8005912:	d00b      	beq.n	800592c <__ieee754_sqrtf+0xb8>
 8005914:	6828      	ldr	r0, [r5, #0]
 8005916:	6831      	ldr	r1, [r6, #0]
 8005918:	f7fa fdbe 	bl	8000498 <__aeabi_fadd>
 800591c:	682d      	ldr	r5, [r5, #0]
 800591e:	1c01      	adds	r1, r0, #0
 8005920:	1c28      	adds	r0, r5, #0
 8005922:	f7fa fd79 	bl	8000418 <__aeabi_fcmplt>
 8005926:	2800      	cmp	r0, #0
 8005928:	d010      	beq.n	800594c <__ieee754_sqrtf+0xd8>
 800592a:	3402      	adds	r4, #2
 800592c:	23fc      	movs	r3, #252	@ 0xfc
 800592e:	1064      	asrs	r4, r4, #1
 8005930:	059b      	lsls	r3, r3, #22
 8005932:	18e3      	adds	r3, r4, r3
 8005934:	05fc      	lsls	r4, r7, #23
 8005936:	18e4      	adds	r4, r4, r3
 8005938:	e7ad      	b.n	8005896 <__ieee754_sqrtf+0x22>
 800593a:	2080      	movs	r0, #128	@ 0x80
 800593c:	0400      	lsls	r0, r0, #16
 800593e:	005b      	lsls	r3, r3, #1
 8005940:	0011      	movs	r1, r2
 8005942:	3201      	adds	r2, #1
 8005944:	4203      	tst	r3, r0
 8005946:	d0fa      	beq.n	800593e <__ieee754_sqrtf+0xca>
 8005948:	4249      	negs	r1, r1
 800594a:	e7b6      	b.n	80058ba <__ieee754_sqrtf+0x46>
 800594c:	2301      	movs	r3, #1
 800594e:	3401      	adds	r4, #1
 8005950:	439c      	bics	r4, r3
 8005952:	e7eb      	b.n	800592c <__ieee754_sqrtf+0xb8>
 8005954:	080068c0 	.word	0x080068c0
 8005958:	080068bc 	.word	0x080068bc

0800595c <__kernel_cosf>:
 800595c:	23c8      	movs	r3, #200	@ 0xc8
 800595e:	b5f7      	push	{r0, r1, r2, r4, r5, r6, r7, lr}
 8005960:	0044      	lsls	r4, r0, #1
 8005962:	1c06      	adds	r6, r0, #0
 8005964:	9101      	str	r1, [sp, #4]
 8005966:	0864      	lsrs	r4, r4, #1
 8005968:	059b      	lsls	r3, r3, #22
 800596a:	429c      	cmp	r4, r3
 800596c:	d203      	bcs.n	8005976 <__kernel_cosf+0x1a>
 800596e:	f7fb fd27 	bl	80013c0 <__aeabi_f2iz>
 8005972:	2800      	cmp	r0, #0
 8005974:	d05d      	beq.n	8005a32 <__kernel_cosf+0xd6>
 8005976:	1c31      	adds	r1, r6, #0
 8005978:	1c30      	adds	r0, r6, #0
 800597a:	f7fb f94d 	bl	8000c18 <__aeabi_fmul>
 800597e:	21fc      	movs	r1, #252	@ 0xfc
 8005980:	0589      	lsls	r1, r1, #22
 8005982:	1c05      	adds	r5, r0, #0
 8005984:	f7fb f948 	bl	8000c18 <__aeabi_fmul>
 8005988:	492b      	ldr	r1, [pc, #172]	@ (8005a38 <__kernel_cosf+0xdc>)
 800598a:	1c07      	adds	r7, r0, #0
 800598c:	1c28      	adds	r0, r5, #0
 800598e:	f7fb f943 	bl	8000c18 <__aeabi_fmul>
 8005992:	492a      	ldr	r1, [pc, #168]	@ (8005a3c <__kernel_cosf+0xe0>)
 8005994:	f7fa fd80 	bl	8000498 <__aeabi_fadd>
 8005998:	1c29      	adds	r1, r5, #0
 800599a:	f7fb f93d 	bl	8000c18 <__aeabi_fmul>
 800599e:	4928      	ldr	r1, [pc, #160]	@ (8005a40 <__kernel_cosf+0xe4>)
 80059a0:	f7fb fa94 	bl	8000ecc <__aeabi_fsub>
 80059a4:	1c29      	adds	r1, r5, #0
 80059a6:	f7fb f937 	bl	8000c18 <__aeabi_fmul>
 80059aa:	4926      	ldr	r1, [pc, #152]	@ (8005a44 <__kernel_cosf+0xe8>)
 80059ac:	f7fa fd74 	bl	8000498 <__aeabi_fadd>
 80059b0:	1c29      	adds	r1, r5, #0
 80059b2:	f7fb f931 	bl	8000c18 <__aeabi_fmul>
 80059b6:	4924      	ldr	r1, [pc, #144]	@ (8005a48 <__kernel_cosf+0xec>)
 80059b8:	f7fb fa88 	bl	8000ecc <__aeabi_fsub>
 80059bc:	1c29      	adds	r1, r5, #0
 80059be:	f7fb f92b 	bl	8000c18 <__aeabi_fmul>
 80059c2:	4922      	ldr	r1, [pc, #136]	@ (8005a4c <__kernel_cosf+0xf0>)
 80059c4:	f7fa fd68 	bl	8000498 <__aeabi_fadd>
 80059c8:	1c29      	adds	r1, r5, #0
 80059ca:	f7fb f925 	bl	8000c18 <__aeabi_fmul>
 80059ce:	1c29      	adds	r1, r5, #0
 80059d0:	f7fb f922 	bl	8000c18 <__aeabi_fmul>
 80059d4:	9901      	ldr	r1, [sp, #4]
 80059d6:	1c05      	adds	r5, r0, #0
 80059d8:	1c30      	adds	r0, r6, #0
 80059da:	f7fb f91d 	bl	8000c18 <__aeabi_fmul>
 80059de:	1c01      	adds	r1, r0, #0
 80059e0:	1c28      	adds	r0, r5, #0
 80059e2:	f7fb fa73 	bl	8000ecc <__aeabi_fsub>
 80059e6:	4b1a      	ldr	r3, [pc, #104]	@ (8005a50 <__kernel_cosf+0xf4>)
 80059e8:	1c05      	adds	r5, r0, #0
 80059ea:	429c      	cmp	r4, r3
 80059ec:	d809      	bhi.n	8005a02 <__kernel_cosf+0xa6>
 80059ee:	1c01      	adds	r1, r0, #0
 80059f0:	1c38      	adds	r0, r7, #0
 80059f2:	f7fb fa6b 	bl	8000ecc <__aeabi_fsub>
 80059f6:	1c01      	adds	r1, r0, #0
 80059f8:	20fe      	movs	r0, #254	@ 0xfe
 80059fa:	0580      	lsls	r0, r0, #22
 80059fc:	f7fb fa66 	bl	8000ecc <__aeabi_fsub>
 8005a00:	bdfe      	pop	{r1, r2, r3, r4, r5, r6, r7, pc}
 8005a02:	4b14      	ldr	r3, [pc, #80]	@ (8005a54 <__kernel_cosf+0xf8>)
 8005a04:	429c      	cmp	r4, r3
 8005a06:	d812      	bhi.n	8005a2e <__kernel_cosf+0xd2>
 8005a08:	23ff      	movs	r3, #255	@ 0xff
 8005a0a:	061b      	lsls	r3, r3, #24
 8005a0c:	18e4      	adds	r4, r4, r3
 8005a0e:	20fe      	movs	r0, #254	@ 0xfe
 8005a10:	1c21      	adds	r1, r4, #0
 8005a12:	0580      	lsls	r0, r0, #22
 8005a14:	f7fb fa5a 	bl	8000ecc <__aeabi_fsub>
 8005a18:	1c21      	adds	r1, r4, #0
 8005a1a:	1c06      	adds	r6, r0, #0
 8005a1c:	1c38      	adds	r0, r7, #0
 8005a1e:	f7fb fa55 	bl	8000ecc <__aeabi_fsub>
 8005a22:	1c29      	adds	r1, r5, #0
 8005a24:	f7fb fa52 	bl	8000ecc <__aeabi_fsub>
 8005a28:	1c01      	adds	r1, r0, #0
 8005a2a:	1c30      	adds	r0, r6, #0
 8005a2c:	e7e6      	b.n	80059fc <__kernel_cosf+0xa0>
 8005a2e:	4c0a      	ldr	r4, [pc, #40]	@ (8005a58 <__kernel_cosf+0xfc>)
 8005a30:	e7ed      	b.n	8005a0e <__kernel_cosf+0xb2>
 8005a32:	20fe      	movs	r0, #254	@ 0xfe
 8005a34:	0580      	lsls	r0, r0, #22
 8005a36:	e7e3      	b.n	8005a00 <__kernel_cosf+0xa4>
 8005a38:	ad47d74e 	.word	0xad47d74e
 8005a3c:	310f74f6 	.word	0x310f74f6
 8005a40:	3493f27c 	.word	0x3493f27c
 8005a44:	37d00d01 	.word	0x37d00d01
 8005a48:	3ab60b61 	.word	0x3ab60b61
 8005a4c:	3d2aaaab 	.word	0x3d2aaaab
 8005a50:	3e999999 	.word	0x3e999999
 8005a54:	3f480000 	.word	0x3f480000
 8005a58:	3e900000 	.word	0x3e900000

08005a5c <__kernel_sinf>:
 8005a5c:	b5f7      	push	{r0, r1, r2, r4, r5, r6, r7, lr}
 8005a5e:	9201      	str	r2, [sp, #4]
 8005a60:	22c8      	movs	r2, #200	@ 0xc8
 8005a62:	0043      	lsls	r3, r0, #1
 8005a64:	1c04      	adds	r4, r0, #0
 8005a66:	9100      	str	r1, [sp, #0]
 8005a68:	085b      	lsrs	r3, r3, #1
 8005a6a:	0592      	lsls	r2, r2, #22
 8005a6c:	4293      	cmp	r3, r2
 8005a6e:	d203      	bcs.n	8005a78 <__kernel_sinf+0x1c>
 8005a70:	f7fb fca6 	bl	80013c0 <__aeabi_f2iz>
 8005a74:	2800      	cmp	r0, #0
 8005a76:	d035      	beq.n	8005ae4 <__kernel_sinf+0x88>
 8005a78:	1c21      	adds	r1, r4, #0
 8005a7a:	1c20      	adds	r0, r4, #0
 8005a7c:	f7fb f8cc 	bl	8000c18 <__aeabi_fmul>
 8005a80:	1c05      	adds	r5, r0, #0
 8005a82:	1c01      	adds	r1, r0, #0
 8005a84:	1c20      	adds	r0, r4, #0
 8005a86:	f7fb f8c7 	bl	8000c18 <__aeabi_fmul>
 8005a8a:	4928      	ldr	r1, [pc, #160]	@ (8005b2c <__kernel_sinf+0xd0>)
 8005a8c:	1c06      	adds	r6, r0, #0
 8005a8e:	1c28      	adds	r0, r5, #0
 8005a90:	f7fb f8c2 	bl	8000c18 <__aeabi_fmul>
 8005a94:	4926      	ldr	r1, [pc, #152]	@ (8005b30 <__kernel_sinf+0xd4>)
 8005a96:	f7fb fa19 	bl	8000ecc <__aeabi_fsub>
 8005a9a:	1c29      	adds	r1, r5, #0
 8005a9c:	f7fb f8bc 	bl	8000c18 <__aeabi_fmul>
 8005aa0:	4924      	ldr	r1, [pc, #144]	@ (8005b34 <__kernel_sinf+0xd8>)
 8005aa2:	f7fa fcf9 	bl	8000498 <__aeabi_fadd>
 8005aa6:	1c29      	adds	r1, r5, #0
 8005aa8:	f7fb f8b6 	bl	8000c18 <__aeabi_fmul>
 8005aac:	4922      	ldr	r1, [pc, #136]	@ (8005b38 <__kernel_sinf+0xdc>)
 8005aae:	f7fb fa0d 	bl	8000ecc <__aeabi_fsub>
 8005ab2:	1c29      	adds	r1, r5, #0
 8005ab4:	f7fb f8b0 	bl	8000c18 <__aeabi_fmul>
 8005ab8:	4920      	ldr	r1, [pc, #128]	@ (8005b3c <__kernel_sinf+0xe0>)
 8005aba:	f7fa fced 	bl	8000498 <__aeabi_fadd>
 8005abe:	9b01      	ldr	r3, [sp, #4]
 8005ac0:	1c07      	adds	r7, r0, #0
 8005ac2:	2b00      	cmp	r3, #0
 8005ac4:	d110      	bne.n	8005ae8 <__kernel_sinf+0x8c>
 8005ac6:	1c01      	adds	r1, r0, #0
 8005ac8:	1c28      	adds	r0, r5, #0
 8005aca:	f7fb f8a5 	bl	8000c18 <__aeabi_fmul>
 8005ace:	491c      	ldr	r1, [pc, #112]	@ (8005b40 <__kernel_sinf+0xe4>)
 8005ad0:	f7fb f9fc 	bl	8000ecc <__aeabi_fsub>
 8005ad4:	1c31      	adds	r1, r6, #0
 8005ad6:	f7fb f89f 	bl	8000c18 <__aeabi_fmul>
 8005ada:	1c01      	adds	r1, r0, #0
 8005adc:	1c20      	adds	r0, r4, #0
 8005ade:	f7fa fcdb 	bl	8000498 <__aeabi_fadd>
 8005ae2:	1c04      	adds	r4, r0, #0
 8005ae4:	1c20      	adds	r0, r4, #0
 8005ae6:	bdfe      	pop	{r1, r2, r3, r4, r5, r6, r7, pc}
 8005ae8:	21fc      	movs	r1, #252	@ 0xfc
 8005aea:	9800      	ldr	r0, [sp, #0]
 8005aec:	0589      	lsls	r1, r1, #22
 8005aee:	f7fb f893 	bl	8000c18 <__aeabi_fmul>
 8005af2:	1c39      	adds	r1, r7, #0
 8005af4:	9001      	str	r0, [sp, #4]
 8005af6:	1c30      	adds	r0, r6, #0
 8005af8:	f7fb f88e 	bl	8000c18 <__aeabi_fmul>
 8005afc:	1c01      	adds	r1, r0, #0
 8005afe:	9801      	ldr	r0, [sp, #4]
 8005b00:	f7fb f9e4 	bl	8000ecc <__aeabi_fsub>
 8005b04:	1c29      	adds	r1, r5, #0
 8005b06:	f7fb f887 	bl	8000c18 <__aeabi_fmul>
 8005b0a:	9900      	ldr	r1, [sp, #0]
 8005b0c:	f7fb f9de 	bl	8000ecc <__aeabi_fsub>
 8005b10:	490b      	ldr	r1, [pc, #44]	@ (8005b40 <__kernel_sinf+0xe4>)
 8005b12:	1c05      	adds	r5, r0, #0
 8005b14:	1c30      	adds	r0, r6, #0
 8005b16:	f7fb f87f 	bl	8000c18 <__aeabi_fmul>
 8005b1a:	1c01      	adds	r1, r0, #0
 8005b1c:	1c28      	adds	r0, r5, #0
 8005b1e:	f7fa fcbb 	bl	8000498 <__aeabi_fadd>
 8005b22:	1c01      	adds	r1, r0, #0
 8005b24:	1c20      	adds	r0, r4, #0
 8005b26:	f7fb f9d1 	bl	8000ecc <__aeabi_fsub>
 8005b2a:	e7da      	b.n	8005ae2 <__kernel_sinf+0x86>
 8005b2c:	2f2ec9d3 	.word	0x2f2ec9d3
 8005b30:	32d72f34 	.word	0x32d72f34
 8005b34:	3638ef1b 	.word	0x3638ef1b
 8005b38:	39500d01 	.word	0x39500d01
 8005b3c:	3c088889 	.word	0x3c088889
 8005b40:	3e2aaaab 	.word	0x3e2aaaab

08005b44 <__ieee754_atan2f>:
 8005b44:	b5f7      	push	{r0, r1, r2, r4, r5, r6, r7, lr}
 8005b46:	25ff      	movs	r5, #255	@ 0xff
 8005b48:	004a      	lsls	r2, r1, #1
 8005b4a:	9101      	str	r1, [sp, #4]
 8005b4c:	0852      	lsrs	r2, r2, #1
 8005b4e:	05ed      	lsls	r5, r5, #23
 8005b50:	42aa      	cmp	r2, r5
 8005b52:	d804      	bhi.n	8005b5e <__ieee754_atan2f+0x1a>
 8005b54:	0043      	lsls	r3, r0, #1
 8005b56:	0007      	movs	r7, r0
 8005b58:	085b      	lsrs	r3, r3, #1
 8005b5a:	42ab      	cmp	r3, r5
 8005b5c:	d902      	bls.n	8005b64 <__ieee754_atan2f+0x20>
 8005b5e:	f7fa fc9b 	bl	8000498 <__aeabi_fadd>
 8005b62:	bdfe      	pop	{r1, r2, r3, r4, r5, r6, r7, pc}
 8005b64:	24fe      	movs	r4, #254	@ 0xfe
 8005b66:	05a4      	lsls	r4, r4, #22
 8005b68:	42a1      	cmp	r1, r4
 8005b6a:	d102      	bne.n	8005b72 <__ieee754_atan2f+0x2e>
 8005b6c:	f000 f9c6 	bl	8005efc <atanf>
 8005b70:	e7f7      	b.n	8005b62 <__ieee754_atan2f+0x1e>
 8005b72:	2602      	movs	r6, #2
 8005b74:	178c      	asrs	r4, r1, #30
 8005b76:	4034      	ands	r4, r6
 8005b78:	0fc6      	lsrs	r6, r0, #31
 8005b7a:	4334      	orrs	r4, r6
 8005b7c:	2b00      	cmp	r3, #0
 8005b7e:	d105      	bne.n	8005b8c <__ieee754_atan2f+0x48>
 8005b80:	2c02      	cmp	r4, #2
 8005b82:	d045      	beq.n	8005c10 <__ieee754_atan2f+0xcc>
 8005b84:	2c03      	cmp	r4, #3
 8005b86:	d1ec      	bne.n	8005b62 <__ieee754_atan2f+0x1e>
 8005b88:	4823      	ldr	r0, [pc, #140]	@ (8005c18 <__ieee754_atan2f+0xd4>)
 8005b8a:	e7ea      	b.n	8005b62 <__ieee754_atan2f+0x1e>
 8005b8c:	2a00      	cmp	r2, #0
 8005b8e:	d103      	bne.n	8005b98 <__ieee754_atan2f+0x54>
 8005b90:	2f00      	cmp	r7, #0
 8005b92:	db3f      	blt.n	8005c14 <__ieee754_atan2f+0xd0>
 8005b94:	4821      	ldr	r0, [pc, #132]	@ (8005c1c <__ieee754_atan2f+0xd8>)
 8005b96:	e7e4      	b.n	8005b62 <__ieee754_atan2f+0x1e>
 8005b98:	42aa      	cmp	r2, r5
 8005b9a:	d10e      	bne.n	8005bba <__ieee754_atan2f+0x76>
 8005b9c:	3c01      	subs	r4, #1
 8005b9e:	4293      	cmp	r3, r2
 8005ba0:	d104      	bne.n	8005bac <__ieee754_atan2f+0x68>
 8005ba2:	4b1f      	ldr	r3, [pc, #124]	@ (8005c20 <__ieee754_atan2f+0xdc>)
 8005ba4:	2c02      	cmp	r4, #2
 8005ba6:	d905      	bls.n	8005bb4 <__ieee754_atan2f+0x70>
 8005ba8:	481e      	ldr	r0, [pc, #120]	@ (8005c24 <__ieee754_atan2f+0xe0>)
 8005baa:	e7da      	b.n	8005b62 <__ieee754_atan2f+0x1e>
 8005bac:	2000      	movs	r0, #0
 8005bae:	2c02      	cmp	r4, #2
 8005bb0:	d8d7      	bhi.n	8005b62 <__ieee754_atan2f+0x1e>
 8005bb2:	4b1d      	ldr	r3, [pc, #116]	@ (8005c28 <__ieee754_atan2f+0xe4>)
 8005bb4:	00a4      	lsls	r4, r4, #2
 8005bb6:	58e0      	ldr	r0, [r4, r3]
 8005bb8:	e7d3      	b.n	8005b62 <__ieee754_atan2f+0x1e>
 8005bba:	42ab      	cmp	r3, r5
 8005bbc:	d0e8      	beq.n	8005b90 <__ieee754_atan2f+0x4c>
 8005bbe:	1a9b      	subs	r3, r3, r2
 8005bc0:	15db      	asrs	r3, r3, #23
 8005bc2:	2b3c      	cmp	r3, #60	@ 0x3c
 8005bc4:	dc14      	bgt.n	8005bf0 <__ieee754_atan2f+0xac>
 8005bc6:	2900      	cmp	r1, #0
 8005bc8:	da01      	bge.n	8005bce <__ieee754_atan2f+0x8a>
 8005bca:	333c      	adds	r3, #60	@ 0x3c
 8005bcc:	db12      	blt.n	8005bf4 <__ieee754_atan2f+0xb0>
 8005bce:	f7fa fe55 	bl	800087c <__aeabi_fdiv>
 8005bd2:	f000 faa3 	bl	800611c <fabsf>
 8005bd6:	f000 f991 	bl	8005efc <atanf>
 8005bda:	2c01      	cmp	r4, #1
 8005bdc:	d00c      	beq.n	8005bf8 <__ieee754_atan2f+0xb4>
 8005bde:	2c02      	cmp	r4, #2
 8005be0:	d00e      	beq.n	8005c00 <__ieee754_atan2f+0xbc>
 8005be2:	2c00      	cmp	r4, #0
 8005be4:	d0bd      	beq.n	8005b62 <__ieee754_atan2f+0x1e>
 8005be6:	4911      	ldr	r1, [pc, #68]	@ (8005c2c <__ieee754_atan2f+0xe8>)
 8005be8:	f7fa fc56 	bl	8000498 <__aeabi_fadd>
 8005bec:	4910      	ldr	r1, [pc, #64]	@ (8005c30 <__ieee754_atan2f+0xec>)
 8005bee:	e00c      	b.n	8005c0a <__ieee754_atan2f+0xc6>
 8005bf0:	480a      	ldr	r0, [pc, #40]	@ (8005c1c <__ieee754_atan2f+0xd8>)
 8005bf2:	e7f2      	b.n	8005bda <__ieee754_atan2f+0x96>
 8005bf4:	2000      	movs	r0, #0
 8005bf6:	e7f0      	b.n	8005bda <__ieee754_atan2f+0x96>
 8005bf8:	2380      	movs	r3, #128	@ 0x80
 8005bfa:	061b      	lsls	r3, r3, #24
 8005bfc:	18c0      	adds	r0, r0, r3
 8005bfe:	e7b0      	b.n	8005b62 <__ieee754_atan2f+0x1e>
 8005c00:	490a      	ldr	r1, [pc, #40]	@ (8005c2c <__ieee754_atan2f+0xe8>)
 8005c02:	f7fa fc49 	bl	8000498 <__aeabi_fadd>
 8005c06:	1c01      	adds	r1, r0, #0
 8005c08:	4809      	ldr	r0, [pc, #36]	@ (8005c30 <__ieee754_atan2f+0xec>)
 8005c0a:	f7fb f95f 	bl	8000ecc <__aeabi_fsub>
 8005c0e:	e7a8      	b.n	8005b62 <__ieee754_atan2f+0x1e>
 8005c10:	4807      	ldr	r0, [pc, #28]	@ (8005c30 <__ieee754_atan2f+0xec>)
 8005c12:	e7a6      	b.n	8005b62 <__ieee754_atan2f+0x1e>
 8005c14:	4807      	ldr	r0, [pc, #28]	@ (8005c34 <__ieee754_atan2f+0xf0>)
 8005c16:	e7a4      	b.n	8005b62 <__ieee754_atan2f+0x1e>
 8005c18:	c0490fdb 	.word	0xc0490fdb
 8005c1c:	3fc90fdb 	.word	0x3fc90fdb
 8005c20:	080068d0 	.word	0x080068d0
 8005c24:	3f490fdb 	.word	0x3f490fdb
 8005c28:	080068c4 	.word	0x080068c4
 8005c2c:	33bbbd2e 	.word	0x33bbbd2e
 8005c30:	40490fdb 	.word	0x40490fdb
 8005c34:	bfc90fdb 	.word	0xbfc90fdb

08005c38 <__ieee754_rem_pio2f>:
 8005c38:	b5f0      	push	{r4, r5, r6, r7, lr}
 8005c3a:	4ba1      	ldr	r3, [pc, #644]	@ (8005ec0 <__ieee754_rem_pio2f+0x288>)
 8005c3c:	b08d      	sub	sp, #52	@ 0x34
 8005c3e:	0045      	lsls	r5, r0, #1
 8005c40:	000c      	movs	r4, r1
 8005c42:	1c07      	adds	r7, r0, #0
 8005c44:	9006      	str	r0, [sp, #24]
 8005c46:	086d      	lsrs	r5, r5, #1
 8005c48:	429d      	cmp	r5, r3
 8005c4a:	d804      	bhi.n	8005c56 <__ieee754_rem_pio2f+0x1e>
 8005c4c:	2300      	movs	r3, #0
 8005c4e:	6008      	str	r0, [r1, #0]
 8005c50:	604b      	str	r3, [r1, #4]
 8005c52:	2600      	movs	r6, #0
 8005c54:	e01b      	b.n	8005c8e <__ieee754_rem_pio2f+0x56>
 8005c56:	4b9b      	ldr	r3, [pc, #620]	@ (8005ec4 <__ieee754_rem_pio2f+0x28c>)
 8005c58:	429d      	cmp	r5, r3
 8005c5a:	d84c      	bhi.n	8005cf6 <__ieee754_rem_pio2f+0xbe>
 8005c5c:	4d9a      	ldr	r5, [pc, #616]	@ (8005ec8 <__ieee754_rem_pio2f+0x290>)
 8005c5e:	4e9b      	ldr	r6, [pc, #620]	@ (8005ecc <__ieee754_rem_pio2f+0x294>)
 8005c60:	499b      	ldr	r1, [pc, #620]	@ (8005ed0 <__ieee754_rem_pio2f+0x298>)
 8005c62:	4005      	ands	r5, r0
 8005c64:	2800      	cmp	r0, #0
 8005c66:	dd23      	ble.n	8005cb0 <__ieee754_rem_pio2f+0x78>
 8005c68:	f7fb f930 	bl	8000ecc <__aeabi_fsub>
 8005c6c:	1c07      	adds	r7, r0, #0
 8005c6e:	42b5      	cmp	r5, r6
 8005c70:	d010      	beq.n	8005c94 <__ieee754_rem_pio2f+0x5c>
 8005c72:	4998      	ldr	r1, [pc, #608]	@ (8005ed4 <__ieee754_rem_pio2f+0x29c>)
 8005c74:	f7fb f92a 	bl	8000ecc <__aeabi_fsub>
 8005c78:	1c01      	adds	r1, r0, #0
 8005c7a:	1c05      	adds	r5, r0, #0
 8005c7c:	1c38      	adds	r0, r7, #0
 8005c7e:	f7fb f925 	bl	8000ecc <__aeabi_fsub>
 8005c82:	4994      	ldr	r1, [pc, #592]	@ (8005ed4 <__ieee754_rem_pio2f+0x29c>)
 8005c84:	f7fb f922 	bl	8000ecc <__aeabi_fsub>
 8005c88:	2601      	movs	r6, #1
 8005c8a:	6025      	str	r5, [r4, #0]
 8005c8c:	6060      	str	r0, [r4, #4]
 8005c8e:	0030      	movs	r0, r6
 8005c90:	b00d      	add	sp, #52	@ 0x34
 8005c92:	bdf0      	pop	{r4, r5, r6, r7, pc}
 8005c94:	4990      	ldr	r1, [pc, #576]	@ (8005ed8 <__ieee754_rem_pio2f+0x2a0>)
 8005c96:	f7fb f919 	bl	8000ecc <__aeabi_fsub>
 8005c9a:	4990      	ldr	r1, [pc, #576]	@ (8005edc <__ieee754_rem_pio2f+0x2a4>)
 8005c9c:	1c06      	adds	r6, r0, #0
 8005c9e:	f7fb f915 	bl	8000ecc <__aeabi_fsub>
 8005ca2:	1c01      	adds	r1, r0, #0
 8005ca4:	1c05      	adds	r5, r0, #0
 8005ca6:	1c30      	adds	r0, r6, #0
 8005ca8:	f7fb f910 	bl	8000ecc <__aeabi_fsub>
 8005cac:	498b      	ldr	r1, [pc, #556]	@ (8005edc <__ieee754_rem_pio2f+0x2a4>)
 8005cae:	e7e9      	b.n	8005c84 <__ieee754_rem_pio2f+0x4c>
 8005cb0:	f7fa fbf2 	bl	8000498 <__aeabi_fadd>
 8005cb4:	1c07      	adds	r7, r0, #0
 8005cb6:	42b5      	cmp	r5, r6
 8005cb8:	d00f      	beq.n	8005cda <__ieee754_rem_pio2f+0xa2>
 8005cba:	4986      	ldr	r1, [pc, #536]	@ (8005ed4 <__ieee754_rem_pio2f+0x29c>)
 8005cbc:	f7fa fbec 	bl	8000498 <__aeabi_fadd>
 8005cc0:	1c01      	adds	r1, r0, #0
 8005cc2:	1c05      	adds	r5, r0, #0
 8005cc4:	1c38      	adds	r0, r7, #0
 8005cc6:	f7fb f901 	bl	8000ecc <__aeabi_fsub>
 8005cca:	4982      	ldr	r1, [pc, #520]	@ (8005ed4 <__ieee754_rem_pio2f+0x29c>)
 8005ccc:	f7fa fbe4 	bl	8000498 <__aeabi_fadd>
 8005cd0:	2601      	movs	r6, #1
 8005cd2:	6025      	str	r5, [r4, #0]
 8005cd4:	6060      	str	r0, [r4, #4]
 8005cd6:	4276      	negs	r6, r6
 8005cd8:	e7d9      	b.n	8005c8e <__ieee754_rem_pio2f+0x56>
 8005cda:	497f      	ldr	r1, [pc, #508]	@ (8005ed8 <__ieee754_rem_pio2f+0x2a0>)
 8005cdc:	f7fa fbdc 	bl	8000498 <__aeabi_fadd>
 8005ce0:	497e      	ldr	r1, [pc, #504]	@ (8005edc <__ieee754_rem_pio2f+0x2a4>)
 8005ce2:	1c06      	adds	r6, r0, #0
 8005ce4:	f7fa fbd8 	bl	8000498 <__aeabi_fadd>
 8005ce8:	1c01      	adds	r1, r0, #0
 8005cea:	1c05      	adds	r5, r0, #0
 8005cec:	1c30      	adds	r0, r6, #0
 8005cee:	f7fb f8ed 	bl	8000ecc <__aeabi_fsub>
 8005cf2:	497a      	ldr	r1, [pc, #488]	@ (8005edc <__ieee754_rem_pio2f+0x2a4>)
 8005cf4:	e7ea      	b.n	8005ccc <__ieee754_rem_pio2f+0x94>
 8005cf6:	4b7a      	ldr	r3, [pc, #488]	@ (8005ee0 <__ieee754_rem_pio2f+0x2a8>)
 8005cf8:	429d      	cmp	r5, r3
 8005cfa:	d900      	bls.n	8005cfe <__ieee754_rem_pio2f+0xc6>
 8005cfc:	e090      	b.n	8005e20 <__ieee754_rem_pio2f+0x1e8>
 8005cfe:	f000 fa0d 	bl	800611c <fabsf>
 8005d02:	4978      	ldr	r1, [pc, #480]	@ (8005ee4 <__ieee754_rem_pio2f+0x2ac>)
 8005d04:	9003      	str	r0, [sp, #12]
 8005d06:	f7fa ff87 	bl	8000c18 <__aeabi_fmul>
 8005d0a:	21fc      	movs	r1, #252	@ 0xfc
 8005d0c:	0589      	lsls	r1, r1, #22
 8005d0e:	f7fa fbc3 	bl	8000498 <__aeabi_fadd>
 8005d12:	f7fb fb55 	bl	80013c0 <__aeabi_f2iz>
 8005d16:	0006      	movs	r6, r0
 8005d18:	f7fb fb72 	bl	8001400 <__aeabi_i2f>
 8005d1c:	496c      	ldr	r1, [pc, #432]	@ (8005ed0 <__ieee754_rem_pio2f+0x298>)
 8005d1e:	9005      	str	r0, [sp, #20]
 8005d20:	f7fa ff7a 	bl	8000c18 <__aeabi_fmul>
 8005d24:	1c01      	adds	r1, r0, #0
 8005d26:	9803      	ldr	r0, [sp, #12]
 8005d28:	f7fb f8d0 	bl	8000ecc <__aeabi_fsub>
 8005d2c:	4969      	ldr	r1, [pc, #420]	@ (8005ed4 <__ieee754_rem_pio2f+0x29c>)
 8005d2e:	9003      	str	r0, [sp, #12]
 8005d30:	9805      	ldr	r0, [sp, #20]
 8005d32:	f7fa ff71 	bl	8000c18 <__aeabi_fmul>
 8005d36:	9004      	str	r0, [sp, #16]
 8005d38:	2e1f      	cmp	r6, #31
 8005d3a:	dc0c      	bgt.n	8005d56 <__ieee754_rem_pio2f+0x11e>
 8005d3c:	4a6a      	ldr	r2, [pc, #424]	@ (8005ee8 <__ieee754_rem_pio2f+0x2b0>)
 8005d3e:	1e71      	subs	r1, r6, #1
 8005d40:	0089      	lsls	r1, r1, #2
 8005d42:	4b6a      	ldr	r3, [pc, #424]	@ (8005eec <__ieee754_rem_pio2f+0x2b4>)
 8005d44:	588a      	ldr	r2, [r1, r2]
 8005d46:	403b      	ands	r3, r7
 8005d48:	4293      	cmp	r3, r2
 8005d4a:	d004      	beq.n	8005d56 <__ieee754_rem_pio2f+0x11e>
 8005d4c:	1c01      	adds	r1, r0, #0
 8005d4e:	9803      	ldr	r0, [sp, #12]
 8005d50:	f7fb f8bc 	bl	8000ecc <__aeabi_fsub>
 8005d54:	e00c      	b.n	8005d70 <__ieee754_rem_pio2f+0x138>
 8005d56:	9904      	ldr	r1, [sp, #16]
 8005d58:	9803      	ldr	r0, [sp, #12]
 8005d5a:	f7fb f8b7 	bl	8000ecc <__aeabi_fsub>
 8005d5e:	22ff      	movs	r2, #255	@ 0xff
 8005d60:	15eb      	asrs	r3, r5, #23
 8005d62:	9307      	str	r3, [sp, #28]
 8005d64:	0dc3      	lsrs	r3, r0, #23
 8005d66:	4013      	ands	r3, r2
 8005d68:	9a07      	ldr	r2, [sp, #28]
 8005d6a:	1ad3      	subs	r3, r2, r3
 8005d6c:	2b08      	cmp	r3, #8
 8005d6e:	dc01      	bgt.n	8005d74 <__ieee754_rem_pio2f+0x13c>
 8005d70:	6020      	str	r0, [r4, #0]
 8005d72:	e026      	b.n	8005dc2 <__ieee754_rem_pio2f+0x18a>
 8005d74:	4958      	ldr	r1, [pc, #352]	@ (8005ed8 <__ieee754_rem_pio2f+0x2a0>)
 8005d76:	9805      	ldr	r0, [sp, #20]
 8005d78:	f7fa ff4e 	bl	8000c18 <__aeabi_fmul>
 8005d7c:	1c05      	adds	r5, r0, #0
 8005d7e:	1c01      	adds	r1, r0, #0
 8005d80:	9803      	ldr	r0, [sp, #12]
 8005d82:	f7fb f8a3 	bl	8000ecc <__aeabi_fsub>
 8005d86:	1c01      	adds	r1, r0, #0
 8005d88:	1c07      	adds	r7, r0, #0
 8005d8a:	9803      	ldr	r0, [sp, #12]
 8005d8c:	f7fb f89e 	bl	8000ecc <__aeabi_fsub>
 8005d90:	1c29      	adds	r1, r5, #0
 8005d92:	f7fb f89b 	bl	8000ecc <__aeabi_fsub>
 8005d96:	4951      	ldr	r1, [pc, #324]	@ (8005edc <__ieee754_rem_pio2f+0x2a4>)
 8005d98:	1c05      	adds	r5, r0, #0
 8005d9a:	9805      	ldr	r0, [sp, #20]
 8005d9c:	f7fa ff3c 	bl	8000c18 <__aeabi_fmul>
 8005da0:	1c29      	adds	r1, r5, #0
 8005da2:	f7fb f893 	bl	8000ecc <__aeabi_fsub>
 8005da6:	9004      	str	r0, [sp, #16]
 8005da8:	1c01      	adds	r1, r0, #0
 8005daa:	1c38      	adds	r0, r7, #0
 8005dac:	f7fb f88e 	bl	8000ecc <__aeabi_fsub>
 8005db0:	22ff      	movs	r2, #255	@ 0xff
 8005db2:	0dc3      	lsrs	r3, r0, #23
 8005db4:	4013      	ands	r3, r2
 8005db6:	9a07      	ldr	r2, [sp, #28]
 8005db8:	1ad3      	subs	r3, r2, r3
 8005dba:	2b19      	cmp	r3, #25
 8005dbc:	dc15      	bgt.n	8005dea <__ieee754_rem_pio2f+0x1b2>
 8005dbe:	6020      	str	r0, [r4, #0]
 8005dc0:	9703      	str	r7, [sp, #12]
 8005dc2:	6825      	ldr	r5, [r4, #0]
 8005dc4:	9803      	ldr	r0, [sp, #12]
 8005dc6:	1c29      	adds	r1, r5, #0
 8005dc8:	f7fb f880 	bl	8000ecc <__aeabi_fsub>
 8005dcc:	9904      	ldr	r1, [sp, #16]
 8005dce:	f7fb f87d 	bl	8000ecc <__aeabi_fsub>
 8005dd2:	9b06      	ldr	r3, [sp, #24]
 8005dd4:	6060      	str	r0, [r4, #4]
 8005dd6:	2b00      	cmp	r3, #0
 8005dd8:	db00      	blt.n	8005ddc <__ieee754_rem_pio2f+0x1a4>
 8005dda:	e758      	b.n	8005c8e <__ieee754_rem_pio2f+0x56>
 8005ddc:	2380      	movs	r3, #128	@ 0x80
 8005dde:	061b      	lsls	r3, r3, #24
 8005de0:	18ed      	adds	r5, r5, r3
 8005de2:	18c0      	adds	r0, r0, r3
 8005de4:	6025      	str	r5, [r4, #0]
 8005de6:	6060      	str	r0, [r4, #4]
 8005de8:	e775      	b.n	8005cd6 <__ieee754_rem_pio2f+0x9e>
 8005dea:	4941      	ldr	r1, [pc, #260]	@ (8005ef0 <__ieee754_rem_pio2f+0x2b8>)
 8005dec:	9805      	ldr	r0, [sp, #20]
 8005dee:	f7fa ff13 	bl	8000c18 <__aeabi_fmul>
 8005df2:	1c05      	adds	r5, r0, #0
 8005df4:	1c01      	adds	r1, r0, #0
 8005df6:	1c38      	adds	r0, r7, #0
 8005df8:	f7fb f868 	bl	8000ecc <__aeabi_fsub>
 8005dfc:	1c01      	adds	r1, r0, #0
 8005dfe:	9003      	str	r0, [sp, #12]
 8005e00:	1c38      	adds	r0, r7, #0
 8005e02:	f7fb f863 	bl	8000ecc <__aeabi_fsub>
 8005e06:	1c29      	adds	r1, r5, #0
 8005e08:	f7fb f860 	bl	8000ecc <__aeabi_fsub>
 8005e0c:	4939      	ldr	r1, [pc, #228]	@ (8005ef4 <__ieee754_rem_pio2f+0x2bc>)
 8005e0e:	1c05      	adds	r5, r0, #0
 8005e10:	9805      	ldr	r0, [sp, #20]
 8005e12:	f7fa ff01 	bl	8000c18 <__aeabi_fmul>
 8005e16:	1c29      	adds	r1, r5, #0
 8005e18:	f7fb f858 	bl	8000ecc <__aeabi_fsub>
 8005e1c:	9004      	str	r0, [sp, #16]
 8005e1e:	e795      	b.n	8005d4c <__ieee754_rem_pio2f+0x114>
 8005e20:	23ff      	movs	r3, #255	@ 0xff
 8005e22:	05db      	lsls	r3, r3, #23
 8005e24:	429d      	cmp	r5, r3
 8005e26:	d305      	bcc.n	8005e34 <__ieee754_rem_pio2f+0x1fc>
 8005e28:	1c01      	adds	r1, r0, #0
 8005e2a:	f7fb f84f 	bl	8000ecc <__aeabi_fsub>
 8005e2e:	6060      	str	r0, [r4, #4]
 8005e30:	6020      	str	r0, [r4, #0]
 8005e32:	e70e      	b.n	8005c52 <__ieee754_rem_pio2f+0x1a>
 8005e34:	15ee      	asrs	r6, r5, #23
 8005e36:	3e86      	subs	r6, #134	@ 0x86
 8005e38:	05f3      	lsls	r3, r6, #23
 8005e3a:	1aed      	subs	r5, r5, r3
 8005e3c:	1c28      	adds	r0, r5, #0
 8005e3e:	f7fb fabf 	bl	80013c0 <__aeabi_f2iz>
 8005e42:	f7fb fadd 	bl	8001400 <__aeabi_i2f>
 8005e46:	1c01      	adds	r1, r0, #0
 8005e48:	9009      	str	r0, [sp, #36]	@ 0x24
 8005e4a:	1c28      	adds	r0, r5, #0
 8005e4c:	f7fb f83e 	bl	8000ecc <__aeabi_fsub>
 8005e50:	2187      	movs	r1, #135	@ 0x87
 8005e52:	05c9      	lsls	r1, r1, #23
 8005e54:	f7fa fee0 	bl	8000c18 <__aeabi_fmul>
 8005e58:	1c07      	adds	r7, r0, #0
 8005e5a:	f7fb fab1 	bl	80013c0 <__aeabi_f2iz>
 8005e5e:	f7fb facf 	bl	8001400 <__aeabi_i2f>
 8005e62:	1c01      	adds	r1, r0, #0
 8005e64:	900a      	str	r0, [sp, #40]	@ 0x28
 8005e66:	1c05      	adds	r5, r0, #0
 8005e68:	1c38      	adds	r0, r7, #0
 8005e6a:	f7fb f82f 	bl	8000ecc <__aeabi_fsub>
 8005e6e:	2187      	movs	r1, #135	@ 0x87
 8005e70:	05c9      	lsls	r1, r1, #23
 8005e72:	f7fa fed1 	bl	8000c18 <__aeabi_fmul>
 8005e76:	2100      	movs	r1, #0
 8005e78:	900b      	str	r0, [sp, #44]	@ 0x2c
 8005e7a:	f7fa fac7 	bl	800040c <__aeabi_fcmpeq>
 8005e7e:	2303      	movs	r3, #3
 8005e80:	2800      	cmp	r0, #0
 8005e82:	d006      	beq.n	8005e92 <__ieee754_rem_pio2f+0x25a>
 8005e84:	2100      	movs	r1, #0
 8005e86:	1c28      	adds	r0, r5, #0
 8005e88:	f7fa fac0 	bl	800040c <__aeabi_fcmpeq>
 8005e8c:	4243      	negs	r3, r0
 8005e8e:	4143      	adcs	r3, r0
 8005e90:	3301      	adds	r3, #1
 8005e92:	4a19      	ldr	r2, [pc, #100]	@ (8005ef8 <__ieee754_rem_pio2f+0x2c0>)
 8005e94:	0021      	movs	r1, r4
 8005e96:	9201      	str	r2, [sp, #4]
 8005e98:	2202      	movs	r2, #2
 8005e9a:	a809      	add	r0, sp, #36	@ 0x24
 8005e9c:	9200      	str	r2, [sp, #0]
 8005e9e:	0032      	movs	r2, r6
 8005ea0:	f000 f940 	bl	8006124 <__kernel_rem_pio2f>
 8005ea4:	9b06      	ldr	r3, [sp, #24]
 8005ea6:	0006      	movs	r6, r0
 8005ea8:	2b00      	cmp	r3, #0
 8005eaa:	db00      	blt.n	8005eae <__ieee754_rem_pio2f+0x276>
 8005eac:	e6ef      	b.n	8005c8e <__ieee754_rem_pio2f+0x56>
 8005eae:	2280      	movs	r2, #128	@ 0x80
 8005eb0:	6823      	ldr	r3, [r4, #0]
 8005eb2:	0612      	lsls	r2, r2, #24
 8005eb4:	189b      	adds	r3, r3, r2
 8005eb6:	6023      	str	r3, [r4, #0]
 8005eb8:	6863      	ldr	r3, [r4, #4]
 8005eba:	189b      	adds	r3, r3, r2
 8005ebc:	6063      	str	r3, [r4, #4]
 8005ebe:	e70a      	b.n	8005cd6 <__ieee754_rem_pio2f+0x9e>
 8005ec0:	3f490fd8 	.word	0x3f490fd8
 8005ec4:	4016cbe3 	.word	0x4016cbe3
 8005ec8:	7ffffff0 	.word	0x7ffffff0
 8005ecc:	3fc90fd0 	.word	0x3fc90fd0
 8005ed0:	3fc90f80 	.word	0x3fc90f80
 8005ed4:	37354443 	.word	0x37354443
 8005ed8:	37354400 	.word	0x37354400
 8005edc:	2e85a308 	.word	0x2e85a308
 8005ee0:	43490f80 	.word	0x43490f80
 8005ee4:	3f22f984 	.word	0x3f22f984
 8005ee8:	080068dc 	.word	0x080068dc
 8005eec:	7fffff00 	.word	0x7fffff00
 8005ef0:	2e85a300 	.word	0x2e85a300
 8005ef4:	248d3132 	.word	0x248d3132
 8005ef8:	0800695c 	.word	0x0800695c

08005efc <atanf>:
 8005efc:	23a1      	movs	r3, #161	@ 0xa1
 8005efe:	b5f7      	push	{r0, r1, r2, r4, r5, r6, r7, lr}
 8005f00:	0045      	lsls	r5, r0, #1
 8005f02:	1c04      	adds	r4, r0, #0
 8005f04:	9001      	str	r0, [sp, #4]
 8005f06:	086d      	lsrs	r5, r5, #1
 8005f08:	05db      	lsls	r3, r3, #23
 8005f0a:	429d      	cmp	r5, r3
 8005f0c:	d30f      	bcc.n	8005f2e <atanf+0x32>
 8005f0e:	23ff      	movs	r3, #255	@ 0xff
 8005f10:	05db      	lsls	r3, r3, #23
 8005f12:	429d      	cmp	r5, r3
 8005f14:	d904      	bls.n	8005f20 <atanf+0x24>
 8005f16:	1c01      	adds	r1, r0, #0
 8005f18:	f7fa fabe 	bl	8000498 <__aeabi_fadd>
 8005f1c:	1c04      	adds	r4, r0, #0
 8005f1e:	e004      	b.n	8005f2a <atanf+0x2e>
 8005f20:	9b01      	ldr	r3, [sp, #4]
 8005f22:	2b00      	cmp	r3, #0
 8005f24:	dc00      	bgt.n	8005f28 <atanf+0x2c>
 8005f26:	e0cc      	b.n	80060c2 <atanf+0x1c6>
 8005f28:	4c67      	ldr	r4, [pc, #412]	@ (80060c8 <atanf+0x1cc>)
 8005f2a:	1c20      	adds	r0, r4, #0
 8005f2c:	bdfe      	pop	{r1, r2, r3, r4, r5, r6, r7, pc}
 8005f2e:	4b67      	ldr	r3, [pc, #412]	@ (80060cc <atanf+0x1d0>)
 8005f30:	429d      	cmp	r5, r3
 8005f32:	d80f      	bhi.n	8005f54 <atanf+0x58>
 8005f34:	23c4      	movs	r3, #196	@ 0xc4
 8005f36:	059b      	lsls	r3, r3, #22
 8005f38:	429d      	cmp	r5, r3
 8005f3a:	d208      	bcs.n	8005f4e <atanf+0x52>
 8005f3c:	4964      	ldr	r1, [pc, #400]	@ (80060d0 <atanf+0x1d4>)
 8005f3e:	f7fa faab 	bl	8000498 <__aeabi_fadd>
 8005f42:	21fe      	movs	r1, #254	@ 0xfe
 8005f44:	0589      	lsls	r1, r1, #22
 8005f46:	f7fa fa7b 	bl	8000440 <__aeabi_fcmpgt>
 8005f4a:	2800      	cmp	r0, #0
 8005f4c:	d1ed      	bne.n	8005f2a <atanf+0x2e>
 8005f4e:	2601      	movs	r6, #1
 8005f50:	4276      	negs	r6, r6
 8005f52:	e01b      	b.n	8005f8c <atanf+0x90>
 8005f54:	f000 f8e2 	bl	800611c <fabsf>
 8005f58:	4b5e      	ldr	r3, [pc, #376]	@ (80060d4 <atanf+0x1d8>)
 8005f5a:	1c04      	adds	r4, r0, #0
 8005f5c:	429d      	cmp	r5, r3
 8005f5e:	d87b      	bhi.n	8006058 <atanf+0x15c>
 8005f60:	4b5d      	ldr	r3, [pc, #372]	@ (80060d8 <atanf+0x1dc>)
 8005f62:	429d      	cmp	r5, r3
 8005f64:	d867      	bhi.n	8006036 <atanf+0x13a>
 8005f66:	1c01      	adds	r1, r0, #0
 8005f68:	f7fa fa96 	bl	8000498 <__aeabi_fadd>
 8005f6c:	21fe      	movs	r1, #254	@ 0xfe
 8005f6e:	0589      	lsls	r1, r1, #22
 8005f70:	f7fa ffac 	bl	8000ecc <__aeabi_fsub>
 8005f74:	2180      	movs	r1, #128	@ 0x80
 8005f76:	1c05      	adds	r5, r0, #0
 8005f78:	05c9      	lsls	r1, r1, #23
 8005f7a:	1c20      	adds	r0, r4, #0
 8005f7c:	f7fa fa8c 	bl	8000498 <__aeabi_fadd>
 8005f80:	1c01      	adds	r1, r0, #0
 8005f82:	1c28      	adds	r0, r5, #0
 8005f84:	f7fa fc7a 	bl	800087c <__aeabi_fdiv>
 8005f88:	2600      	movs	r6, #0
 8005f8a:	1c04      	adds	r4, r0, #0
 8005f8c:	1c21      	adds	r1, r4, #0
 8005f8e:	1c20      	adds	r0, r4, #0
 8005f90:	f7fa fe42 	bl	8000c18 <__aeabi_fmul>
 8005f94:	1c01      	adds	r1, r0, #0
 8005f96:	1c07      	adds	r7, r0, #0
 8005f98:	f7fa fe3e 	bl	8000c18 <__aeabi_fmul>
 8005f9c:	494f      	ldr	r1, [pc, #316]	@ (80060dc <atanf+0x1e0>)
 8005f9e:	1c05      	adds	r5, r0, #0
 8005fa0:	f7fa fe3a 	bl	8000c18 <__aeabi_fmul>
 8005fa4:	494e      	ldr	r1, [pc, #312]	@ (80060e0 <atanf+0x1e4>)
 8005fa6:	f7fa fa77 	bl	8000498 <__aeabi_fadd>
 8005faa:	1c29      	adds	r1, r5, #0
 8005fac:	f7fa fe34 	bl	8000c18 <__aeabi_fmul>
 8005fb0:	494c      	ldr	r1, [pc, #304]	@ (80060e4 <atanf+0x1e8>)
 8005fb2:	f7fa fa71 	bl	8000498 <__aeabi_fadd>
 8005fb6:	1c29      	adds	r1, r5, #0
 8005fb8:	f7fa fe2e 	bl	8000c18 <__aeabi_fmul>
 8005fbc:	494a      	ldr	r1, [pc, #296]	@ (80060e8 <atanf+0x1ec>)
 8005fbe:	f7fa fa6b 	bl	8000498 <__aeabi_fadd>
 8005fc2:	1c29      	adds	r1, r5, #0
 8005fc4:	f7fa fe28 	bl	8000c18 <__aeabi_fmul>
 8005fc8:	4948      	ldr	r1, [pc, #288]	@ (80060ec <atanf+0x1f0>)
 8005fca:	f7fa fa65 	bl	8000498 <__aeabi_fadd>
 8005fce:	1c29      	adds	r1, r5, #0
 8005fd0:	f7fa fe22 	bl	8000c18 <__aeabi_fmul>
 8005fd4:	4946      	ldr	r1, [pc, #280]	@ (80060f0 <atanf+0x1f4>)
 8005fd6:	f7fa fa5f 	bl	8000498 <__aeabi_fadd>
 8005fda:	1c39      	adds	r1, r7, #0
 8005fdc:	f7fa fe1c 	bl	8000c18 <__aeabi_fmul>
 8005fe0:	4944      	ldr	r1, [pc, #272]	@ (80060f4 <atanf+0x1f8>)
 8005fe2:	1c07      	adds	r7, r0, #0
 8005fe4:	1c28      	adds	r0, r5, #0
 8005fe6:	f7fa fe17 	bl	8000c18 <__aeabi_fmul>
 8005fea:	4943      	ldr	r1, [pc, #268]	@ (80060f8 <atanf+0x1fc>)
 8005fec:	f7fa ff6e 	bl	8000ecc <__aeabi_fsub>
 8005ff0:	1c29      	adds	r1, r5, #0
 8005ff2:	f7fa fe11 	bl	8000c18 <__aeabi_fmul>
 8005ff6:	4941      	ldr	r1, [pc, #260]	@ (80060fc <atanf+0x200>)
 8005ff8:	f7fa ff68 	bl	8000ecc <__aeabi_fsub>
 8005ffc:	1c29      	adds	r1, r5, #0
 8005ffe:	f7fa fe0b 	bl	8000c18 <__aeabi_fmul>
 8006002:	493f      	ldr	r1, [pc, #252]	@ (8006100 <atanf+0x204>)
 8006004:	f7fa ff62 	bl	8000ecc <__aeabi_fsub>
 8006008:	1c29      	adds	r1, r5, #0
 800600a:	f7fa fe05 	bl	8000c18 <__aeabi_fmul>
 800600e:	493d      	ldr	r1, [pc, #244]	@ (8006104 <atanf+0x208>)
 8006010:	f7fa ff5c 	bl	8000ecc <__aeabi_fsub>
 8006014:	1c29      	adds	r1, r5, #0
 8006016:	f7fa fdff 	bl	8000c18 <__aeabi_fmul>
 800601a:	1c01      	adds	r1, r0, #0
 800601c:	1c38      	adds	r0, r7, #0
 800601e:	f7fa fa3b 	bl	8000498 <__aeabi_fadd>
 8006022:	1c21      	adds	r1, r4, #0
 8006024:	f7fa fdf8 	bl	8000c18 <__aeabi_fmul>
 8006028:	1c73      	adds	r3, r6, #1
 800602a:	d134      	bne.n	8006096 <atanf+0x19a>
 800602c:	1c01      	adds	r1, r0, #0
 800602e:	1c20      	adds	r0, r4, #0
 8006030:	f7fa ff4c 	bl	8000ecc <__aeabi_fsub>
 8006034:	e772      	b.n	8005f1c <atanf+0x20>
 8006036:	21fe      	movs	r1, #254	@ 0xfe
 8006038:	0589      	lsls	r1, r1, #22
 800603a:	f7fa ff47 	bl	8000ecc <__aeabi_fsub>
 800603e:	21fe      	movs	r1, #254	@ 0xfe
 8006040:	1c05      	adds	r5, r0, #0
 8006042:	0589      	lsls	r1, r1, #22
 8006044:	1c20      	adds	r0, r4, #0
 8006046:	f7fa fa27 	bl	8000498 <__aeabi_fadd>
 800604a:	1c01      	adds	r1, r0, #0
 800604c:	1c28      	adds	r0, r5, #0
 800604e:	f7fa fc15 	bl	800087c <__aeabi_fdiv>
 8006052:	2601      	movs	r6, #1
 8006054:	1c04      	adds	r4, r0, #0
 8006056:	e799      	b.n	8005f8c <atanf+0x90>
 8006058:	4b2b      	ldr	r3, [pc, #172]	@ (8006108 <atanf+0x20c>)
 800605a:	429d      	cmp	r5, r3
 800605c:	d814      	bhi.n	8006088 <atanf+0x18c>
 800605e:	21ff      	movs	r1, #255	@ 0xff
 8006060:	0589      	lsls	r1, r1, #22
 8006062:	f7fa ff33 	bl	8000ecc <__aeabi_fsub>
 8006066:	21ff      	movs	r1, #255	@ 0xff
 8006068:	1c05      	adds	r5, r0, #0
 800606a:	0589      	lsls	r1, r1, #22
 800606c:	1c20      	adds	r0, r4, #0
 800606e:	f7fa fdd3 	bl	8000c18 <__aeabi_fmul>
 8006072:	21fe      	movs	r1, #254	@ 0xfe
 8006074:	0589      	lsls	r1, r1, #22
 8006076:	f7fa fa0f 	bl	8000498 <__aeabi_fadd>
 800607a:	1c01      	adds	r1, r0, #0
 800607c:	1c28      	adds	r0, r5, #0
 800607e:	f7fa fbfd 	bl	800087c <__aeabi_fdiv>
 8006082:	2602      	movs	r6, #2
 8006084:	1c04      	adds	r4, r0, #0
 8006086:	e781      	b.n	8005f8c <atanf+0x90>
 8006088:	1c01      	adds	r1, r0, #0
 800608a:	4820      	ldr	r0, [pc, #128]	@ (800610c <atanf+0x210>)
 800608c:	f7fa fbf6 	bl	800087c <__aeabi_fdiv>
 8006090:	2603      	movs	r6, #3
 8006092:	1c04      	adds	r4, r0, #0
 8006094:	e77a      	b.n	8005f8c <atanf+0x90>
 8006096:	4b1e      	ldr	r3, [pc, #120]	@ (8006110 <atanf+0x214>)
 8006098:	00b6      	lsls	r6, r6, #2
 800609a:	58f1      	ldr	r1, [r6, r3]
 800609c:	f7fa ff16 	bl	8000ecc <__aeabi_fsub>
 80060a0:	1c21      	adds	r1, r4, #0
 80060a2:	f7fa ff13 	bl	8000ecc <__aeabi_fsub>
 80060a6:	4d1b      	ldr	r5, [pc, #108]	@ (8006114 <atanf+0x218>)
 80060a8:	1c01      	adds	r1, r0, #0
 80060aa:	5970      	ldr	r0, [r6, r5]
 80060ac:	f7fa ff0e 	bl	8000ecc <__aeabi_fsub>
 80060b0:	9b01      	ldr	r3, [sp, #4]
 80060b2:	1c04      	adds	r4, r0, #0
 80060b4:	2b00      	cmp	r3, #0
 80060b6:	db00      	blt.n	80060ba <atanf+0x1be>
 80060b8:	e737      	b.n	8005f2a <atanf+0x2e>
 80060ba:	2380      	movs	r3, #128	@ 0x80
 80060bc:	061b      	lsls	r3, r3, #24
 80060be:	18c4      	adds	r4, r0, r3
 80060c0:	e733      	b.n	8005f2a <atanf+0x2e>
 80060c2:	4c15      	ldr	r4, [pc, #84]	@ (8006118 <atanf+0x21c>)
 80060c4:	e731      	b.n	8005f2a <atanf+0x2e>
 80060c6:	46c0      	nop			@ (mov r8, r8)
 80060c8:	3fc90fdb 	.word	0x3fc90fdb
 80060cc:	3edfffff 	.word	0x3edfffff
 80060d0:	7149f2ca 	.word	0x7149f2ca
 80060d4:	3f97ffff 	.word	0x3f97ffff
 80060d8:	3f2fffff 	.word	0x3f2fffff
 80060dc:	3c8569d7 	.word	0x3c8569d7
 80060e0:	3d4bda59 	.word	0x3d4bda59
 80060e4:	3d886b35 	.word	0x3d886b35
 80060e8:	3dba2e6e 	.word	0x3dba2e6e
 80060ec:	3e124925 	.word	0x3e124925
 80060f0:	3eaaaaab 	.word	0x3eaaaaab
 80060f4:	bd15a221 	.word	0xbd15a221
 80060f8:	3d6ef16b 	.word	0x3d6ef16b
 80060fc:	3d9d8795 	.word	0x3d9d8795
 8006100:	3de38e38 	.word	0x3de38e38
 8006104:	3e4ccccd 	.word	0x3e4ccccd
 8006108:	401bffff 	.word	0x401bffff
 800610c:	bf800000 	.word	0xbf800000
 8006110:	08006c74 	.word	0x08006c74
 8006114:	08006c84 	.word	0x08006c84
 8006118:	bfc90fdb 	.word	0xbfc90fdb

0800611c <fabsf>:
 800611c:	0040      	lsls	r0, r0, #1
 800611e:	0840      	lsrs	r0, r0, #1
 8006120:	4770      	bx	lr
	...

08006124 <__kernel_rem_pio2f>:
 8006124:	b5f0      	push	{r4, r5, r6, r7, lr}
 8006126:	b0dd      	sub	sp, #372	@ 0x174
 8006128:	9206      	str	r2, [sp, #24]
 800612a:	9a62      	ldr	r2, [sp, #392]	@ 0x188
 800612c:	9307      	str	r3, [sp, #28]
 800612e:	4bc8      	ldr	r3, [pc, #800]	@ (8006450 <__kernel_rem_pio2f+0x32c>)
 8006130:	0092      	lsls	r2, r2, #2
 8006132:	58d3      	ldr	r3, [r2, r3]
 8006134:	9009      	str	r0, [sp, #36]	@ 0x24
 8006136:	9304      	str	r3, [sp, #16]
 8006138:	9b07      	ldr	r3, [sp, #28]
 800613a:	9102      	str	r1, [sp, #8]
 800613c:	3b01      	subs	r3, #1
 800613e:	9305      	str	r3, [sp, #20]
 8006140:	2300      	movs	r3, #0
 8006142:	9301      	str	r3, [sp, #4]
 8006144:	9b06      	ldr	r3, [sp, #24]
 8006146:	3304      	adds	r3, #4
 8006148:	db07      	blt.n	800615a <__kernel_rem_pio2f+0x36>
 800614a:	2107      	movs	r1, #7
 800614c:	9b06      	ldr	r3, [sp, #24]
 800614e:	1eda      	subs	r2, r3, #3
 8006150:	17d3      	asrs	r3, r2, #31
 8006152:	400b      	ands	r3, r1
 8006154:	189b      	adds	r3, r3, r2
 8006156:	10db      	asrs	r3, r3, #3
 8006158:	9301      	str	r3, [sp, #4]
 800615a:	9b01      	ldr	r3, [sp, #4]
 800615c:	ae20      	add	r6, sp, #128	@ 0x80
 800615e:	3301      	adds	r3, #1
 8006160:	00db      	lsls	r3, r3, #3
 8006162:	9308      	str	r3, [sp, #32]
 8006164:	9a08      	ldr	r2, [sp, #32]
 8006166:	9b06      	ldr	r3, [sp, #24]
 8006168:	1a9b      	subs	r3, r3, r2
 800616a:	9300      	str	r3, [sp, #0]
 800616c:	9a05      	ldr	r2, [sp, #20]
 800616e:	9b01      	ldr	r3, [sp, #4]
 8006170:	1a9d      	subs	r5, r3, r2
 8006172:	002c      	movs	r4, r5
 8006174:	9b04      	ldr	r3, [sp, #16]
 8006176:	189f      	adds	r7, r3, r2
 8006178:	1b63      	subs	r3, r4, r5
 800617a:	429f      	cmp	r7, r3
 800617c:	da0d      	bge.n	800619a <__kernel_rem_pio2f+0x76>
 800617e:	9c07      	ldr	r4, [sp, #28]
 8006180:	af48      	add	r7, sp, #288	@ 0x120
 8006182:	9b07      	ldr	r3, [sp, #28]
 8006184:	9a04      	ldr	r2, [sp, #16]
 8006186:	1ae3      	subs	r3, r4, r3
 8006188:	429a      	cmp	r2, r3
 800618a:	db25      	blt.n	80061d8 <__kernel_rem_pio2f+0xb4>
 800618c:	00a3      	lsls	r3, r4, #2
 800618e:	aa20      	add	r2, sp, #128	@ 0x80
 8006190:	189e      	adds	r6, r3, r2
 8006192:	2300      	movs	r3, #0
 8006194:	2500      	movs	r5, #0
 8006196:	9303      	str	r3, [sp, #12]
 8006198:	e016      	b.n	80061c8 <__kernel_rem_pio2f+0xa4>
 800619a:	2000      	movs	r0, #0
 800619c:	2c00      	cmp	r4, #0
 800619e:	db04      	blt.n	80061aa <__kernel_rem_pio2f+0x86>
 80061a0:	9a63      	ldr	r2, [sp, #396]	@ 0x18c
 80061a2:	00a3      	lsls	r3, r4, #2
 80061a4:	58d0      	ldr	r0, [r2, r3]
 80061a6:	f7fb f92b 	bl	8001400 <__aeabi_i2f>
 80061aa:	c601      	stmia	r6!, {r0}
 80061ac:	3401      	adds	r4, #1
 80061ae:	e7e3      	b.n	8006178 <__kernel_rem_pio2f+0x54>
 80061b0:	9a09      	ldr	r2, [sp, #36]	@ 0x24
 80061b2:	00ab      	lsls	r3, r5, #2
 80061b4:	6831      	ldr	r1, [r6, #0]
 80061b6:	58d0      	ldr	r0, [r2, r3]
 80061b8:	f7fa fd2e 	bl	8000c18 <__aeabi_fmul>
 80061bc:	1c01      	adds	r1, r0, #0
 80061be:	9803      	ldr	r0, [sp, #12]
 80061c0:	f7fa f96a 	bl	8000498 <__aeabi_fadd>
 80061c4:	3501      	adds	r5, #1
 80061c6:	9003      	str	r0, [sp, #12]
 80061c8:	9b05      	ldr	r3, [sp, #20]
 80061ca:	3e04      	subs	r6, #4
 80061cc:	429d      	cmp	r5, r3
 80061ce:	ddef      	ble.n	80061b0 <__kernel_rem_pio2f+0x8c>
 80061d0:	9b03      	ldr	r3, [sp, #12]
 80061d2:	3401      	adds	r4, #1
 80061d4:	c708      	stmia	r7!, {r3}
 80061d6:	e7d4      	b.n	8006182 <__kernel_rem_pio2f+0x5e>
 80061d8:	9b04      	ldr	r3, [sp, #16]
 80061da:	aa0c      	add	r2, sp, #48	@ 0x30
 80061dc:	009b      	lsls	r3, r3, #2
 80061de:	189b      	adds	r3, r3, r2
 80061e0:	930b      	str	r3, [sp, #44]	@ 0x2c
 80061e2:	9b01      	ldr	r3, [sp, #4]
 80061e4:	9a63      	ldr	r2, [sp, #396]	@ 0x18c
 80061e6:	009b      	lsls	r3, r3, #2
 80061e8:	18d3      	adds	r3, r2, r3
 80061ea:	9f04      	ldr	r7, [sp, #16]
 80061ec:	930a      	str	r3, [sp, #40]	@ 0x28
 80061ee:	21f0      	movs	r1, #240	@ 0xf0
 80061f0:	ae0c      	add	r6, sp, #48	@ 0x30
 80061f2:	0034      	movs	r4, r6
 80061f4:	003d      	movs	r5, r7
 80061f6:	aa0c      	add	r2, sp, #48	@ 0x30
 80061f8:	00bb      	lsls	r3, r7, #2
 80061fa:	1852      	adds	r2, r2, r1
 80061fc:	58d3      	ldr	r3, [r2, r3]
 80061fe:	9301      	str	r3, [sp, #4]
 8006200:	2d00      	cmp	r5, #0
 8006202:	dc64      	bgt.n	80062ce <__kernel_rem_pio2f+0x1aa>
 8006204:	9900      	ldr	r1, [sp, #0]
 8006206:	9801      	ldr	r0, [sp, #4]
 8006208:	f000 fa2c 	bl	8006664 <scalbnf>
 800620c:	21f8      	movs	r1, #248	@ 0xf8
 800620e:	0589      	lsls	r1, r1, #22
 8006210:	1c04      	adds	r4, r0, #0
 8006212:	f7fa fd01 	bl	8000c18 <__aeabi_fmul>
 8006216:	f000 fa7b 	bl	8006710 <floorf>
 800621a:	2182      	movs	r1, #130	@ 0x82
 800621c:	05c9      	lsls	r1, r1, #23
 800621e:	f7fa fcfb 	bl	8000c18 <__aeabi_fmul>
 8006222:	1c01      	adds	r1, r0, #0
 8006224:	1c20      	adds	r0, r4, #0
 8006226:	f7fa fe51 	bl	8000ecc <__aeabi_fsub>
 800622a:	1c04      	adds	r4, r0, #0
 800622c:	f7fb f8c8 	bl	80013c0 <__aeabi_f2iz>
 8006230:	9003      	str	r0, [sp, #12]
 8006232:	f7fb f8e5 	bl	8001400 <__aeabi_i2f>
 8006236:	1c01      	adds	r1, r0, #0
 8006238:	1c20      	adds	r0, r4, #0
 800623a:	f7fa fe47 	bl	8000ecc <__aeabi_fsub>
 800623e:	9b00      	ldr	r3, [sp, #0]
 8006240:	1c04      	adds	r4, r0, #0
 8006242:	2b00      	cmp	r3, #0
 8006244:	dd63      	ble.n	800630e <__kernel_rem_pio2f+0x1ea>
 8006246:	2008      	movs	r0, #8
 8006248:	1e7b      	subs	r3, r7, #1
 800624a:	009b      	lsls	r3, r3, #2
 800624c:	aa0c      	add	r2, sp, #48	@ 0x30
 800624e:	589a      	ldr	r2, [r3, r2]
 8006250:	9900      	ldr	r1, [sp, #0]
 8006252:	9d03      	ldr	r5, [sp, #12]
 8006254:	1a40      	subs	r0, r0, r1
 8006256:	0011      	movs	r1, r2
 8006258:	4101      	asrs	r1, r0
 800625a:	186d      	adds	r5, r5, r1
 800625c:	4081      	lsls	r1, r0
 800625e:	1a52      	subs	r2, r2, r1
 8006260:	a90c      	add	r1, sp, #48	@ 0x30
 8006262:	505a      	str	r2, [r3, r1]
 8006264:	2307      	movs	r3, #7
 8006266:	9900      	ldr	r1, [sp, #0]
 8006268:	9503      	str	r5, [sp, #12]
 800626a:	1a5b      	subs	r3, r3, r1
 800626c:	411a      	asrs	r2, r3
 800626e:	9201      	str	r2, [sp, #4]
 8006270:	9b01      	ldr	r3, [sp, #4]
 8006272:	2b00      	cmp	r3, #0
 8006274:	dd5c      	ble.n	8006330 <__kernel_rem_pio2f+0x20c>
 8006276:	9b03      	ldr	r3, [sp, #12]
 8006278:	2200      	movs	r2, #0
 800627a:	3301      	adds	r3, #1
 800627c:	9303      	str	r3, [sp, #12]
 800627e:	2380      	movs	r3, #128	@ 0x80
 8006280:	005b      	lsls	r3, r3, #1
 8006282:	0015      	movs	r5, r2
 8006284:	2101      	movs	r1, #1
 8006286:	20ff      	movs	r0, #255	@ 0xff
 8006288:	469c      	mov	ip, r3
 800628a:	4297      	cmp	r7, r2
 800628c:	dd00      	ble.n	8006290 <__kernel_rem_pio2f+0x16c>
 800628e:	e082      	b.n	8006396 <__kernel_rem_pio2f+0x272>
 8006290:	9b00      	ldr	r3, [sp, #0]
 8006292:	2b00      	cmp	r3, #0
 8006294:	dd05      	ble.n	80062a2 <__kernel_rem_pio2f+0x17e>
 8006296:	2b01      	cmp	r3, #1
 8006298:	d100      	bne.n	800629c <__kernel_rem_pio2f+0x178>
 800629a:	e08b      	b.n	80063b4 <__kernel_rem_pio2f+0x290>
 800629c:	2b02      	cmp	r3, #2
 800629e:	d100      	bne.n	80062a2 <__kernel_rem_pio2f+0x17e>
 80062a0:	e091      	b.n	80063c6 <__kernel_rem_pio2f+0x2a2>
 80062a2:	9b01      	ldr	r3, [sp, #4]
 80062a4:	2b02      	cmp	r3, #2
 80062a6:	d143      	bne.n	8006330 <__kernel_rem_pio2f+0x20c>
 80062a8:	20fe      	movs	r0, #254	@ 0xfe
 80062aa:	1c21      	adds	r1, r4, #0
 80062ac:	0580      	lsls	r0, r0, #22
 80062ae:	f7fa fe0d 	bl	8000ecc <__aeabi_fsub>
 80062b2:	1c04      	adds	r4, r0, #0
 80062b4:	2d00      	cmp	r5, #0
 80062b6:	d03b      	beq.n	8006330 <__kernel_rem_pio2f+0x20c>
 80062b8:	20fe      	movs	r0, #254	@ 0xfe
 80062ba:	9900      	ldr	r1, [sp, #0]
 80062bc:	0580      	lsls	r0, r0, #22
 80062be:	f000 f9d1 	bl	8006664 <scalbnf>
 80062c2:	1c01      	adds	r1, r0, #0
 80062c4:	1c20      	adds	r0, r4, #0
 80062c6:	f7fa fe01 	bl	8000ecc <__aeabi_fsub>
 80062ca:	1c04      	adds	r4, r0, #0
 80062cc:	e030      	b.n	8006330 <__kernel_rem_pio2f+0x20c>
 80062ce:	21ee      	movs	r1, #238	@ 0xee
 80062d0:	9801      	ldr	r0, [sp, #4]
 80062d2:	0589      	lsls	r1, r1, #22
 80062d4:	f7fa fca0 	bl	8000c18 <__aeabi_fmul>
 80062d8:	f7fb f872 	bl	80013c0 <__aeabi_f2iz>
 80062dc:	f7fb f890 	bl	8001400 <__aeabi_i2f>
 80062e0:	2187      	movs	r1, #135	@ 0x87
 80062e2:	05c9      	lsls	r1, r1, #23
 80062e4:	9003      	str	r0, [sp, #12]
 80062e6:	f7fa fc97 	bl	8000c18 <__aeabi_fmul>
 80062ea:	1c01      	adds	r1, r0, #0
 80062ec:	9801      	ldr	r0, [sp, #4]
 80062ee:	f7fa fded 	bl	8000ecc <__aeabi_fsub>
 80062f2:	f7fb f865 	bl	80013c0 <__aeabi_f2iz>
 80062f6:	21f0      	movs	r1, #240	@ 0xf0
 80062f8:	3d01      	subs	r5, #1
 80062fa:	aa0c      	add	r2, sp, #48	@ 0x30
 80062fc:	00ab      	lsls	r3, r5, #2
 80062fe:	1852      	adds	r2, r2, r1
 8006300:	c401      	stmia	r4!, {r0}
 8006302:	58d1      	ldr	r1, [r2, r3]
 8006304:	9803      	ldr	r0, [sp, #12]
 8006306:	f7fa f8c7 	bl	8000498 <__aeabi_fadd>
 800630a:	9001      	str	r0, [sp, #4]
 800630c:	e778      	b.n	8006200 <__kernel_rem_pio2f+0xdc>
 800630e:	9b00      	ldr	r3, [sp, #0]
 8006310:	2b00      	cmp	r3, #0
 8006312:	d106      	bne.n	8006322 <__kernel_rem_pio2f+0x1fe>
 8006314:	1e7b      	subs	r3, r7, #1
 8006316:	009b      	lsls	r3, r3, #2
 8006318:	aa0c      	add	r2, sp, #48	@ 0x30
 800631a:	589b      	ldr	r3, [r3, r2]
 800631c:	11db      	asrs	r3, r3, #7
 800631e:	9301      	str	r3, [sp, #4]
 8006320:	e7a6      	b.n	8006270 <__kernel_rem_pio2f+0x14c>
 8006322:	21fc      	movs	r1, #252	@ 0xfc
 8006324:	0589      	lsls	r1, r1, #22
 8006326:	f7fa f895 	bl	8000454 <__aeabi_fcmpge>
 800632a:	2800      	cmp	r0, #0
 800632c:	d130      	bne.n	8006390 <__kernel_rem_pio2f+0x26c>
 800632e:	9001      	str	r0, [sp, #4]
 8006330:	2100      	movs	r1, #0
 8006332:	1c20      	adds	r0, r4, #0
 8006334:	f7fa f86a 	bl	800040c <__aeabi_fcmpeq>
 8006338:	2800      	cmp	r0, #0
 800633a:	d100      	bne.n	800633e <__kernel_rem_pio2f+0x21a>
 800633c:	e08c      	b.n	8006458 <__kernel_rem_pio2f+0x334>
 800633e:	2200      	movs	r2, #0
 8006340:	1e7b      	subs	r3, r7, #1
 8006342:	9904      	ldr	r1, [sp, #16]
 8006344:	428b      	cmp	r3, r1
 8006346:	da44      	bge.n	80063d2 <__kernel_rem_pio2f+0x2ae>
 8006348:	2a00      	cmp	r2, #0
 800634a:	d05c      	beq.n	8006406 <__kernel_rem_pio2f+0x2e2>
 800634c:	9b00      	ldr	r3, [sp, #0]
 800634e:	3f01      	subs	r7, #1
 8006350:	3b08      	subs	r3, #8
 8006352:	9300      	str	r3, [sp, #0]
 8006354:	aa0c      	add	r2, sp, #48	@ 0x30
 8006356:	00bb      	lsls	r3, r7, #2
 8006358:	589b      	ldr	r3, [r3, r2]
 800635a:	2b00      	cmp	r3, #0
 800635c:	d0f6      	beq.n	800634c <__kernel_rem_pio2f+0x228>
 800635e:	20fe      	movs	r0, #254	@ 0xfe
 8006360:	9900      	ldr	r1, [sp, #0]
 8006362:	0580      	lsls	r0, r0, #22
 8006364:	f000 f97e 	bl	8006664 <scalbnf>
 8006368:	003d      	movs	r5, r7
 800636a:	1c04      	adds	r4, r0, #0
 800636c:	2d00      	cmp	r5, #0
 800636e:	db00      	blt.n	8006372 <__kernel_rem_pio2f+0x24e>
 8006370:	e0a8      	b.n	80064c4 <__kernel_rem_pio2f+0x3a0>
 8006372:	003c      	movs	r4, r7
 8006374:	4b37      	ldr	r3, [pc, #220]	@ (8006454 <__kernel_rem_pio2f+0x330>)
 8006376:	9306      	str	r3, [sp, #24]
 8006378:	2c00      	cmp	r4, #0
 800637a:	da00      	bge.n	800637e <__kernel_rem_pio2f+0x25a>
 800637c:	e0d1      	b.n	8006522 <__kernel_rem_pio2f+0x3fe>
 800637e:	00a3      	lsls	r3, r4, #2
 8006380:	aa48      	add	r2, sp, #288	@ 0x120
 8006382:	189b      	adds	r3, r3, r2
 8006384:	9305      	str	r3, [sp, #20]
 8006386:	1b3b      	subs	r3, r7, r4
 8006388:	2600      	movs	r6, #0
 800638a:	2500      	movs	r5, #0
 800638c:	9300      	str	r3, [sp, #0]
 800638e:	e0ba      	b.n	8006506 <__kernel_rem_pio2f+0x3e2>
 8006390:	2302      	movs	r3, #2
 8006392:	9301      	str	r3, [sp, #4]
 8006394:	e76f      	b.n	8006276 <__kernel_rem_pio2f+0x152>
 8006396:	6833      	ldr	r3, [r6, #0]
 8006398:	2d00      	cmp	r5, #0
 800639a:	d109      	bne.n	80063b0 <__kernel_rem_pio2f+0x28c>
 800639c:	2b00      	cmp	r3, #0
 800639e:	d003      	beq.n	80063a8 <__kernel_rem_pio2f+0x284>
 80063a0:	4665      	mov	r5, ip
 80063a2:	1aeb      	subs	r3, r5, r3
 80063a4:	6033      	str	r3, [r6, #0]
 80063a6:	000b      	movs	r3, r1
 80063a8:	001d      	movs	r5, r3
 80063aa:	3201      	adds	r2, #1
 80063ac:	3604      	adds	r6, #4
 80063ae:	e76c      	b.n	800628a <__kernel_rem_pio2f+0x166>
 80063b0:	1ac3      	subs	r3, r0, r3
 80063b2:	e7f7      	b.n	80063a4 <__kernel_rem_pio2f+0x280>
 80063b4:	217f      	movs	r1, #127	@ 0x7f
 80063b6:	1e7b      	subs	r3, r7, #1
 80063b8:	009b      	lsls	r3, r3, #2
 80063ba:	aa0c      	add	r2, sp, #48	@ 0x30
 80063bc:	589a      	ldr	r2, [r3, r2]
 80063be:	400a      	ands	r2, r1
 80063c0:	a90c      	add	r1, sp, #48	@ 0x30
 80063c2:	505a      	str	r2, [r3, r1]
 80063c4:	e76d      	b.n	80062a2 <__kernel_rem_pio2f+0x17e>
 80063c6:	1e7b      	subs	r3, r7, #1
 80063c8:	009b      	lsls	r3, r3, #2
 80063ca:	aa0c      	add	r2, sp, #48	@ 0x30
 80063cc:	213f      	movs	r1, #63	@ 0x3f
 80063ce:	589a      	ldr	r2, [r3, r2]
 80063d0:	e7f5      	b.n	80063be <__kernel_rem_pio2f+0x29a>
 80063d2:	0099      	lsls	r1, r3, #2
 80063d4:	a80c      	add	r0, sp, #48	@ 0x30
 80063d6:	5809      	ldr	r1, [r1, r0]
 80063d8:	3b01      	subs	r3, #1
 80063da:	430a      	orrs	r2, r1
 80063dc:	e7b1      	b.n	8006342 <__kernel_rem_pio2f+0x21e>
 80063de:	3301      	adds	r3, #1
 80063e0:	990b      	ldr	r1, [sp, #44]	@ 0x2c
 80063e2:	009a      	lsls	r2, r3, #2
 80063e4:	4252      	negs	r2, r2
 80063e6:	588a      	ldr	r2, [r1, r2]
 80063e8:	2a00      	cmp	r2, #0
 80063ea:	d0f8      	beq.n	80063de <__kernel_rem_pio2f+0x2ba>
 80063ec:	9a07      	ldr	r2, [sp, #28]
 80063ee:	a920      	add	r1, sp, #128	@ 0x80
 80063f0:	18ba      	adds	r2, r7, r2
 80063f2:	0092      	lsls	r2, r2, #2
 80063f4:	18fb      	adds	r3, r7, r3
 80063f6:	1c7e      	adds	r6, r7, #1
 80063f8:	188c      	adds	r4, r1, r2
 80063fa:	9301      	str	r3, [sp, #4]
 80063fc:	9b01      	ldr	r3, [sp, #4]
 80063fe:	42b3      	cmp	r3, r6
 8006400:	da03      	bge.n	800640a <__kernel_rem_pio2f+0x2e6>
 8006402:	001f      	movs	r7, r3
 8006404:	e6f3      	b.n	80061ee <__kernel_rem_pio2f+0xca>
 8006406:	2301      	movs	r3, #1
 8006408:	e7ea      	b.n	80063e0 <__kernel_rem_pio2f+0x2bc>
 800640a:	00b3      	lsls	r3, r6, #2
 800640c:	9303      	str	r3, [sp, #12]
 800640e:	9b0a      	ldr	r3, [sp, #40]	@ 0x28
 8006410:	00b2      	lsls	r2, r6, #2
 8006412:	5898      	ldr	r0, [r3, r2]
 8006414:	f7fa fff4 	bl	8001400 <__aeabi_i2f>
 8006418:	2700      	movs	r7, #0
 800641a:	2500      	movs	r5, #0
 800641c:	6020      	str	r0, [r4, #0]
 800641e:	9b05      	ldr	r3, [sp, #20]
 8006420:	429f      	cmp	r7, r3
 8006422:	dd07      	ble.n	8006434 <__kernel_rem_pio2f+0x310>
 8006424:	21f0      	movs	r1, #240	@ 0xf0
 8006426:	9a03      	ldr	r2, [sp, #12]
 8006428:	ab0c      	add	r3, sp, #48	@ 0x30
 800642a:	185b      	adds	r3, r3, r1
 800642c:	509d      	str	r5, [r3, r2]
 800642e:	3601      	adds	r6, #1
 8006430:	3404      	adds	r4, #4
 8006432:	e7e3      	b.n	80063fc <__kernel_rem_pio2f+0x2d8>
 8006434:	00bb      	lsls	r3, r7, #2
 8006436:	9909      	ldr	r1, [sp, #36]	@ 0x24
 8006438:	425a      	negs	r2, r3
 800643a:	58c9      	ldr	r1, [r1, r3]
 800643c:	58a0      	ldr	r0, [r4, r2]
 800643e:	f7fa fbeb 	bl	8000c18 <__aeabi_fmul>
 8006442:	1c01      	adds	r1, r0, #0
 8006444:	1c28      	adds	r0, r5, #0
 8006446:	f7fa f827 	bl	8000498 <__aeabi_fadd>
 800644a:	3701      	adds	r7, #1
 800644c:	1c05      	adds	r5, r0, #0
 800644e:	e7e6      	b.n	800641e <__kernel_rem_pio2f+0x2fa>
 8006450:	08006cc0 	.word	0x08006cc0
 8006454:	08006c94 	.word	0x08006c94
 8006458:	9b08      	ldr	r3, [sp, #32]
 800645a:	9a06      	ldr	r2, [sp, #24]
 800645c:	1c20      	adds	r0, r4, #0
 800645e:	1a99      	subs	r1, r3, r2
 8006460:	f000 f900 	bl	8006664 <scalbnf>
 8006464:	2187      	movs	r1, #135	@ 0x87
 8006466:	05c9      	lsls	r1, r1, #23
 8006468:	1c04      	adds	r4, r0, #0
 800646a:	f7f9 fff3 	bl	8000454 <__aeabi_fcmpge>
 800646e:	2800      	cmp	r0, #0
 8006470:	d021      	beq.n	80064b6 <__kernel_rem_pio2f+0x392>
 8006472:	21ee      	movs	r1, #238	@ 0xee
 8006474:	1c20      	adds	r0, r4, #0
 8006476:	0589      	lsls	r1, r1, #22
 8006478:	f7fa fbce 	bl	8000c18 <__aeabi_fmul>
 800647c:	f7fa ffa0 	bl	80013c0 <__aeabi_f2iz>
 8006480:	f7fa ffbe 	bl	8001400 <__aeabi_i2f>
 8006484:	2187      	movs	r1, #135	@ 0x87
 8006486:	05c9      	lsls	r1, r1, #23
 8006488:	1c05      	adds	r5, r0, #0
 800648a:	f7fa fbc5 	bl	8000c18 <__aeabi_fmul>
 800648e:	1c01      	adds	r1, r0, #0
 8006490:	1c20      	adds	r0, r4, #0
 8006492:	f7fa fd1b 	bl	8000ecc <__aeabi_fsub>
 8006496:	f7fa ff93 	bl	80013c0 <__aeabi_f2iz>
 800649a:	00be      	lsls	r6, r7, #2
 800649c:	ab0c      	add	r3, sp, #48	@ 0x30
 800649e:	5198      	str	r0, [r3, r6]
 80064a0:	9b00      	ldr	r3, [sp, #0]
 80064a2:	1c28      	adds	r0, r5, #0
 80064a4:	3308      	adds	r3, #8
 80064a6:	9300      	str	r3, [sp, #0]
 80064a8:	f7fa ff8a 	bl	80013c0 <__aeabi_f2iz>
 80064ac:	3701      	adds	r7, #1
 80064ae:	00bc      	lsls	r4, r7, #2
 80064b0:	ab0c      	add	r3, sp, #48	@ 0x30
 80064b2:	5118      	str	r0, [r3, r4]
 80064b4:	e753      	b.n	800635e <__kernel_rem_pio2f+0x23a>
 80064b6:	1c20      	adds	r0, r4, #0
 80064b8:	f7fa ff82 	bl	80013c0 <__aeabi_f2iz>
 80064bc:	00bd      	lsls	r5, r7, #2
 80064be:	ab0c      	add	r3, sp, #48	@ 0x30
 80064c0:	5158      	str	r0, [r3, r5]
 80064c2:	e74c      	b.n	800635e <__kernel_rem_pio2f+0x23a>
 80064c4:	ab0c      	add	r3, sp, #48	@ 0x30
 80064c6:	00ae      	lsls	r6, r5, #2
 80064c8:	58f0      	ldr	r0, [r6, r3]
 80064ca:	f7fa ff99 	bl	8001400 <__aeabi_i2f>
 80064ce:	1c21      	adds	r1, r4, #0
 80064d0:	f7fa fba2 	bl	8000c18 <__aeabi_fmul>
 80064d4:	22f0      	movs	r2, #240	@ 0xf0
 80064d6:	21ee      	movs	r1, #238	@ 0xee
 80064d8:	ab0c      	add	r3, sp, #48	@ 0x30
 80064da:	189b      	adds	r3, r3, r2
 80064dc:	5198      	str	r0, [r3, r6]
 80064de:	0589      	lsls	r1, r1, #22
 80064e0:	1c20      	adds	r0, r4, #0
 80064e2:	f7fa fb99 	bl	8000c18 <__aeabi_fmul>
 80064e6:	3d01      	subs	r5, #1
 80064e8:	1c04      	adds	r4, r0, #0
 80064ea:	e73f      	b.n	800636c <__kernel_rem_pio2f+0x248>
 80064ec:	9a05      	ldr	r2, [sp, #20]
 80064ee:	00ab      	lsls	r3, r5, #2
 80064f0:	58d1      	ldr	r1, [r2, r3]
 80064f2:	9a06      	ldr	r2, [sp, #24]
 80064f4:	3501      	adds	r5, #1
 80064f6:	58d0      	ldr	r0, [r2, r3]
 80064f8:	f7fa fb8e 	bl	8000c18 <__aeabi_fmul>
 80064fc:	1c01      	adds	r1, r0, #0
 80064fe:	1c30      	adds	r0, r6, #0
 8006500:	f7f9 ffca 	bl	8000498 <__aeabi_fadd>
 8006504:	1c06      	adds	r6, r0, #0
 8006506:	9b04      	ldr	r3, [sp, #16]
 8006508:	429d      	cmp	r5, r3
 800650a:	dc02      	bgt.n	8006512 <__kernel_rem_pio2f+0x3ee>
 800650c:	9b00      	ldr	r3, [sp, #0]
 800650e:	429d      	cmp	r5, r3
 8006510:	ddec      	ble.n	80064ec <__kernel_rem_pio2f+0x3c8>
 8006512:	21a0      	movs	r1, #160	@ 0xa0
 8006514:	9b00      	ldr	r3, [sp, #0]
 8006516:	aa0c      	add	r2, sp, #48	@ 0x30
 8006518:	009b      	lsls	r3, r3, #2
 800651a:	1852      	adds	r2, r2, r1
 800651c:	50d6      	str	r6, [r2, r3]
 800651e:	3c01      	subs	r4, #1
 8006520:	e72a      	b.n	8006378 <__kernel_rem_pio2f+0x254>
 8006522:	9b62      	ldr	r3, [sp, #392]	@ 0x188
 8006524:	2b02      	cmp	r3, #2
 8006526:	dc08      	bgt.n	800653a <__kernel_rem_pio2f+0x416>
 8006528:	2b00      	cmp	r3, #0
 800652a:	dc58      	bgt.n	80065de <__kernel_rem_pio2f+0x4ba>
 800652c:	d033      	beq.n	8006596 <__kernel_rem_pio2f+0x472>
 800652e:	2007      	movs	r0, #7
 8006530:	9b03      	ldr	r3, [sp, #12]
 8006532:	4003      	ands	r3, r0
 8006534:	0018      	movs	r0, r3
 8006536:	b05d      	add	sp, #372	@ 0x174
 8006538:	bdf0      	pop	{r4, r5, r6, r7, pc}
 800653a:	9b62      	ldr	r3, [sp, #392]	@ 0x188
 800653c:	2b03      	cmp	r3, #3
 800653e:	d1f6      	bne.n	800652e <__kernel_rem_pio2f+0x40a>
 8006540:	00bb      	lsls	r3, r7, #2
 8006542:	aa34      	add	r2, sp, #208	@ 0xd0
 8006544:	18d6      	adds	r6, r2, r3
 8006546:	0034      	movs	r4, r6
 8006548:	003d      	movs	r5, r7
 800654a:	3c04      	subs	r4, #4
 800654c:	2d00      	cmp	r5, #0
 800654e:	dc50      	bgt.n	80065f2 <__kernel_rem_pio2f+0x4ce>
 8006550:	003d      	movs	r5, r7
 8006552:	3e04      	subs	r6, #4
 8006554:	2d01      	cmp	r5, #1
 8006556:	dc61      	bgt.n	800661c <__kernel_rem_pio2f+0x4f8>
 8006558:	2000      	movs	r0, #0
 800655a:	ac34      	add	r4, sp, #208	@ 0xd0
 800655c:	2f01      	cmp	r7, #1
 800655e:	dc71      	bgt.n	8006644 <__kernel_rem_pio2f+0x520>
 8006560:	9901      	ldr	r1, [sp, #4]
 8006562:	9a34      	ldr	r2, [sp, #208]	@ 0xd0
 8006564:	6863      	ldr	r3, [r4, #4]
 8006566:	2900      	cmp	r1, #0
 8006568:	d172      	bne.n	8006650 <__kernel_rem_pio2f+0x52c>
 800656a:	9902      	ldr	r1, [sp, #8]
 800656c:	604b      	str	r3, [r1, #4]
 800656e:	000b      	movs	r3, r1
 8006570:	600a      	str	r2, [r1, #0]
 8006572:	6098      	str	r0, [r3, #8]
 8006574:	e7db      	b.n	800652e <__kernel_rem_pio2f+0x40a>
 8006576:	00bb      	lsls	r3, r7, #2
 8006578:	5919      	ldr	r1, [r3, r4]
 800657a:	f7f9 ff8d 	bl	8000498 <__aeabi_fadd>
 800657e:	3f01      	subs	r7, #1
 8006580:	2f00      	cmp	r7, #0
 8006582:	daf8      	bge.n	8006576 <__kernel_rem_pio2f+0x452>
 8006584:	9b01      	ldr	r3, [sp, #4]
 8006586:	2b00      	cmp	r3, #0
 8006588:	d002      	beq.n	8006590 <__kernel_rem_pio2f+0x46c>
 800658a:	2380      	movs	r3, #128	@ 0x80
 800658c:	061b      	lsls	r3, r3, #24
 800658e:	18c0      	adds	r0, r0, r3
 8006590:	9b02      	ldr	r3, [sp, #8]
 8006592:	6018      	str	r0, [r3, #0]
 8006594:	e7cb      	b.n	800652e <__kernel_rem_pio2f+0x40a>
 8006596:	2000      	movs	r0, #0
 8006598:	ac34      	add	r4, sp, #208	@ 0xd0
 800659a:	e7f1      	b.n	8006580 <__kernel_rem_pio2f+0x45c>
 800659c:	00a3      	lsls	r3, r4, #2
 800659e:	5959      	ldr	r1, [r3, r5]
 80065a0:	f7f9 ff7a 	bl	8000498 <__aeabi_fadd>
 80065a4:	3c01      	subs	r4, #1
 80065a6:	2c00      	cmp	r4, #0
 80065a8:	daf8      	bge.n	800659c <__kernel_rem_pio2f+0x478>
 80065aa:	9a01      	ldr	r2, [sp, #4]
 80065ac:	1c03      	adds	r3, r0, #0
 80065ae:	2a00      	cmp	r2, #0
 80065b0:	d002      	beq.n	80065b8 <__kernel_rem_pio2f+0x494>
 80065b2:	2380      	movs	r3, #128	@ 0x80
 80065b4:	061b      	lsls	r3, r3, #24
 80065b6:	18c3      	adds	r3, r0, r3
 80065b8:	9a02      	ldr	r2, [sp, #8]
 80065ba:	1c01      	adds	r1, r0, #0
 80065bc:	6013      	str	r3, [r2, #0]
 80065be:	9834      	ldr	r0, [sp, #208]	@ 0xd0
 80065c0:	f7fa fc84 	bl	8000ecc <__aeabi_fsub>
 80065c4:	2401      	movs	r4, #1
 80065c6:	ad34      	add	r5, sp, #208	@ 0xd0
 80065c8:	42a7      	cmp	r7, r4
 80065ca:	da0c      	bge.n	80065e6 <__kernel_rem_pio2f+0x4c2>
 80065cc:	9b01      	ldr	r3, [sp, #4]
 80065ce:	2b00      	cmp	r3, #0
 80065d0:	d002      	beq.n	80065d8 <__kernel_rem_pio2f+0x4b4>
 80065d2:	2380      	movs	r3, #128	@ 0x80
 80065d4:	061b      	lsls	r3, r3, #24
 80065d6:	18c0      	adds	r0, r0, r3
 80065d8:	9b02      	ldr	r3, [sp, #8]
 80065da:	6058      	str	r0, [r3, #4]
 80065dc:	e7a7      	b.n	800652e <__kernel_rem_pio2f+0x40a>
 80065de:	003c      	movs	r4, r7
 80065e0:	2000      	movs	r0, #0
 80065e2:	ad34      	add	r5, sp, #208	@ 0xd0
 80065e4:	e7df      	b.n	80065a6 <__kernel_rem_pio2f+0x482>
 80065e6:	00a3      	lsls	r3, r4, #2
 80065e8:	5959      	ldr	r1, [r3, r5]
 80065ea:	f7f9 ff55 	bl	8000498 <__aeabi_fadd>
 80065ee:	3401      	adds	r4, #1
 80065f0:	e7ea      	b.n	80065c8 <__kernel_rem_pio2f+0x4a4>
 80065f2:	6823      	ldr	r3, [r4, #0]
 80065f4:	3d01      	subs	r5, #1
 80065f6:	9300      	str	r3, [sp, #0]
 80065f8:	6863      	ldr	r3, [r4, #4]
 80065fa:	9800      	ldr	r0, [sp, #0]
 80065fc:	1c19      	adds	r1, r3, #0
 80065fe:	9304      	str	r3, [sp, #16]
 8006600:	f7f9 ff4a 	bl	8000498 <__aeabi_fadd>
 8006604:	1c01      	adds	r1, r0, #0
 8006606:	9005      	str	r0, [sp, #20]
 8006608:	9800      	ldr	r0, [sp, #0]
 800660a:	f7fa fc5f 	bl	8000ecc <__aeabi_fsub>
 800660e:	9904      	ldr	r1, [sp, #16]
 8006610:	f7f9 ff42 	bl	8000498 <__aeabi_fadd>
 8006614:	9b05      	ldr	r3, [sp, #20]
 8006616:	6060      	str	r0, [r4, #4]
 8006618:	6023      	str	r3, [r4, #0]
 800661a:	e796      	b.n	800654a <__kernel_rem_pio2f+0x426>
 800661c:	6833      	ldr	r3, [r6, #0]
 800661e:	3d01      	subs	r5, #1
 8006620:	9300      	str	r3, [sp, #0]
 8006622:	6873      	ldr	r3, [r6, #4]
 8006624:	9800      	ldr	r0, [sp, #0]
 8006626:	1c19      	adds	r1, r3, #0
 8006628:	9304      	str	r3, [sp, #16]
 800662a:	f7f9 ff35 	bl	8000498 <__aeabi_fadd>
 800662e:	1c01      	adds	r1, r0, #0
 8006630:	1c04      	adds	r4, r0, #0
 8006632:	9800      	ldr	r0, [sp, #0]
 8006634:	f7fa fc4a 	bl	8000ecc <__aeabi_fsub>
 8006638:	9904      	ldr	r1, [sp, #16]
 800663a:	f7f9 ff2d 	bl	8000498 <__aeabi_fadd>
 800663e:	6034      	str	r4, [r6, #0]
 8006640:	6070      	str	r0, [r6, #4]
 8006642:	e786      	b.n	8006552 <__kernel_rem_pio2f+0x42e>
 8006644:	00bb      	lsls	r3, r7, #2
 8006646:	58e1      	ldr	r1, [r4, r3]
 8006648:	f7f9 ff26 	bl	8000498 <__aeabi_fadd>
 800664c:	3f01      	subs	r7, #1
 800664e:	e785      	b.n	800655c <__kernel_rem_pio2f+0x438>
 8006650:	2180      	movs	r1, #128	@ 0x80
 8006652:	9c02      	ldr	r4, [sp, #8]
 8006654:	0609      	lsls	r1, r1, #24
 8006656:	185b      	adds	r3, r3, r1
 8006658:	1852      	adds	r2, r2, r1
 800665a:	6063      	str	r3, [r4, #4]
 800665c:	6022      	str	r2, [r4, #0]
 800665e:	0023      	movs	r3, r4
 8006660:	1840      	adds	r0, r0, r1
 8006662:	e786      	b.n	8006572 <__kernel_rem_pio2f+0x44e>

08006664 <scalbnf>:
 8006664:	0043      	lsls	r3, r0, #1
 8006666:	b570      	push	{r4, r5, r6, lr}
 8006668:	0002      	movs	r2, r0
 800666a:	000c      	movs	r4, r1
 800666c:	085d      	lsrs	r5, r3, #1
 800666e:	2b00      	cmp	r3, #0
 8006670:	d006      	beq.n	8006680 <scalbnf+0x1c>
 8006672:	21ff      	movs	r1, #255	@ 0xff
 8006674:	05c9      	lsls	r1, r1, #23
 8006676:	428d      	cmp	r5, r1
 8006678:	d303      	bcc.n	8006682 <scalbnf+0x1e>
 800667a:	1c01      	adds	r1, r0, #0
 800667c:	f7f9 ff0c 	bl	8000498 <__aeabi_fadd>
 8006680:	bd70      	pop	{r4, r5, r6, pc}
 8006682:	4208      	tst	r0, r1
 8006684:	d118      	bne.n	80066b8 <scalbnf+0x54>
 8006686:	2198      	movs	r1, #152	@ 0x98
 8006688:	05c9      	lsls	r1, r1, #23
 800668a:	f7fa fac5 	bl	8000c18 <__aeabi_fmul>
 800668e:	4b19      	ldr	r3, [pc, #100]	@ (80066f4 <scalbnf+0x90>)
 8006690:	429c      	cmp	r4, r3
 8006692:	db0d      	blt.n	80066b0 <scalbnf+0x4c>
 8006694:	0002      	movs	r2, r0
 8006696:	15c3      	asrs	r3, r0, #23
 8006698:	b2db      	uxtb	r3, r3
 800669a:	3b19      	subs	r3, #25
 800669c:	4916      	ldr	r1, [pc, #88]	@ (80066f8 <scalbnf+0x94>)
 800669e:	428c      	cmp	r4, r1
 80066a0:	dd0c      	ble.n	80066bc <scalbnf+0x58>
 80066a2:	4b16      	ldr	r3, [pc, #88]	@ (80066fc <scalbnf+0x98>)
 80066a4:	2800      	cmp	r0, #0
 80066a6:	da00      	bge.n	80066aa <scalbnf+0x46>
 80066a8:	4b15      	ldr	r3, [pc, #84]	@ (8006700 <scalbnf+0x9c>)
 80066aa:	4914      	ldr	r1, [pc, #80]	@ (80066fc <scalbnf+0x98>)
 80066ac:	1c18      	adds	r0, r3, #0
 80066ae:	e000      	b.n	80066b2 <scalbnf+0x4e>
 80066b0:	4914      	ldr	r1, [pc, #80]	@ (8006704 <scalbnf+0xa0>)
 80066b2:	f7fa fab1 	bl	8000c18 <__aeabi_fmul>
 80066b6:	e7e3      	b.n	8006680 <scalbnf+0x1c>
 80066b8:	0e1b      	lsrs	r3, r3, #24
 80066ba:	e7ef      	b.n	800669c <scalbnf+0x38>
 80066bc:	1919      	adds	r1, r3, r4
 80066be:	29fe      	cmp	r1, #254	@ 0xfe
 80066c0:	dcef      	bgt.n	80066a2 <scalbnf+0x3e>
 80066c2:	2900      	cmp	r1, #0
 80066c4:	dd04      	ble.n	80066d0 <scalbnf+0x6c>
 80066c6:	4810      	ldr	r0, [pc, #64]	@ (8006708 <scalbnf+0xa4>)
 80066c8:	05c9      	lsls	r1, r1, #23
 80066ca:	4010      	ands	r0, r2
 80066cc:	4308      	orrs	r0, r1
 80066ce:	e7d7      	b.n	8006680 <scalbnf+0x1c>
 80066d0:	000b      	movs	r3, r1
 80066d2:	3316      	adds	r3, #22
 80066d4:	da05      	bge.n	80066e2 <scalbnf+0x7e>
 80066d6:	4b0b      	ldr	r3, [pc, #44]	@ (8006704 <scalbnf+0xa0>)
 80066d8:	2800      	cmp	r0, #0
 80066da:	da00      	bge.n	80066de <scalbnf+0x7a>
 80066dc:	4b0b      	ldr	r3, [pc, #44]	@ (800670c <scalbnf+0xa8>)
 80066de:	4909      	ldr	r1, [pc, #36]	@ (8006704 <scalbnf+0xa0>)
 80066e0:	e7e4      	b.n	80066ac <scalbnf+0x48>
 80066e2:	3119      	adds	r1, #25
 80066e4:	05c8      	lsls	r0, r1, #23
 80066e6:	21cc      	movs	r1, #204	@ 0xcc
 80066e8:	4b07      	ldr	r3, [pc, #28]	@ (8006708 <scalbnf+0xa4>)
 80066ea:	0589      	lsls	r1, r1, #22
 80066ec:	401a      	ands	r2, r3
 80066ee:	4310      	orrs	r0, r2
 80066f0:	e7df      	b.n	80066b2 <scalbnf+0x4e>
 80066f2:	46c0      	nop			@ (mov r8, r8)
 80066f4:	ffff3cb0 	.word	0xffff3cb0
 80066f8:	0000c350 	.word	0x0000c350
 80066fc:	7149f2ca 	.word	0x7149f2ca
 8006700:	f149f2ca 	.word	0xf149f2ca
 8006704:	0da24260 	.word	0x0da24260
 8006708:	807fffff 	.word	0x807fffff
 800670c:	8da24260 	.word	0x8da24260

08006710 <floorf>:
 8006710:	b5f8      	push	{r3, r4, r5, r6, r7, lr}
 8006712:	0045      	lsls	r5, r0, #1
 8006714:	086e      	lsrs	r6, r5, #1
 8006716:	0e2d      	lsrs	r5, r5, #24
 8006718:	3d7f      	subs	r5, #127	@ 0x7f
 800671a:	0007      	movs	r7, r0
 800671c:	2d16      	cmp	r5, #22
 800671e:	dc2c      	bgt.n	800677a <floorf+0x6a>
 8006720:	0004      	movs	r4, r0
 8006722:	2d00      	cmp	r5, #0
 8006724:	da15      	bge.n	8006752 <floorf+0x42>
 8006726:	4919      	ldr	r1, [pc, #100]	@ (800678c <floorf+0x7c>)
 8006728:	f7f9 feb6 	bl	8000498 <__aeabi_fadd>
 800672c:	2100      	movs	r1, #0
 800672e:	f7f9 fe87 	bl	8000440 <__aeabi_fcmpgt>
 8006732:	2800      	cmp	r0, #0
 8006734:	d00b      	beq.n	800674e <floorf+0x3e>
 8006736:	2400      	movs	r4, #0
 8006738:	42a7      	cmp	r7, r4
 800673a:	da08      	bge.n	800674e <floorf+0x3e>
 800673c:	1e73      	subs	r3, r6, #1
 800673e:	419e      	sbcs	r6, r3
 8006740:	23fe      	movs	r3, #254	@ 0xfe
 8006742:	4274      	negs	r4, r6
 8006744:	059b      	lsls	r3, r3, #22
 8006746:	401c      	ands	r4, r3
 8006748:	2380      	movs	r3, #128	@ 0x80
 800674a:	061b      	lsls	r3, r3, #24
 800674c:	18e4      	adds	r4, r4, r3
 800674e:	1c20      	adds	r0, r4, #0
 8006750:	e01a      	b.n	8006788 <floorf+0x78>
 8006752:	4e0f      	ldr	r6, [pc, #60]	@ (8006790 <floorf+0x80>)
 8006754:	412e      	asrs	r6, r5
 8006756:	4206      	tst	r6, r0
 8006758:	d016      	beq.n	8006788 <floorf+0x78>
 800675a:	490c      	ldr	r1, [pc, #48]	@ (800678c <floorf+0x7c>)
 800675c:	f7f9 fe9c 	bl	8000498 <__aeabi_fadd>
 8006760:	2100      	movs	r1, #0
 8006762:	f7f9 fe6d 	bl	8000440 <__aeabi_fcmpgt>
 8006766:	2800      	cmp	r0, #0
 8006768:	d0f1      	beq.n	800674e <floorf+0x3e>
 800676a:	2f00      	cmp	r7, #0
 800676c:	da03      	bge.n	8006776 <floorf+0x66>
 800676e:	2380      	movs	r3, #128	@ 0x80
 8006770:	041b      	lsls	r3, r3, #16
 8006772:	412b      	asrs	r3, r5
 8006774:	18fc      	adds	r4, r7, r3
 8006776:	43b4      	bics	r4, r6
 8006778:	e7e9      	b.n	800674e <floorf+0x3e>
 800677a:	23ff      	movs	r3, #255	@ 0xff
 800677c:	05db      	lsls	r3, r3, #23
 800677e:	429e      	cmp	r6, r3
 8006780:	d302      	bcc.n	8006788 <floorf+0x78>
 8006782:	1c01      	adds	r1, r0, #0
 8006784:	f7f9 fe88 	bl	8000498 <__aeabi_fadd>
 8006788:	bdf8      	pop	{r3, r4, r5, r6, r7, pc}
 800678a:	46c0      	nop			@ (mov r8, r8)
 800678c:	7149f2ca 	.word	0x7149f2ca
 8006790:	007fffff 	.word	0x007fffff

08006794 <_init>:
 8006794:	b5f8      	push	{r3, r4, r5, r6, r7, lr}
 8006796:	46c0      	nop			@ (mov r8, r8)
 8006798:	bcf8      	pop	{r3, r4, r5, r6, r7}
 800679a:	bc08      	pop	{r3}
 800679c:	469e      	mov	lr, r3
 800679e:	4770      	bx	lr

080067a0 <_fini>:
 80067a0:	b5f8      	push	{r3, r4, r5, r6, r7, lr}
 80067a2:	46c0      	nop			@ (mov r8, r8)
 80067a4:	bcf8      	pop	{r3, r4, r5, r6, r7}
 80067a6:	bc08      	pop	{r3}
 80067a8:	469e      	mov	lr, r3
 80067aa:	4770      	bx	lr
